///////////////////////////////////////////////////////////////////////////////
//
// IAR ANSI C/C++ Compiler V7.80.1.11864/W32 for ARM      25/Jan/2017  17:34:50
// Copyright 1999-2016 IAR Systems AB.
//
//    Cpu mode     =  thumb
//    Endian       =  little
//    Source file  =  
//        C:\LEO\myGit\MTK
//        IOT\SDK_V4.2.0\project\mt7697_hdk\apps\iot_sdk_demo\src\cli_def.c
//    Command line =  
//        "C:\LEO\myGit\MTK
//        IOT\SDK_V4.2.0\project\mt7697_hdk\apps\iot_sdk_demo\src\cli_def.c" -D
//        MTK_LOAD_MAC_ADDR_FROM_EFUSE -D MTK_PING_OUT_ENABLE -D
//        MTK_WIFI_PROFILE_ENABLE -D PCFG_OS=2 -D _REENT_SMALL -D
//        MTK_MINISUPP_ENABLE -D MTK_MINICLI_ENABLE -D MTK_BSPEXT_ENABLE -D
//        MTK_HAL_LOWPOWER_ENABLE -D MTK_LWIP_ENABLE -D
//        MTK_HTTPCLIENT_SSL_ENABLE -D MTK_IPERF_ENABLE -D PRODUCT_VERSION=7697
//        -D MTK_WIFI_TGN_VERIFY_ENABLE -D MTK_SMTCN_ENABLE -D
//        MTK_CLI_TEST_MODE_ENABLE -D MTK_WIFI_REPEATER_ENABLE -D
//        CONFIG_REPEATER -D MTK_DEBUG_LEVEL_INFO -D MTK_DEBUG_LEVEL_WARNING -D
//        MTK_DEBUG_LEVEL_ERROR -D configOVERRIDE_DEFAULT_TICK_CONFIGURATION -D
//        CFG_SUPPORT_SMNT_PROTO=2 -D BT_DEBUG -D MTK_BLE_CLI_ENABLE -D
//        MTK_BLE_BQB_CLI_ENABLE -D MTK_HCI_CONSOLE_MIX_ENABLE -D
//        MTK_BLE_BQB_TEST_ENABLE -D MTK_BLE_SMTCN_ENABLE -D SUPPORT_MBEDTLS -D
//        MBEDTLS_CONFIG_FILE=<config-mtk-basic.h> -D MTK_NVDM_ENABLE -D
//        MTK_WIFI_PRIVILEGE_ENABLE -D MTK_MCS_ENABLE -D MTK_BLE_GPIO_SERVICE
//        -D __BT_DEBUG__ -lcN "C:\LEO\myGit\MTK
//        IOT\SDK_V4.2.0\out_iar\mt7697_hdk\iot_sdk_demo\Debug\List" -lA
//        "C:\LEO\myGit\MTK
//        IOT\SDK_V4.2.0\out_iar\mt7697_hdk\iot_sdk_demo\Debug\List"
//        --diag_suppress Pa050,Ta022,Ta023 --diag_error Pe606 -o
//        "C:\LEO\myGit\MTK
//        IOT\SDK_V4.2.0\out_iar\mt7697_hdk\iot_sdk_demo\Debug\Obj" --no_unroll
//        --no_inline --no_tbaa --no_scheduling --debug --endian=little
//        --cpu=Cortex-M4 -e --fpu=VFPv4_sp --dlib_config "C:\Program Files
//        (x86)\IAR Systems\Embedded Workbench
//        7.5\arm\INC\c\DLib_Config_Full.h" -I "C:\LEO\myGit\MTK
//        IOT\SDK_V4.2.0\project\mt7697_hdk\apps\iot_sdk_demo\EWARM\..\inc\" -I
//        "C:\LEO\myGit\MTK
//        IOT\SDK_V4.2.0\project\mt7697_hdk\apps\iot_sdk_demo\EWARM\..\..\..\..\..\kernel\service\inc\"
//        -I "C:\LEO\myGit\MTK
//        IOT\SDK_V4.2.0\project\mt7697_hdk\apps\iot_sdk_demo\EWARM\..\..\..\..\..\kernel\rtos\FreeRTOS\Source\include\"
//        -I "C:\LEO\myGit\MTK
//        IOT\SDK_V4.2.0\project\mt7697_hdk\apps\iot_sdk_demo\EWARM\..\..\..\..\..\kernel\rtos\FreeRTOS\Source\portable\IAR\ARM_CM4F\"
//        -I "C:\LEO\myGit\MTK
//        IOT\SDK_V4.2.0\project\mt7697_hdk\apps\iot_sdk_demo\EWARM\..\..\..\..\..\kernel\rtos\FreeRTOS\inc\"
//        -I "C:\LEO\myGit\MTK
//        IOT\SDK_V4.2.0\project\mt7697_hdk\apps\iot_sdk_demo\EWARM\..\..\..\..\..\driver\CMSIS\Device\MTK\mt7687\Include\"
//        -I "C:\LEO\myGit\MTK
//        IOT\SDK_V4.2.0\project\mt7697_hdk\apps\iot_sdk_demo\EWARM\..\..\..\..\..\driver\CMSIS\Include\"
//        -I "C:\LEO\myGit\MTK
//        IOT\SDK_V4.2.0\project\mt7697_hdk\apps\iot_sdk_demo\EWARM\..\..\..\..\..\driver\chip\inc\"
//        -I "C:\LEO\myGit\MTK
//        IOT\SDK_V4.2.0\project\mt7697_hdk\apps\iot_sdk_demo\EWARM\..\..\..\..\..\driver\chip\mt7687\inc\"
//        -I "C:\LEO\myGit\MTK
//        IOT\SDK_V4.2.0\project\mt7697_hdk\apps\iot_sdk_demo\EWARM\..\..\..\..\..\driver\board\mt76x7_hdk\wifi\inc\"
//        -I "C:\LEO\myGit\MTK
//        IOT\SDK_V4.2.0\project\mt7697_hdk\apps\iot_sdk_demo\EWARM\..\..\..\..\..\middleware\third_party\dhcpd\inc\"
//        -I "C:\LEO\myGit\MTK
//        IOT\SDK_V4.2.0\project\mt7697_hdk\apps\iot_sdk_demo\EWARM\..\..\..\..\..\middleware\MTK\minicli\inc\"
//        -I "C:\LEO\myGit\MTK
//        IOT\SDK_V4.2.0\project\mt7697_hdk\apps\iot_sdk_demo\EWARM\..\..\..\..\..\middleware\MTK\minisupp\inc\"
//        -I "C:\LEO\myGit\MTK
//        IOT\SDK_V4.2.0\project\mt7697_hdk\apps\iot_sdk_demo\EWARM\..\..\..\..\..\driver\chip\inc\"
//        -I "C:\LEO\myGit\MTK
//        IOT\SDK_V4.2.0\project\mt7697_hdk\apps\iot_sdk_demo\EWARM\..\..\..\..\..\driver\chip\mt7687\src\common\include\"
//        -I "C:\LEO\myGit\MTK
//        IOT\SDK_V4.2.0\project\mt7697_hdk\apps\iot_sdk_demo\EWARM\..\..\..\..\..\middleware\third_party\lwip\src\include\"
//        -I "C:\LEO\myGit\MTK
//        IOT\SDK_V4.2.0\project\mt7697_hdk\apps\iot_sdk_demo\EWARM\..\..\..\..\..\middleware\third_party\lwip\ports\include\"
//        -I "C:\LEO\myGit\MTK
//        IOT\SDK_V4.2.0\project\mt7697_hdk\apps\iot_sdk_demo\EWARM\..\..\..\..\..\middleware\third_party\lwip\src\include\lwip\"
//        -I "C:\LEO\myGit\MTK
//        IOT\SDK_V4.2.0\project\mt7697_hdk\apps\iot_sdk_demo\EWARM\..\..\..\..\..\project\common\bsp_ex\inc\"
//        -I "C:\LEO\myGit\MTK
//        IOT\SDK_V4.2.0\project\mt7697_hdk\apps\iot_sdk_demo\EWARM\..\..\..\..\..\middleware\MTK\nvdm\inc\"
//        -I "C:\LEO\myGit\MTK
//        IOT\SDK_V4.2.0\project\mt7697_hdk\apps\iot_sdk_demo\EWARM\..\..\..\..\..\middleware\third_party\ping\inc\"
//        -I "C:\LEO\myGit\MTK
//        IOT\SDK_V4.2.0\project\mt7697_hdk\apps\iot_sdk_demo\EWARM\..\..\..\..\..\middleware\MTK\smtcn\inc\"
//        -I "C:\LEO\myGit\MTK
//        IOT\SDK_V4.2.0\project\mt7697_hdk\apps\iot_sdk_demo\EWARM\..\..\..\..\..\middleware\MTK\iperf\inc\"
//        -I "C:\LEO\myGit\MTK
//        IOT\SDK_V4.2.0\project\mt7697_hdk\apps\iot_sdk_demo\EWARM\..\..\..\..\..\project\mt7697_hdk\apps\iot_sdk_demo\inc\"
//        -I "C:\LEO\myGit\MTK
//        IOT\SDK_V4.2.0\project\mt7697_hdk\apps\iot_sdk_demo\EWARM\..\..\..\..\..\driver\chip\mt7687\inc\"
//        -I "C:\LEO\myGit\MTK
//        IOT\SDK_V4.2.0\project\mt7697_hdk\apps\iot_sdk_demo\EWARM\..\..\..\..\..\driver\board\mt76x7_hdk\util\inc\"
//        -I "C:\LEO\myGit\MTK
//        IOT\SDK_V4.2.0\project\mt7697_hdk\apps\iot_sdk_demo\EWARM\..\..\..\..\..\driver\board\mt76x7_hdk\wifi\inc\"
//        -I "C:\LEO\myGit\MTK
//        IOT\SDK_V4.2.0\project\mt7697_hdk\apps\iot_sdk_demo\EWARM\..\..\..\..\..\middleware\MTK\bluetooth\inc\"
//        -I "C:\LEO\myGit\MTK
//        IOT\SDK_V4.2.0\project\mt7697_hdk\apps\iot_sdk_demo\EWARM\..\..\..\..\..\project\mt7697_hdk\apps\iot_sdk_demo\src\ut_app\"
//        -I "C:\LEO\myGit\MTK
//        IOT\SDK_V4.2.0\project\mt7697_hdk\apps\iot_sdk_demo\EWARM\..\..\..\..\..\driver\board\mt76x7_hdk\ept\inc\"
//        -I "C:\LEO\myGit\MTK
//        IOT\SDK_V4.2.0\project\mt7697_hdk\apps\iot_sdk_demo\EWARM\..\..\..\..\..\middleware\third_party\mbedtls\include\"
//        -I "C:\LEO\myGit\MTK
//        IOT\SDK_V4.2.0\project\mt7697_hdk\apps\iot_sdk_demo\EWARM\..\..\..\..\..\middleware\third_party\mbedtls\configs\"
//        -I "C:\LEO\myGit\MTK
//        IOT\SDK_V4.2.0\project\mt7697_hdk\apps\iot_sdk_demo\EWARM\..\..\..\..\..\driver\board\mt76x7_hdk\external_flash\inc\"
//        -I "C:\LEO\myGit\MTK
//        IOT\SDK_V4.2.0\project\mt7697_hdk\apps\iot_sdk_demo\EWARM\..\..\..\..\..\middleware\third_party\httpclient\inc\"
//        -Om -I "C:\Program Files (x86)\IAR Systems\Embedded Workbench
//        7.5\arm\CMSIS\Include\"
//    Locale       =  Chinese (Simplified)_CHN.936
//    List file    =  
//        C:\LEO\myGit\MTK
//        IOT\SDK_V4.2.0\out_iar\mt7697_hdk\iot_sdk_demo\Debug\List\cli_def.s
//
///////////////////////////////////////////////////////////////////////////////

        RTMODEL "__SystemLibrary", "DLib"
        RTMODEL "__dlib_file_descriptor", "1"
        RTMODEL "__dlib_full_locale_support", "1"
        AAPCS BASE,INTERWORK,VFP
        PRESERVE8
        REQUIRE8

        #define SHT_PROGBITS 0x1

        EXTERN __io_getchar
        EXTERN __io_putchar
        EXTERN cli_cmds_init
        EXTERN cli_init
        EXTERN cli_task
        EXTERN log_control_block_common
        EXTERN xTaskGenericCreate

        PUBLIC cli_def_create
        PUBLIC cli_def_task
        PUBLIC cli_task_create
        
          CFI Names cfiNames0
          CFI StackFrame CFA R13 DATA
          CFI Resource R0:32, R1:32, R2:32, R3:32, R4:32, R5:32, R6:32, R7:32
          CFI Resource R8:32, R9:32, R10:32, R11:32, R12:32, R13:32, R14:32
          CFI Resource D0:64, D1:64, D2:64, D3:64, D4:64, D5:64, D6:64, D7:64
          CFI Resource D8:64, D9:64, D10:64, D11:64, D12:64, D13:64, D14:64
          CFI Resource D15:64
          CFI EndNames cfiNames0
        
          CFI Common cfiCommon0 Using cfiNames0
          CFI CodeAlign 2
          CFI DataAlign 4
          CFI ReturnAddress R14 CODE
          CFI CFA R13+0
          CFI R0 Undefined
          CFI R1 Undefined
          CFI R2 Undefined
          CFI R3 Undefined
          CFI R4 SameValue
          CFI R5 SameValue
          CFI R6 SameValue
          CFI R7 SameValue
          CFI R8 SameValue
          CFI R9 SameValue
          CFI R10 SameValue
          CFI R11 SameValue
          CFI R12 Undefined
          CFI R14 SameValue
          CFI D0 Undefined
          CFI D1 Undefined
          CFI D2 Undefined
          CFI D3 Undefined
          CFI D4 Undefined
          CFI D5 Undefined
          CFI D6 Undefined
          CFI D7 Undefined
          CFI D8 SameValue
          CFI D9 SameValue
          CFI D10 SameValue
          CFI D11 SameValue
          CFI D12 SameValue
          CFI D13 SameValue
          CFI D14 SameValue
          CFI D15 SameValue
          CFI EndCommon cfiCommon0
        
// C:\LEO\myGit\MTK IOT\SDK_V4.2.0\project\mt7697_hdk\apps\iot_sdk_demo\src\cli_def.c
//    1 /* Copyright Statement:
//    2  *
//    3  * (C) 2005-2016  MediaTek Inc. All rights reserved.
//    4  *
//    5  * This software/firmware and related documentation ("MediaTek Software") are
//    6  * protected under relevant copyright laws. The information contained herein
//    7  * is confidential and proprietary to MediaTek Inc. ("MediaTek") and/or its licensors.
//    8  * Without the prior written permission of MediaTek and/or its licensors,
//    9  * any reproduction, modification, use or disclosure of MediaTek Software,
//   10  * and information contained herein, in whole or in part, shall be strictly prohibited.
//   11  * You may only use, reproduce, modify, or distribute (as applicable) MediaTek Software
//   12  * if you have agreed to and been bound by the applicable license agreement with
//   13  * MediaTek ("License Agreement") and been granted explicit permission to do so within
//   14  * the License Agreement ("Permitted User").  If you are not a Permitted User,
//   15  * please cease any access or use of MediaTek Software immediately.
//   16  * BY OPENING THIS FILE, RECEIVER HEREBY UNEQUIVOCALLY ACKNOWLEDGES AND AGREES
//   17  * THAT MEDIATEK SOFTWARE RECEIVED FROM MEDIATEK AND/OR ITS REPRESENTATIVES
//   18  * ARE PROVIDED TO RECEIVER ON AN "AS-IS" BASIS ONLY. MEDIATEK EXPRESSLY DISCLAIMS ANY AND ALL
//   19  * WARRANTIES, EXPRESS OR IMPLIED, INCLUDING BUT NOT LIMITED TO THE IMPLIED WARRANTIES OF
//   20  * MERCHANTABILITY, FITNESS FOR A PARTICULAR PURPOSE OR NONINFRINGEMENT.
//   21  * NEITHER DOES MEDIATEK PROVIDE ANY WARRANTY WHATSOEVER WITH RESPECT TO THE
//   22  * SOFTWARE OF ANY THIRD PARTY WHICH MAY BE USED BY, INCORPORATED IN, OR
//   23  * SUPPLIED WITH MEDIATEK SOFTWARE, AND RECEIVER AGREES TO LOOK ONLY TO SUCH
//   24  * THIRD PARTY FOR ANY WARRANTY CLAIM RELATING THERETO. RECEIVER EXPRESSLY ACKNOWLEDGES
//   25  * THAT IT IS RECEIVER'S SOLE RESPONSIBILITY TO OBTAIN FROM ANY THIRD PARTY ALL PROPER LICENSES
//   26  * CONTAINED IN MEDIATEK SOFTWARE. MEDIATEK SHALL ALSO NOT BE RESPONSIBLE FOR ANY MEDIATEK
//   27  * SOFTWARE RELEASES MADE TO RECEIVER'S SPECIFICATION OR TO CONFORM TO A PARTICULAR
//   28  * STANDARD OR OPEN FORUM. RECEIVER'S SOLE AND EXCLUSIVE REMEDY AND MEDIATEK'S ENTIRE AND
//   29  * CUMULATIVE LIABILITY WITH RESPECT TO MEDIATEK SOFTWARE RELEASED HEREUNDER WILL BE,
//   30  * AT MEDIATEK'S OPTION, TO REVISE OR REPLACE MEDIATEK SOFTWARE AT ISSUE,
//   31  * OR REFUND ANY SOFTWARE LICENSE FEES OR SERVICE CHARGE PAID BY RECEIVER TO
//   32  * MEDIATEK FOR SUCH MEDIATEK SOFTWARE AT ISSUE.
//   33  */
//   34 
//   35 /**
//   36  * This file contains the root of all CLI commands. They are divided into
//   37  * three modes: NORMAL, TEST, EXAMPLE.
//   38  *
//   39  * Normal and test are enabled by default. TEST mode commands can be turned
//   40  * off by setting MTK_CLI_TEST_MODE_ENABLE to 'n' in feature.mk. Example
//   41  * mode CLI commands can be included by setting MTK_CLI_EXAMPLE_MODE_ENABLE
//   42  * to 'y' in feature.mk.
//   43  */
//   44 
//   45 /****************************************************************************
//   46  *
//   47  * Header files.
//   48  *
//   49  ****************************************************************************/
//   50 
//   51 #if defined(MTK_MINICLI_ENABLE)
//   52 
//   53 
//   54 #include <stdio.h>
//   55 #include <stdint.h>
//   56 #include <stdlib.h>
//   57 #include <string.h>
//   58 
//   59 /* Kernel includes. */
//   60 #include <FreeRTOS.h>
//   61 #include <task.h>
//   62 
//   63 #include "cli.h"
//   64 #include "cli_def.h"
//   65 #include "task_def.h"
//   66 
//   67 #include <toi.h>
//   68 #include <type_def.h>
//   69 #include <os.h>
//   70 #include <os_util.h>
//   71 
//   72 #include "io_def.h"
//   73 
//   74 #include "cli_cmds.h"
//   75 
//   76 
//   77 GETCHAR_PROTOTYPE;
//   78 PUTCHAR_PROTOTYPE;
//   79 
//   80 

        SECTION `.data`:DATA:REORDER:NOROOT(2)
        DATA
//   81 static cli_t _cli_cb = {
_cli_cb:
        DC8 1, 0, 0, 0
        DC32 0H
        DC8 0, 0, 0, 0
        DC32 __io_getchar, __io_putchar
        DC8 0, 0, 0, 0, 0, 0, 0, 0, 0, 0, 0, 0, 0, 0, 0, 0
        DC8 0, 0, 0, 0, 0, 0, 0, 0, 0, 0, 0, 0, 0, 0, 0, 0
        DC8 0, 0, 0, 0, 0, 0, 0, 0, 0, 0, 0, 0, 0, 0, 0, 0
        DC8 0, 0, 0, 0, 0, 0, 0, 0, 0, 0, 0, 0, 0, 0, 0, 0
        DC8 0, 0, 0, 0, 0, 0, 0, 0, 0, 0, 0, 0, 0, 0, 0, 0
        DC8 0, 0, 0, 0, 0, 0, 0, 0, 0, 0, 0, 0, 0, 0, 0, 0
        DC8 0, 0, 0, 0, 0, 0, 0, 0, 0, 0, 0, 0
        DC8 0, 0, 0, 0, 0, 0, 0, 0, 0, 0, 0, 0, 0, 0, 0, 0, 0, 0, 0, 0
        DC8 0, 0, 0, 0, 0, 0, 0, 0, 0, 0, 0, 0, 0, 0, 0, 0
        DC8 0, 0, 0, 0, 0, 0, 0, 0, 0, 0, 0, 0, 0, 0, 0, 0
        DC8 0, 0, 0, 0, 0, 0, 0, 0, 0, 0, 0, 0, 0, 0, 0, 0
        DC8 0, 0, 0, 0, 0, 0, 0, 0, 0, 0, 0, 0, 0, 0, 0, 0
        DC8 0, 0, 0, 0, 0, 0, 0, 0, 0, 0, 0, 0, 0, 0, 0, 0
        DC8 0, 0, 0, 0, 0, 0, 0, 0, 0, 0, 0, 0, 0, 0, 0, 0
        DC8 0, 0, 0, 0, 0, 0, 0, 0, 0, 0, 0, 0, 0, 0, 0, 0
        DC8 0, 0, 0, 0, 0, 0, 0, 0, 0, 0, 0, 0, 0, 0, 0, 0
        DC8 0, 0, 0, 0, 0, 0, 0, 0, 0, 0, 0, 0, 0, 0, 0, 0
        DC8 0, 0, 0, 0, 0, 0, 0, 0, 0, 0, 0, 0, 0, 0, 0, 0
        DC8 0, 0, 0, 0, 0, 0, 0, 0, 0, 0, 0, 0, 0, 0, 0, 0
        DC8 0, 0, 0, 0, 0, 0, 0, 0, 0, 0, 0, 0, 0, 0, 0, 0
        DC8 0, 0, 0, 0, 0, 0, 0, 0, 0, 0, 0, 0, 0, 0, 0, 0
        DC8 0, 0, 0, 0, 0, 0, 0, 0, 0, 0, 0, 0, 0, 0, 0, 0
        DC8 0, 0, 0, 0, 0, 0, 0, 0, 0, 0, 0, 0, 0, 0, 0, 0
        DC8 0, 0, 0, 0, 0, 0, 0, 0, 0, 0, 0, 0, 0, 0, 0, 0
        DC8 0, 0, 0, 0, 0, 0, 0, 0, 0, 0, 0, 0, 0, 0, 0, 0
        DC8 0, 0, 0, 0, 0, 0, 0, 0, 0, 0, 0, 0, 0, 0, 0, 0
        DC8 0, 0, 0, 0, 0, 0, 0, 0, 0, 0, 0, 0, 0, 0, 0, 0
        DC8 0, 0, 0, 0, 0, 0, 0, 0, 0, 0, 0, 0, 0, 0, 0, 0
        DC8 0, 0, 0, 0, 0, 0, 0, 0, 0, 0, 0, 0, 0, 0, 0, 0
        DC8 0, 0, 0, 0, 0, 0, 0, 0, 0, 0, 0, 0, 0, 0, 0, 0
        DC8 0, 0, 0, 0, 0, 0, 0, 0, 0, 0, 0, 0, 0, 0, 0, 0
        DC8 0, 0, 0, 0, 0, 0, 0, 0, 0, 0, 0, 0, 0, 0, 0, 0
        DC8 0, 0, 0, 0, 0, 0, 0, 0, 0, 0, 0, 0, 0, 0, 0, 0
        DC8 0, 0, 0, 0, 0, 0, 0, 0, 0, 0, 0, 0, 0, 0, 0, 0
        DC8 0, 0, 0, 0, 0, 0, 0, 0, 0, 0, 0, 0, 0, 0, 0, 0
        DC8 0, 0, 0, 0, 0, 0, 0, 0, 0, 0, 0, 0, 0, 0, 0, 0
        DC8 0, 0, 0, 0, 0, 0, 0, 0, 0, 0, 0, 0, 0, 0, 0, 0
        DC8 0, 0, 0, 0, 0, 0, 0, 0, 0, 0, 0, 0, 0, 0, 0, 0
        DC8 0, 0, 0, 0, 0, 0, 0, 0, 0, 0, 0, 0, 0, 0, 0, 0
        DC8 0, 0, 0, 0, 0, 0, 0, 0, 0, 0, 0, 0, 0, 0, 0, 0
        DC8 0, 0, 0, 0, 0, 0, 0, 0, 0, 0, 0, 0, 0, 0, 0, 0
        DC8 0, 0, 0, 0, 0, 0, 0, 0, 0, 0, 0, 0, 0, 0, 0, 0
        DC8 0, 0, 0, 0, 0, 0, 0, 0, 0, 0, 0, 0, 0, 0, 0, 0
        DC8 0, 0, 0, 0, 0, 0, 0, 0, 0, 0, 0, 0, 0, 0, 0, 0
        DC8 0, 0, 0, 0, 0, 0, 0, 0, 0, 0, 0, 0, 0, 0, 0, 0
        DC8 0, 0, 0, 0, 0, 0, 0, 0, 0, 0, 0, 0, 0, 0, 0, 0
        DC8 0, 0, 0, 0, 0, 0, 0, 0, 0, 0, 0, 0, 0, 0, 0, 0
        DC8 0, 0, 0, 0, 0, 0, 0, 0, 0, 0, 0, 0, 0, 0, 0, 0
        DC8 0, 0, 0, 0, 0, 0, 0, 0, 0, 0, 0, 0, 0, 0, 0, 0
        DC8 0, 0, 0, 0, 0, 0, 0, 0, 0, 0, 0, 0, 0, 0, 0, 0
        DC8 0, 0, 0, 0, 0, 0, 0, 0, 0, 0, 0, 0, 0, 0, 0, 0
        DC8 0, 0, 0, 0, 0, 0, 0, 0, 0, 0, 0, 0, 0, 0, 0, 0
        DC8 0, 0, 0, 0, 0, 0, 0, 0, 0, 0, 0, 0, 0, 0, 0, 0
        DC8 0, 0, 0, 0, 0, 0, 0, 0, 0, 0, 0, 0, 0, 0, 0, 0
        DC8 0, 0, 0, 0, 0, 0, 0, 0, 0, 0, 0, 0, 0, 0, 0, 0
        DC8 0, 0, 0, 0, 0, 0, 0, 0, 0, 0, 0, 0, 0, 0, 0, 0
        DC8 0, 0, 0, 0, 0, 0, 0, 0, 0, 0, 0, 0, 0, 0, 0, 0
        DC8 0, 0, 0, 0, 0, 0, 0, 0, 0, 0, 0, 0, 0, 0, 0, 0
        DC8 0, 0, 0, 0, 0, 0, 0, 0, 0, 0, 0, 0, 0, 0, 0, 0
        DC8 0, 0, 0, 0, 0, 0, 0, 0, 0, 0, 0, 0, 0, 0, 0, 0
        DC8 0, 0, 0, 0, 0, 0, 0, 0, 0, 0, 0, 0, 0, 0, 0, 0
        DC8 0, 0, 0, 0, 0, 0, 0, 0, 0, 0, 0, 0, 0, 0, 0, 0
        DC8 0, 0, 0, 0, 0, 0, 0, 0, 0, 0, 0, 0, 0, 0, 0, 0
        DC8 0, 0, 0, 0, 0, 0, 0, 0, 0, 0, 0, 0, 0, 0, 0, 0
//   82     .state  = 1,
//   83     .echo   = 0,
//   84     .get    = __io_getchar,
//   85     .put    = __io_putchar,
//   86 };
//   87 
//   88 
//   89 /****************************************************************************
//   90  * Private Functions
//   91  ****************************************************************************/
//   92 
//   93 
//   94 #if !defined(CLI_DISABLE_LINE_EDIT) && !defined(CLI_DISABLE_HISTORY)
//   95 #define HISTORY_LINE_MAX    (128)
//   96 #define HISTORY_LINES       (5)
//   97 #endif /* !CLI_DISABLE_LINE_EDIT && !CLI_DISABLE_HISTORY */
//   98 
//   99 
//  100 #if !defined(CLI_DISABLE_LINE_EDIT) && !defined(CLI_DISABLE_HISTORY)
//  101 
//  102 static char s_history_lines[ HISTORY_LINES ][ HISTORY_LINE_MAX ];
//  103 static char *s_history_ptrs[ HISTORY_LINES ];
//  104 
//  105 static char s_history_input[ HISTORY_LINE_MAX ];
//  106 static char s_history_parse_token[ HISTORY_LINE_MAX ];
//  107 
//  108 #endif /* !CLI_DISABLE_LINE_EDIT && !CLI_DISABLE_HISTORY */
//  109 
//  110 
//  111 /****************************************************************************
//  112  * Public Functions
//  113  ****************************************************************************/
//  114 
//  115 

        SECTION `.text`:CODE:NOROOT(1)
          CFI Block cfiBlock0 Using cfiCommon0
          CFI Function cli_def_create
        THUMB
//  116 void cli_def_create(void)
//  117 {
cli_def_create:
        PUSH     {R4,LR}
          CFI R14 Frame(CFA, -4)
          CFI R4 Frame(CFA, -8)
          CFI CFA R13+8
//  118 #if !defined(CLI_DISABLE_LINE_EDIT) && !defined(CLI_DISABLE_HISTORY)
//  119     cli_history_t *hist = &_cli_cb.history;
//  120     int i;
//  121 
//  122     for (i = 0; i < HISTORY_LINES; i++) {
        MOVS     R0,#+0
        LDR.N    R4,??DataTable4_1
        B.N      ??cli_def_create_0
//  123         s_history_ptrs[i] = s_history_lines[i];
??cli_def_create_1:
        ADD      R1,R4,R0, LSL #+7
        ADDS     R1,R1,#+148
        ADD      R2,R4,R0, LSL #+2
        STR      R1,[R2, #+128]
//  124     }
        ADDS     R0,R0,#+1
??cli_def_create_0:
        CMP      R0,#+5
        BLT.N    ??cli_def_create_1
//  125     hist->history           = &s_history_ptrs[0];
        ADD      R0,R4,#+104
        ADD      R1,R4,#+128
        STR      R1,[R0, #+0]
//  126 
//  127     hist->input             = s_history_input;
        MOV      R1,#+788
        ADD      R1,R4,R1
        STR      R1,[R0, #+4]
//  128     hist->parse_token       = s_history_parse_token;
        MOV      R1,#+916
        ADD      R1,R4,R1
        STR      R1,[R0, #+8]
//  129     hist->history_max       = HISTORY_LINES;
        MOVS     R1,#+5
        STRH     R1,[R0, #+12]
//  130     hist->line_max          = HISTORY_LINE_MAX;
        MOVS     R1,#+128
        STRH     R1,[R0, #+14]
//  131     hist->index             = 0;
        MOVS     R1,#+0
        STR      R1,[R0, #+16]
//  132     hist->position          = 0;
//  133     hist->full              = 0;
        STRB     R1,[R0, #+20]
//  134 #endif /* !CLI_DISABLE_LINE_EDIT && !CLI_DISABLE_HISTORY */
//  135 
//  136     cli_cmds_init(&_cli_cb);
        MOV      R0,R4
          CFI FunCall cli_cmds_init
        BL       cli_cmds_init
//  137     cli_init(&_cli_cb);
        MOV      R0,R4
        POP      {R4,LR}
          CFI R4 SameValue
          CFI R14 SameValue
          CFI CFA R13+0
          CFI FunCall cli_init
        B.W      cli_init
//  138 }
          CFI EndBlock cfiBlock0
//  139 
//  140 

        SECTION `.text`:CODE:NOROOT(1)
          CFI Block cfiBlock1 Using cfiCommon0
          CFI Function cli_def_task
        THUMB
//  141 void cli_def_task(void *param)
//  142 {
cli_def_task:
        PUSH     {R7,LR}
          CFI R14 Frame(CFA, -4)
          CFI CFA R13+8
//  143     while (1) {
//  144         cli_task();
??cli_def_task_0:
          CFI FunCall cli_task
        BL       cli_task
        B.N      ??cli_def_task_0
//  145     }
//  146 }
          CFI EndBlock cfiBlock1
//  147 
//  148 

        SECTION `.text`:CODE:NOROOT(1)
          CFI Block cfiBlock2 Using cfiCommon0
          CFI Function cli_task_create
        THUMB
//  149 int cli_task_create(void)
//  150 {
cli_task_create:
        PUSH     {R0-R4,LR}
          CFI R14 Frame(CFA, -4)
          CFI R4 Frame(CFA, -8)
          CFI CFA R13+24
//  151     if (xTaskCreate(cli_def_task,
//  152                     MINICLI_TASK_NAME,
//  153                     MINICLI_TASK_STACKSIZE / sizeof(portSTACK_TYPE),
//  154                     NULL,
//  155                     MINICLI_TASK_PRIO,
//  156                     NULL) != pdPASS)
        MOVS     R0,#+0
        STR      R0,[SP, #+12]
        STR      R0,[SP, #+8]
        STR      R0,[SP, #+4]
        MOVS     R0,#+7
        STR      R0,[SP, #+0]
        MOVS     R3,#+0
        MOV      R2,#+1024
        ADR.N    R1,??DataTable4  ;; "cli"
        LDR.N    R0,??DataTable4_2
          CFI FunCall xTaskGenericCreate
        BL       xTaskGenericCreate
        CMP      R0,#+1
        BEQ.N    ??cli_task_create_0
//  157     {
//  158         LOG_E(common, "xTaskCreate fail");
        LDR.N    R0,??DataTable4_3
        ADR.W    R1,?_1
        STR      R1,[SP, #+0]
        MOVS     R3,#+2
        MOVS     R2,#+158
        ADR.W    R1,`cli_task_create::__FUNCTION__`
        LDR      R4,[R0, #+8]
          CFI FunCall
        BLX      R4
//  159         return -1;
        MOV      R0,#-1
        B.N      ??cli_task_create_1
//  160     }
//  161 
//  162     return 0;
??cli_task_create_0:
        MOVS     R0,#+0
??cli_task_create_1:
        ADD      SP,SP,#+16
          CFI CFA R13+8
        POP      {R4,PC}          ;; return
//  163 }
          CFI EndBlock cfiBlock2

        SECTION `.text`:CODE:NOROOT(2)
        SECTION_TYPE SHT_PROGBITS, 0
        DATA
??DataTable4:
        DC8      "cli"

        SECTION `.text`:CODE:NOROOT(2)
        SECTION_TYPE SHT_PROGBITS, 0
        DATA
??DataTable4_1:
        DC32     _cli_cb

        SECTION `.text`:CODE:NOROOT(2)
        SECTION_TYPE SHT_PROGBITS, 0
        DATA
??DataTable4_2:
        DC32     cli_def_task

        SECTION `.text`:CODE:NOROOT(2)
        SECTION_TYPE SHT_PROGBITS, 0
        DATA
??DataTable4_3:
        DC32     log_control_block_common

        SECTION `.text`:CODE:NOROOT(2)
        SECTION_TYPE SHT_PROGBITS, 0
        DATA
// __absolute char const cli_task_create::__FUNCTION__[16]
`cli_task_create::__FUNCTION__`:
        DC8 "cli_task_create"

        SECTION `.text`:CODE:NOROOT(2)
        SECTION_TYPE SHT_PROGBITS, 0
        DATA
?_1:
        DC8 "xTaskCreate fail"
        DC8 0, 0, 0

        SECTION `.iar_vfe_header`:DATA:NOALLOC:NOROOT(2)
        SECTION_TYPE SHT_PROGBITS, 0
        DATA
        DC32 0

        SECTION __DLIB_PERTHREAD:DATA:REORDER:NOROOT(0)
        SECTION_TYPE SHT_PROGBITS, 0

        SECTION __DLIB_PERTHREAD_init:DATA:REORDER:NOROOT(0)
        SECTION_TYPE SHT_PROGBITS, 0

        SECTION `.rodata`:CONST:NOROOT(2)
        DATA
?_0:
        DC8 "cli"

        END
//  164 
//  165 
//  166 #endif /* #if defined(MTK_MINICLI_ENABLE) */
//  167 
// 
// 1 044 bytes in section .data
//     4 bytes in section .rodata
//   208 bytes in section .text
// 
//   208 bytes of CODE  memory
//     4 bytes of CONST memory
// 1 044 bytes of DATA  memory
//
//Errors: none
//Warnings: none
