///////////////////////////////////////////////////////////////////////////////
//
// IAR ANSI C/C++ Compiler V7.80.1.11864/W32 for ARM      25/Jan/2017  17:35:07
// Copyright 1999-2016 IAR Systems AB.
//
//    Cpu mode     =  thumb
//    Endian       =  little
//    Source file  =  
//        C:\LEO\myGit\MTK
//        IOT\SDK_V4.2.0\driver\chip\mt7687\src\common\hal_sys.c
//    Command line =  
//        "C:\LEO\myGit\MTK
//        IOT\SDK_V4.2.0\driver\chip\mt7687\src\common\hal_sys.c" -D
//        MTK_LOAD_MAC_ADDR_FROM_EFUSE -D MTK_PING_OUT_ENABLE -D
//        MTK_WIFI_PROFILE_ENABLE -D PCFG_OS=2 -D _REENT_SMALL -D
//        MTK_MINISUPP_ENABLE -D MTK_MINICLI_ENABLE -D MTK_BSPEXT_ENABLE -D
//        MTK_HAL_LOWPOWER_ENABLE -D MTK_LWIP_ENABLE -D
//        MTK_HTTPCLIENT_SSL_ENABLE -D MTK_IPERF_ENABLE -D PRODUCT_VERSION=7697
//        -D MTK_WIFI_TGN_VERIFY_ENABLE -D MTK_SMTCN_ENABLE -D
//        MTK_CLI_TEST_MODE_ENABLE -D MTK_WIFI_REPEATER_ENABLE -D
//        CONFIG_REPEATER -D MTK_DEBUG_LEVEL_INFO -D MTK_DEBUG_LEVEL_WARNING -D
//        MTK_DEBUG_LEVEL_ERROR -D configOVERRIDE_DEFAULT_TICK_CONFIGURATION -D
//        CFG_SUPPORT_SMNT_PROTO=2 -D BT_DEBUG -D MTK_BLE_CLI_ENABLE -D
//        MTK_BLE_BQB_CLI_ENABLE -D MTK_HCI_CONSOLE_MIX_ENABLE -D
//        MTK_BLE_BQB_TEST_ENABLE -D MTK_BLE_SMTCN_ENABLE -D SUPPORT_MBEDTLS -D
//        MBEDTLS_CONFIG_FILE=<config-mtk-basic.h> -D MTK_NVDM_ENABLE -D
//        MTK_WIFI_PRIVILEGE_ENABLE -D MTK_MCS_ENABLE -D MTK_BLE_GPIO_SERVICE
//        -D __BT_DEBUG__ -lcN "C:\LEO\myGit\MTK
//        IOT\SDK_V4.2.0\out_iar\mt7697_hdk\iot_sdk_demo\Debug\List" -lA
//        "C:\LEO\myGit\MTK
//        IOT\SDK_V4.2.0\out_iar\mt7697_hdk\iot_sdk_demo\Debug\List"
//        --diag_suppress Pa050,Ta022,Ta023 --diag_error Pe606 -o
//        "C:\LEO\myGit\MTK
//        IOT\SDK_V4.2.0\out_iar\mt7697_hdk\iot_sdk_demo\Debug\Obj" --no_unroll
//        --no_inline --no_tbaa --no_scheduling --debug --endian=little
//        --cpu=Cortex-M4 -e --fpu=VFPv4_sp --dlib_config "C:\Program Files
//        (x86)\IAR Systems\Embedded Workbench
//        7.5\arm\INC\c\DLib_Config_Full.h" -I "C:\LEO\myGit\MTK
//        IOT\SDK_V4.2.0\project\mt7697_hdk\apps\iot_sdk_demo\EWARM\..\inc\" -I
//        "C:\LEO\myGit\MTK
//        IOT\SDK_V4.2.0\project\mt7697_hdk\apps\iot_sdk_demo\EWARM\..\..\..\..\..\kernel\service\inc\"
//        -I "C:\LEO\myGit\MTK
//        IOT\SDK_V4.2.0\project\mt7697_hdk\apps\iot_sdk_demo\EWARM\..\..\..\..\..\kernel\rtos\FreeRTOS\Source\include\"
//        -I "C:\LEO\myGit\MTK
//        IOT\SDK_V4.2.0\project\mt7697_hdk\apps\iot_sdk_demo\EWARM\..\..\..\..\..\kernel\rtos\FreeRTOS\Source\portable\IAR\ARM_CM4F\"
//        -I "C:\LEO\myGit\MTK
//        IOT\SDK_V4.2.0\project\mt7697_hdk\apps\iot_sdk_demo\EWARM\..\..\..\..\..\kernel\rtos\FreeRTOS\inc\"
//        -I "C:\LEO\myGit\MTK
//        IOT\SDK_V4.2.0\project\mt7697_hdk\apps\iot_sdk_demo\EWARM\..\..\..\..\..\driver\CMSIS\Device\MTK\mt7687\Include\"
//        -I "C:\LEO\myGit\MTK
//        IOT\SDK_V4.2.0\project\mt7697_hdk\apps\iot_sdk_demo\EWARM\..\..\..\..\..\driver\CMSIS\Include\"
//        -I "C:\LEO\myGit\MTK
//        IOT\SDK_V4.2.0\project\mt7697_hdk\apps\iot_sdk_demo\EWARM\..\..\..\..\..\driver\chip\inc\"
//        -I "C:\LEO\myGit\MTK
//        IOT\SDK_V4.2.0\project\mt7697_hdk\apps\iot_sdk_demo\EWARM\..\..\..\..\..\driver\chip\mt7687\inc\"
//        -I "C:\LEO\myGit\MTK
//        IOT\SDK_V4.2.0\project\mt7697_hdk\apps\iot_sdk_demo\EWARM\..\..\..\..\..\driver\board\mt76x7_hdk\wifi\inc\"
//        -I "C:\LEO\myGit\MTK
//        IOT\SDK_V4.2.0\project\mt7697_hdk\apps\iot_sdk_demo\EWARM\..\..\..\..\..\middleware\third_party\dhcpd\inc\"
//        -I "C:\LEO\myGit\MTK
//        IOT\SDK_V4.2.0\project\mt7697_hdk\apps\iot_sdk_demo\EWARM\..\..\..\..\..\middleware\MTK\minicli\inc\"
//        -I "C:\LEO\myGit\MTK
//        IOT\SDK_V4.2.0\project\mt7697_hdk\apps\iot_sdk_demo\EWARM\..\..\..\..\..\middleware\MTK\minisupp\inc\"
//        -I "C:\LEO\myGit\MTK
//        IOT\SDK_V4.2.0\project\mt7697_hdk\apps\iot_sdk_demo\EWARM\..\..\..\..\..\driver\chip\inc\"
//        -I "C:\LEO\myGit\MTK
//        IOT\SDK_V4.2.0\project\mt7697_hdk\apps\iot_sdk_demo\EWARM\..\..\..\..\..\driver\chip\mt7687\src\common\include\"
//        -I "C:\LEO\myGit\MTK
//        IOT\SDK_V4.2.0\project\mt7697_hdk\apps\iot_sdk_demo\EWARM\..\..\..\..\..\middleware\third_party\lwip\src\include\"
//        -I "C:\LEO\myGit\MTK
//        IOT\SDK_V4.2.0\project\mt7697_hdk\apps\iot_sdk_demo\EWARM\..\..\..\..\..\middleware\third_party\lwip\ports\include\"
//        -I "C:\LEO\myGit\MTK
//        IOT\SDK_V4.2.0\project\mt7697_hdk\apps\iot_sdk_demo\EWARM\..\..\..\..\..\middleware\third_party\lwip\src\include\lwip\"
//        -I "C:\LEO\myGit\MTK
//        IOT\SDK_V4.2.0\project\mt7697_hdk\apps\iot_sdk_demo\EWARM\..\..\..\..\..\project\common\bsp_ex\inc\"
//        -I "C:\LEO\myGit\MTK
//        IOT\SDK_V4.2.0\project\mt7697_hdk\apps\iot_sdk_demo\EWARM\..\..\..\..\..\middleware\MTK\nvdm\inc\"
//        -I "C:\LEO\myGit\MTK
//        IOT\SDK_V4.2.0\project\mt7697_hdk\apps\iot_sdk_demo\EWARM\..\..\..\..\..\middleware\third_party\ping\inc\"
//        -I "C:\LEO\myGit\MTK
//        IOT\SDK_V4.2.0\project\mt7697_hdk\apps\iot_sdk_demo\EWARM\..\..\..\..\..\middleware\MTK\smtcn\inc\"
//        -I "C:\LEO\myGit\MTK
//        IOT\SDK_V4.2.0\project\mt7697_hdk\apps\iot_sdk_demo\EWARM\..\..\..\..\..\middleware\MTK\iperf\inc\"
//        -I "C:\LEO\myGit\MTK
//        IOT\SDK_V4.2.0\project\mt7697_hdk\apps\iot_sdk_demo\EWARM\..\..\..\..\..\project\mt7697_hdk\apps\iot_sdk_demo\inc\"
//        -I "C:\LEO\myGit\MTK
//        IOT\SDK_V4.2.0\project\mt7697_hdk\apps\iot_sdk_demo\EWARM\..\..\..\..\..\driver\chip\mt7687\inc\"
//        -I "C:\LEO\myGit\MTK
//        IOT\SDK_V4.2.0\project\mt7697_hdk\apps\iot_sdk_demo\EWARM\..\..\..\..\..\driver\board\mt76x7_hdk\util\inc\"
//        -I "C:\LEO\myGit\MTK
//        IOT\SDK_V4.2.0\project\mt7697_hdk\apps\iot_sdk_demo\EWARM\..\..\..\..\..\driver\board\mt76x7_hdk\wifi\inc\"
//        -I "C:\LEO\myGit\MTK
//        IOT\SDK_V4.2.0\project\mt7697_hdk\apps\iot_sdk_demo\EWARM\..\..\..\..\..\middleware\MTK\bluetooth\inc\"
//        -I "C:\LEO\myGit\MTK
//        IOT\SDK_V4.2.0\project\mt7697_hdk\apps\iot_sdk_demo\EWARM\..\..\..\..\..\project\mt7697_hdk\apps\iot_sdk_demo\src\ut_app\"
//        -I "C:\LEO\myGit\MTK
//        IOT\SDK_V4.2.0\project\mt7697_hdk\apps\iot_sdk_demo\EWARM\..\..\..\..\..\driver\board\mt76x7_hdk\ept\inc\"
//        -I "C:\LEO\myGit\MTK
//        IOT\SDK_V4.2.0\project\mt7697_hdk\apps\iot_sdk_demo\EWARM\..\..\..\..\..\middleware\third_party\mbedtls\include\"
//        -I "C:\LEO\myGit\MTK
//        IOT\SDK_V4.2.0\project\mt7697_hdk\apps\iot_sdk_demo\EWARM\..\..\..\..\..\middleware\third_party\mbedtls\configs\"
//        -I "C:\LEO\myGit\MTK
//        IOT\SDK_V4.2.0\project\mt7697_hdk\apps\iot_sdk_demo\EWARM\..\..\..\..\..\driver\board\mt76x7_hdk\external_flash\inc\"
//        -I "C:\LEO\myGit\MTK
//        IOT\SDK_V4.2.0\project\mt7697_hdk\apps\iot_sdk_demo\EWARM\..\..\..\..\..\middleware\third_party\httpclient\inc\"
//        -Om -I "C:\Program Files (x86)\IAR Systems\Embedded Workbench
//        7.5\arm\CMSIS\Include\"
//    Locale       =  Chinese (Simplified)_CHN.936
//    List file    =  
//        C:\LEO\myGit\MTK
//        IOT\SDK_V4.2.0\out_iar\mt7697_hdk\iot_sdk_demo\Debug\List\hal_sys.s
//
///////////////////////////////////////////////////////////////////////////////

        RTMODEL "__SystemLibrary", "DLib"
        RTMODEL "__dlib_full_locale_support", "1"
        AAPCS BASE,INTERWORK,VFP
        PRESERVE8
        REQUIRE8

        #define SHT_PROGBITS 0x1

        EXTERN halWDTConfig
        EXTERN halWDTSoftwareReset

        PUBLIC hal_sys_reboot
        PUBLIC hal_sys_reboot_register_callback
        
          CFI Names cfiNames0
          CFI StackFrame CFA R13 DATA
          CFI Resource R0:32, R1:32, R2:32, R3:32, R4:32, R5:32, R6:32, R7:32
          CFI Resource R8:32, R9:32, R10:32, R11:32, R12:32, R13:32, R14:32
          CFI Resource D0:64, D1:64, D2:64, D3:64, D4:64, D5:64, D6:64, D7:64
          CFI Resource D8:64, D9:64, D10:64, D11:64, D12:64, D13:64, D14:64
          CFI Resource D15:64
          CFI EndNames cfiNames0
        
          CFI Common cfiCommon0 Using cfiNames0
          CFI CodeAlign 2
          CFI DataAlign 4
          CFI ReturnAddress R14 CODE
          CFI CFA R13+0
          CFI R0 Undefined
          CFI R1 Undefined
          CFI R2 Undefined
          CFI R3 Undefined
          CFI R4 SameValue
          CFI R5 SameValue
          CFI R6 SameValue
          CFI R7 SameValue
          CFI R8 SameValue
          CFI R9 SameValue
          CFI R10 SameValue
          CFI R11 SameValue
          CFI R12 Undefined
          CFI R14 SameValue
          CFI D0 Undefined
          CFI D1 Undefined
          CFI D2 Undefined
          CFI D3 Undefined
          CFI D4 Undefined
          CFI D5 Undefined
          CFI D6 Undefined
          CFI D7 Undefined
          CFI D8 SameValue
          CFI D9 SameValue
          CFI D10 SameValue
          CFI D11 SameValue
          CFI D12 SameValue
          CFI D13 SameValue
          CFI D14 SameValue
          CFI D15 SameValue
          CFI EndCommon cfiCommon0
        
// C:\LEO\myGit\MTK IOT\SDK_V4.2.0\driver\chip\mt7687\src\common\hal_sys.c
//    1 /* Copyright Statement:
//    2  *
//    3  * (C) 2005-2016  MediaTek Inc. All rights reserved.
//    4  *
//    5  * This software/firmware and related documentation ("MediaTek Software") are
//    6  * protected under relevant copyright laws. The information contained herein
//    7  * is confidential and proprietary to MediaTek Inc. ("MediaTek") and/or its licensors.
//    8  * Without the prior written permission of MediaTek and/or its licensors,
//    9  * any reproduction, modification, use or disclosure of MediaTek Software,
//   10  * and information contained herein, in whole or in part, shall be strictly prohibited.
//   11  * You may only use, reproduce, modify, or distribute (as applicable) MediaTek Software
//   12  * if you have agreed to and been bound by the applicable license agreement with
//   13  * MediaTek ("License Agreement") and been granted explicit permission to do so within
//   14  * the License Agreement ("Permitted User").  If you are not a Permitted User,
//   15  * please cease any access or use of MediaTek Software immediately.
//   16  * BY OPENING THIS FILE, RECEIVER HEREBY UNEQUIVOCALLY ACKNOWLEDGES AND AGREES
//   17  * THAT MEDIATEK SOFTWARE RECEIVED FROM MEDIATEK AND/OR ITS REPRESENTATIVES
//   18  * ARE PROVIDED TO RECEIVER ON AN "AS-IS" BASIS ONLY. MEDIATEK EXPRESSLY DISCLAIMS ANY AND ALL
//   19  * WARRANTIES, EXPRESS OR IMPLIED, INCLUDING BUT NOT LIMITED TO THE IMPLIED WARRANTIES OF
//   20  * MERCHANTABILITY, FITNESS FOR A PARTICULAR PURPOSE OR NONINFRINGEMENT.
//   21  * NEITHER DOES MEDIATEK PROVIDE ANY WARRANTY WHATSOEVER WITH RESPECT TO THE
//   22  * SOFTWARE OF ANY THIRD PARTY WHICH MAY BE USED BY, INCORPORATED IN, OR
//   23  * SUPPLIED WITH MEDIATEK SOFTWARE, AND RECEIVER AGREES TO LOOK ONLY TO SUCH
//   24  * THIRD PARTY FOR ANY WARRANTY CLAIM RELATING THERETO. RECEIVER EXPRESSLY ACKNOWLEDGES
//   25  * THAT IT IS RECEIVER'S SOLE RESPONSIBILITY TO OBTAIN FROM ANY THIRD PARTY ALL PROPER LICENSES
//   26  * CONTAINED IN MEDIATEK SOFTWARE. MEDIATEK SHALL ALSO NOT BE RESPONSIBLE FOR ANY MEDIATEK
//   27  * SOFTWARE RELEASES MADE TO RECEIVER'S SPECIFICATION OR TO CONFORM TO A PARTICULAR
//   28  * STANDARD OR OPEN FORUM. RECEIVER'S SOLE AND EXCLUSIVE REMEDY AND MEDIATEK'S ENTIRE AND
//   29  * CUMULATIVE LIABILITY WITH RESPECT TO MEDIATEK SOFTWARE RELEASED HEREUNDER WILL BE,
//   30  * AT MEDIATEK'S OPTION, TO REVISE OR REPLACE MEDIATEK SOFTWARE AT ISSUE,
//   31  * OR REFUND ANY SOFTWARE LICENSE FEES OR SERVICE CHARGE PAID BY RECEIVER TO
//   32  * MEDIATEK FOR SUCH MEDIATEK SOFTWARE AT ISSUE.
//   33  */
//   34 
//   35 #include <stdlib.h>
//   36 #include "hal_sys.h"
//   37 #include "low_hal_wdt.h"
//   38 #include "mt7687_cm4_hw_memmap.h"
//   39 #include "type_def.h"
//   40 

        SECTION `.bss`:DATA:REORDER:NOROOT(2)
        DATA
//   41 static hal_sys_reboot_callback_t s_callback = NULL;
s_callback:
        DS8 4
//   42 
//   43 //P_IOT_CM4_RGU_MEM_CTRL_TypeDef pCM4RguMemCtrlTypeDef = (P_IOT_CM4_RGU_MEM_CTRL_TypeDef)(CM4_TOPRGU_BASE + IOT_CM4_RGU_MEM_CTRL_OFFSET);
//   44 

        SECTION `.text`:CODE:NOROOT(1)
          CFI Block cfiBlock0 Using cfiCommon0
          CFI Function hal_sys_reboot_register_callback
          CFI NoCalls
        THUMB
//   45 hal_sys_reboot_callback_t hal_sys_reboot_register_callback(hal_sys_reboot_callback_t callback)
//   46 {
//   47     hal_sys_reboot_callback_t old_callback = s_callback;
hal_sys_reboot_register_callback:
        LDR.N    R2,??DataTable1
        LDR      R1,[R2, #+0]
//   48     s_callback = callback;
        STR      R0,[R2, #+0]
//   49     return old_callback;
        MOV      R0,R1
        BX       LR               ;; return
//   50 }
          CFI EndBlock cfiBlock0
//   51 
//   52 

        SECTION `.text`:CODE:NOROOT(1)
          CFI Block cfiBlock1 Using cfiCommon0
          CFI Function hal_sys_reboot
        THUMB
//   53 hal_sys_status_t hal_sys_reboot(uint32_t magic, uint32_t command)
//   54 {
hal_sys_reboot:
        PUSH     {R7,LR}
          CFI R14 Frame(CFA, -4)
          CFI CFA R13+8
//   55     if (magic != HAL_SYS_REBOOT_MAGIC) {
        LDR.N    R2,??DataTable1_1  ;; 0x20160626
        CMP      R0,R2
        BEQ.N    ??hal_sys_reboot_0
//   56         return HAL_SYS_INVALID_MAGIC;
        MOVS     R0,#+2
        POP      {R1,PC}
//   57     }
//   58 
//   59     if (command == WHOLE_SYSTEM_REBOOT_COMMAND) {
??hal_sys_reboot_0:
        CMP      R1,#+0
        BNE.N    ??hal_sys_reboot_1
//   60         hal_sys_reboot_callback_t callback = s_callback;
        LDR.N    R0,??DataTable1
        LDR      R1,[R0, #+0]
//   61         if (callback != NULL) {
        MOVS     R0,R1
        BEQ.N    ??hal_sys_reboot_2
//   62             callback(command);
        MOVS     R0,#+0
          CFI FunCall
        BLX      R1
//   63         }
//   64 
//   65         /*call hardware reboot here!!! WDT HW timer trigger whole chip reset*/
//   66         //CR 0x8300917C[16] = 1 : CM4 WDT whole chip mode, CM4 WDT reset whole chip included N9 domain
//   67         //DRV_Reg32(pCM4RguMemCtrlTypeDef -> CM4_FPGA_RGU_DUMMY_CR) |=  BIT(16);
//   68 
//   69         halWDTConfig(0, 0, 0, 1); //CM4_WDT_RESET_MODE
??hal_sys_reboot_2:
        MOVS     R3,#+1
        MOVS     R2,#+0
        MOV      R1,R2
        MOV      R0,R1
          CFI FunCall halWDTConfig
        BL       halWDTConfig
//   70 
//   71         //halWDTSetTimeout(1);
//   72         // Kick WDT to count down
//   73         //halWDTEnable(1);
//   74         halWDTSoftwareReset(); //trigger WDT immediatly
          CFI FunCall halWDTSoftwareReset
        BL       halWDTSoftwareReset
//   75 
//   76         while (1)
??hal_sys_reboot_3:
        B.N      ??hal_sys_reboot_3
//   77             ;
//   78     } else if (command == 0x12345678) {
//   79 #if 0
//   80         // this is an example of rebooting some subsystem, but not implmented.
//   81         return HAL_SYS_INVALID_COMMAND;
//   82 #endif
//   83     }
//   84 
//   85     return HAL_SYS_OK;
??hal_sys_reboot_1:
        MOVS     R0,#+0
        POP      {R1,PC}          ;; return
//   86 }
          CFI EndBlock cfiBlock1

        SECTION `.text`:CODE:NOROOT(2)
        SECTION_TYPE SHT_PROGBITS, 0
        DATA
??DataTable1:
        DC32     s_callback

        SECTION `.text`:CODE:NOROOT(2)
        SECTION_TYPE SHT_PROGBITS, 0
        DATA
??DataTable1_1:
        DC32     0x20160626

        SECTION `.iar_vfe_header`:DATA:NOALLOC:NOROOT(2)
        SECTION_TYPE SHT_PROGBITS, 0
        DATA
        DC32 0

        SECTION __DLIB_PERTHREAD:DATA:REORDER:NOROOT(0)
        SECTION_TYPE SHT_PROGBITS, 0

        SECTION __DLIB_PERTHREAD_init:DATA:REORDER:NOROOT(0)
        SECTION_TYPE SHT_PROGBITS, 0

        END
//   87 
// 
//  4 bytes in section .bss
// 68 bytes in section .text
// 
// 68 bytes of CODE memory
//  4 bytes of DATA memory
//
//Errors: none
//Warnings: none
