###############################################################################
#
# IAR ELF Linker V7.80.1.11864/W32 for ARM                25/Jan/2017  17:35:48
# Copyright 2007-2016 IAR Systems AB.
#
#    Output file  =  
#        C:\LEO\myGit\MTK
#        IOT\SDK_V4.2.0\out_iar\mt7697_hdk\iot_sdk_demo\Debug\Exe\iot_sdk_demo.out
#    Map file     =  
#        C:\LEO\myGit\MTK
#        IOT\SDK_V4.2.0\out_iar\mt7697_hdk\iot_sdk_demo\Debug\List\iot_sdk_demo.map
#    Command line =  
#        "C:\LEO\myGit\MTK
#        IOT\SDK_V4.2.0\out_iar\mt7697_hdk\iot_sdk_demo\Debug\Obj\aes.o"
#        "C:\LEO\myGit\MTK
#        IOT\SDK_V4.2.0\out_iar\mt7697_hdk\iot_sdk_demo\Debug\Obj\aesni.o"
#        "C:\LEO\myGit\MTK
#        IOT\SDK_V4.2.0\out_iar\mt7697_hdk\iot_sdk_demo\Debug\Obj\api_lib.o"
#        "C:\LEO\myGit\MTK
#        IOT\SDK_V4.2.0\out_iar\mt7697_hdk\iot_sdk_demo\Debug\Obj\api_msg.o"
#        "C:\LEO\myGit\MTK
#        IOT\SDK_V4.2.0\out_iar\mt7697_hdk\iot_sdk_demo\Debug\Obj\arc4.o"
#        "C:\LEO\myGit\MTK
#        IOT\SDK_V4.2.0\out_iar\mt7697_hdk\iot_sdk_demo\Debug\Obj\asn1_dec.o"
#        "C:\LEO\myGit\MTK
#        IOT\SDK_V4.2.0\out_iar\mt7697_hdk\iot_sdk_demo\Debug\Obj\asn1_enc.o"
#        "C:\LEO\myGit\MTK
#        IOT\SDK_V4.2.0\out_iar\mt7697_hdk\iot_sdk_demo\Debug\Obj\asn1parse.o"
#        "C:\LEO\myGit\MTK
#        IOT\SDK_V4.2.0\out_iar\mt7697_hdk\iot_sdk_demo\Debug\Obj\asn1write.o"
#        "C:\LEO\myGit\MTK
#        IOT\SDK_V4.2.0\out_iar\mt7697_hdk\iot_sdk_demo\Debug\Obj\auth.o"
#        "C:\LEO\myGit\MTK
#        IOT\SDK_V4.2.0\out_iar\mt7697_hdk\iot_sdk_demo\Debug\Obj\autoip.o"
#        "C:\LEO\myGit\MTK
#        IOT\SDK_V4.2.0\out_iar\mt7697_hdk\iot_sdk_demo\Debug\Obj\base64.o"
#        "C:\LEO\myGit\MTK
#        IOT\SDK_V4.2.0\out_iar\mt7697_hdk\iot_sdk_demo\Debug\Obj\bignum.o"
#        "C:\LEO\myGit\MTK
#        IOT\SDK_V4.2.0\out_iar\mt7697_hdk\iot_sdk_demo\Debug\Obj\ble_gpio_client.o"
#        "C:\LEO\myGit\MTK
#        IOT\SDK_V4.2.0\out_iar\mt7697_hdk\iot_sdk_demo\Debug\Obj\ble_gpio_service.o"
#        "C:\LEO\myGit\MTK
#        IOT\SDK_V4.2.0\out_iar\mt7697_hdk\iot_sdk_demo\Debug\Obj\ble_smtcn.o"
#        "C:\LEO\myGit\MTK
#        IOT\SDK_V4.2.0\out_iar\mt7697_hdk\iot_sdk_demo\Debug\Obj\blowfish.o"
#        "C:\LEO\myGit\MTK
#        IOT\SDK_V4.2.0\out_iar\mt7697_hdk\iot_sdk_demo\Debug\Obj\board_cli.o"
#        "C:\LEO\myGit\MTK
#        IOT\SDK_V4.2.0\out_iar\mt7697_hdk\iot_sdk_demo\Debug\Obj\bsp_flash_config.o"
#        "C:\LEO\myGit\MTK
#        IOT\SDK_V4.2.0\out_iar\mt7697_hdk\iot_sdk_demo\Debug\Obj\bsp_gpio_ept_config.o"
#        "C:\LEO\myGit\MTK
#        IOT\SDK_V4.2.0\out_iar\mt7697_hdk\iot_sdk_demo\Debug\Obj\bt_cli.o"
#        "C:\LEO\myGit\MTK
#        IOT\SDK_V4.2.0\out_iar\mt7697_hdk\iot_sdk_demo\Debug\Obj\bt_debug.o"
#        "C:\LEO\myGit\MTK
#        IOT\SDK_V4.2.0\out_iar\mt7697_hdk\iot_sdk_demo\Debug\Obj\bt_gattc_connect.o"
#        "C:\LEO\myGit\MTK
#        IOT\SDK_V4.2.0\out_iar\mt7697_hdk\iot_sdk_demo\Debug\Obj\bt_gattc_handle_op.o"
#        "C:\LEO\myGit\MTK
#        IOT\SDK_V4.2.0\out_iar\mt7697_hdk\iot_sdk_demo\Debug\Obj\bt_gattc_srv.o"
#        "C:\LEO\myGit\MTK
#        IOT\SDK_V4.2.0\out_iar\mt7697_hdk\iot_sdk_demo\Debug\Obj\bt_hci_log.o"
#        "C:\LEO\myGit\MTK
#        IOT\SDK_V4.2.0\out_iar\mt7697_hdk\iot_sdk_demo\Debug\Obj\bt_init.o"
#        "C:\LEO\myGit\MTK
#        IOT\SDK_V4.2.0\out_iar\mt7697_hdk\iot_sdk_demo\Debug\Obj\bt_lwip.o"
#        "C:\LEO\myGit\MTK
#        IOT\SDK_V4.2.0\out_iar\mt7697_hdk\iot_sdk_demo\Debug\Obj\bt_os_layer_api.o"
#        "C:\LEO\myGit\MTK
#        IOT\SDK_V4.2.0\out_iar\mt7697_hdk\iot_sdk_demo\Debug\Obj\bt_task.o"
#        "C:\LEO\myGit\MTK
#        IOT\SDK_V4.2.0\out_iar\mt7697_hdk\iot_sdk_demo\Debug\Obj\camellia.o"
#        "C:\LEO\myGit\MTK
#        IOT\SDK_V4.2.0\out_iar\mt7697_hdk\iot_sdk_demo\Debug\Obj\ccm.o"
#        "C:\LEO\myGit\MTK
#        IOT\SDK_V4.2.0\out_iar\mt7697_hdk\iot_sdk_demo\Debug\Obj\ccp.o"
#        "C:\LEO\myGit\MTK
#        IOT\SDK_V4.2.0\out_iar\mt7697_hdk\iot_sdk_demo\Debug\Obj\certs.o"
#        "C:\LEO\myGit\MTK
#        IOT\SDK_V4.2.0\out_iar\mt7697_hdk\iot_sdk_demo\Debug\Obj\chap-md5.o"
#        "C:\LEO\myGit\MTK
#        IOT\SDK_V4.2.0\out_iar\mt7697_hdk\iot_sdk_demo\Debug\Obj\chap-new.o"
#        "C:\LEO\myGit\MTK
#        IOT\SDK_V4.2.0\out_iar\mt7697_hdk\iot_sdk_demo\Debug\Obj\chap_ms.o"
#        "C:\LEO\myGit\MTK
#        IOT\SDK_V4.2.0\out_iar\mt7697_hdk\iot_sdk_demo\Debug\Obj\cipher.o"
#        "C:\LEO\myGit\MTK
#        IOT\SDK_V4.2.0\out_iar\mt7697_hdk\iot_sdk_demo\Debug\Obj\cipher_wrap.o"
#        "C:\LEO\myGit\MTK
#        IOT\SDK_V4.2.0\out_iar\mt7697_hdk\iot_sdk_demo\Debug\Obj\cli_cmds.o"
#        "C:\LEO\myGit\MTK
#        IOT\SDK_V4.2.0\out_iar\mt7697_hdk\iot_sdk_demo\Debug\Obj\cli_def.o"
#        "C:\LEO\myGit\MTK
#        IOT\SDK_V4.2.0\out_iar\mt7697_hdk\iot_sdk_demo\Debug\Obj\close.o"
#        "C:\LEO\myGit\MTK
#        IOT\SDK_V4.2.0\out_iar\mt7697_hdk\iot_sdk_demo\Debug\Obj\connection_info.o"
#        "C:\LEO\myGit\MTK
#        IOT\SDK_V4.2.0\out_iar\mt7697_hdk\iot_sdk_demo\Debug\Obj\connsys_bus.o"
#        "C:\LEO\myGit\MTK
#        IOT\SDK_V4.2.0\out_iar\mt7697_hdk\iot_sdk_demo\Debug\Obj\connsys_driver.o"
#        "C:\LEO\myGit\MTK
#        IOT\SDK_V4.2.0\out_iar\mt7697_hdk\iot_sdk_demo\Debug\Obj\connsys_util.o"
#        "C:\LEO\myGit\MTK
#        IOT\SDK_V4.2.0\out_iar\mt7697_hdk\iot_sdk_demo\Debug\Obj\cos_api.o"
#        "C:\LEO\myGit\MTK
#        IOT\SDK_V4.2.0\out_iar\mt7697_hdk\iot_sdk_demo\Debug\Obj\ctr_drbg.o"
#        "C:\LEO\myGit\MTK
#        IOT\SDK_V4.2.0\out_iar\mt7697_hdk\iot_sdk_demo\Debug\Obj\debug.o"
#        "C:\LEO\myGit\MTK
#        IOT\SDK_V4.2.0\out_iar\mt7697_hdk\iot_sdk_demo\Debug\Obj\def.o"
#        "C:\LEO\myGit\MTK
#        IOT\SDK_V4.2.0\out_iar\mt7697_hdk\iot_sdk_demo\Debug\Obj\demand.o"
#        "C:\LEO\myGit\MTK
#        IOT\SDK_V4.2.0\out_iar\mt7697_hdk\iot_sdk_demo\Debug\Obj\des.o"
#        "C:\LEO\myGit\MTK
#        IOT\SDK_V4.2.0\out_iar\mt7697_hdk\iot_sdk_demo\Debug\Obj\dhcp.o"
#        "C:\LEO\myGit\MTK
#        IOT\SDK_V4.2.0\out_iar\mt7697_hdk\iot_sdk_demo\Debug\Obj\dhcp6.o"
#        "C:\LEO\myGit\MTK
#        IOT\SDK_V4.2.0\out_iar\mt7697_hdk\iot_sdk_demo\Debug\Obj\dhcpd.o"
#        "C:\LEO\myGit\MTK
#        IOT\SDK_V4.2.0\out_iar\mt7697_hdk\iot_sdk_demo\Debug\Obj\dhm.o"
#        "C:\LEO\myGit\MTK
#        IOT\SDK_V4.2.0\out_iar\mt7697_hdk\iot_sdk_demo\Debug\Obj\dma.o"
#        "C:\LEO\myGit\MTK
#        IOT\SDK_V4.2.0\out_iar\mt7697_hdk\iot_sdk_demo\Debug\Obj\dns.o"
#        "C:\LEO\myGit\MTK
#        IOT\SDK_V4.2.0\out_iar\mt7697_hdk\iot_sdk_demo\Debug\Obj\eap.o"
#        "C:\LEO\myGit\MTK
#        IOT\SDK_V4.2.0\out_iar\mt7697_hdk\iot_sdk_demo\Debug\Obj\ecdh.o"
#        "C:\LEO\myGit\MTK
#        IOT\SDK_V4.2.0\out_iar\mt7697_hdk\iot_sdk_demo\Debug\Obj\ecdsa.o"
#        "C:\LEO\myGit\MTK
#        IOT\SDK_V4.2.0\out_iar\mt7697_hdk\iot_sdk_demo\Debug\Obj\ecp.o"
#        "C:\LEO\myGit\MTK
#        IOT\SDK_V4.2.0\out_iar\mt7697_hdk\iot_sdk_demo\Debug\Obj\ecp_curves.o"
#        "C:\LEO\myGit\MTK
#        IOT\SDK_V4.2.0\out_iar\mt7697_hdk\iot_sdk_demo\Debug\Obj\elian.o"
#        "C:\LEO\myGit\MTK
#        IOT\SDK_V4.2.0\out_iar\mt7697_hdk\iot_sdk_demo\Debug\Obj\entropy.o"
#        "C:\LEO\myGit\MTK
#        IOT\SDK_V4.2.0\out_iar\mt7697_hdk\iot_sdk_demo\Debug\Obj\entropy_poll.o"
#        "C:\LEO\myGit\MTK
#        IOT\SDK_V4.2.0\out_iar\mt7697_hdk\iot_sdk_demo\Debug\Obj\ept_eint_var.o"
#        "C:\LEO\myGit\MTK
#        IOT\SDK_V4.2.0\out_iar\mt7697_hdk\iot_sdk_demo\Debug\Obj\ept_gpio_var.o"
#        "C:\LEO\myGit\MTK
#        IOT\SDK_V4.2.0\out_iar\mt7697_hdk\iot_sdk_demo\Debug\Obj\err.o"
#        "C:\LEO\myGit\MTK
#        IOT\SDK_V4.2.0\out_iar\mt7697_hdk\iot_sdk_demo\Debug\Obj\error.o"
#        "C:\LEO\myGit\MTK
#        IOT\SDK_V4.2.0\out_iar\mt7697_hdk\iot_sdk_demo\Debug\Obj\etharp.o"
#        "C:\LEO\myGit\MTK
#        IOT\SDK_V4.2.0\out_iar\mt7697_hdk\iot_sdk_demo\Debug\Obj\ethernetif.o"
#        "C:\LEO\myGit\MTK
#        IOT\SDK_V4.2.0\out_iar\mt7697_hdk\iot_sdk_demo\Debug\Obj\ethip6.o"
#        "C:\LEO\myGit\MTK
#        IOT\SDK_V4.2.0\out_iar\mt7697_hdk\iot_sdk_demo\Debug\Obj\eui64.o"
#        "C:\LEO\myGit\MTK
#        IOT\SDK_V4.2.0\out_iar\mt7697_hdk\iot_sdk_demo\Debug\Obj\event_groups.o"
#        "C:\LEO\myGit\MTK
#        IOT\SDK_V4.2.0\out_iar\mt7697_hdk\iot_sdk_demo\Debug\Obj\flash_sfc.o"
#        "C:\LEO\myGit\MTK
#        IOT\SDK_V4.2.0\out_iar\mt7697_hdk\iot_sdk_demo\Debug\Obj\fsm.o"
#        "C:\LEO\myGit\MTK
#        IOT\SDK_V4.2.0\out_iar\mt7697_hdk\iot_sdk_demo\Debug\Obj\gatt_command.o"
#        "C:\LEO\myGit\MTK
#        IOT\SDK_V4.2.0\out_iar\mt7697_hdk\iot_sdk_demo\Debug\Obj\gatt_service.o"
#        "C:\LEO\myGit\MTK
#        IOT\SDK_V4.2.0\out_iar\mt7697_hdk\iot_sdk_demo\Debug\Obj\gcm.o"
#        "C:\LEO\myGit\MTK
#        IOT\SDK_V4.2.0\out_iar\mt7697_hdk\iot_sdk_demo\Debug\Obj\get_profile_string.o"
#        "C:\LEO\myGit\MTK
#        IOT\SDK_V4.2.0\out_iar\mt7697_hdk\iot_sdk_demo\Debug\Obj\gpio_cli.o"
#        "C:\LEO\myGit\MTK
#        IOT\SDK_V4.2.0\out_iar\mt7697_hdk\iot_sdk_demo\Debug\Obj\gpt.o"
#        "C:\LEO\myGit\MTK
#        IOT\SDK_V4.2.0\out_iar\mt7697_hdk\iot_sdk_demo\Debug\Obj\hal_adc.o"
#        "C:\LEO\myGit\MTK
#        IOT\SDK_V4.2.0\out_iar\mt7697_hdk\iot_sdk_demo\Debug\Obj\hal_aes.o"
#        "C:\LEO\myGit\MTK
#        IOT\SDK_V4.2.0\out_iar\mt7697_hdk\iot_sdk_demo\Debug\Obj\hal_cache.o"
#        "C:\LEO\myGit\MTK
#        IOT\SDK_V4.2.0\out_iar\mt7697_hdk\iot_sdk_demo\Debug\Obj\hal_cache_internal.o"
#        "C:\LEO\myGit\MTK
#        IOT\SDK_V4.2.0\out_iar\mt7697_hdk\iot_sdk_demo\Debug\Obj\hal_des.o"
#        "C:\LEO\myGit\MTK
#        IOT\SDK_V4.2.0\out_iar\mt7697_hdk\iot_sdk_demo\Debug\Obj\hal_eint.o"
#        "C:\LEO\myGit\MTK
#        IOT\SDK_V4.2.0\out_iar\mt7697_hdk\iot_sdk_demo\Debug\Obj\hal_flash.o"
#        "C:\LEO\myGit\MTK
#        IOT\SDK_V4.2.0\out_iar\mt7697_hdk\iot_sdk_demo\Debug\Obj\hal_gdma.o"
#        "C:\LEO\myGit\MTK
#        IOT\SDK_V4.2.0\out_iar\mt7697_hdk\iot_sdk_demo\Debug\Obj\hal_gpc.o"
#        "C:\LEO\myGit\MTK
#        IOT\SDK_V4.2.0\out_iar\mt7697_hdk\iot_sdk_demo\Debug\Obj\hal_gpio.o"
#        "C:\LEO\myGit\MTK
#        IOT\SDK_V4.2.0\out_iar\mt7697_hdk\iot_sdk_demo\Debug\Obj\hal_gpio_7687.o"
#        "C:\LEO\myGit\MTK
#        IOT\SDK_V4.2.0\out_iar\mt7697_hdk\iot_sdk_demo\Debug\Obj\hal_gpt.o"
#        "C:\LEO\myGit\MTK
#        IOT\SDK_V4.2.0\out_iar\mt7697_hdk\iot_sdk_demo\Debug\Obj\hal_I2C.o"
#        "C:\LEO\myGit\MTK
#        IOT\SDK_V4.2.0\out_iar\mt7697_hdk\iot_sdk_demo\Debug\Obj\hal_i2c_master.o"
#        "C:\LEO\myGit\MTK
#        IOT\SDK_V4.2.0\out_iar\mt7697_hdk\iot_sdk_demo\Debug\Obj\hal_i2s.o"
#        "C:\LEO\myGit\MTK
#        IOT\SDK_V4.2.0\out_iar\mt7697_hdk\iot_sdk_demo\Debug\Obj\hal_i2s_internal.o"
#        "C:\LEO\myGit\MTK
#        IOT\SDK_V4.2.0\out_iar\mt7697_hdk\iot_sdk_demo\Debug\Obj\hal_irrx.o"
#        "C:\LEO\myGit\MTK
#        IOT\SDK_V4.2.0\out_iar\mt7697_hdk\iot_sdk_demo\Debug\Obj\hal_irtx.o"
#        "C:\LEO\myGit\MTK
#        IOT\SDK_V4.2.0\out_iar\mt7697_hdk\iot_sdk_demo\Debug\Obj\hal_log.o"
#        "C:\LEO\myGit\MTK
#        IOT\SDK_V4.2.0\out_iar\mt7697_hdk\iot_sdk_demo\Debug\Obj\hal_lp.o"
#        "C:\LEO\myGit\MTK
#        IOT\SDK_V4.2.0\out_iar\mt7697_hdk\iot_sdk_demo\Debug\Obj\hal_md5.o"
#        "C:\LEO\myGit\MTK
#        IOT\SDK_V4.2.0\out_iar\mt7697_hdk\iot_sdk_demo\Debug\Obj\hal_nvic.o"
#        "C:\LEO\myGit\MTK
#        IOT\SDK_V4.2.0\out_iar\mt7697_hdk\iot_sdk_demo\Debug\Obj\hal_nvic_internal.o"
#        "C:\LEO\myGit\MTK
#        IOT\SDK_V4.2.0\out_iar\mt7697_hdk\iot_sdk_demo\Debug\Obj\hal_pcnt.o"
#        "C:\LEO\myGit\MTK
#        IOT\SDK_V4.2.0\out_iar\mt7697_hdk\iot_sdk_demo\Debug\Obj\hal_pinmux.o"
#        "C:\LEO\myGit\MTK
#        IOT\SDK_V4.2.0\out_iar\mt7697_hdk\iot_sdk_demo\Debug\Obj\hal_pwm.o"
#        "C:\LEO\myGit\MTK
#        IOT\SDK_V4.2.0\out_iar\mt7697_hdk\iot_sdk_demo\Debug\Obj\hal_rtc.o"
#        "C:\LEO\myGit\MTK
#        IOT\SDK_V4.2.0\out_iar\mt7697_hdk\iot_sdk_demo\Debug\Obj\hal_sha.o"
#        "C:\LEO\myGit\MTK
#        IOT\SDK_V4.2.0\out_iar\mt7697_hdk\iot_sdk_demo\Debug\Obj\hal_spi_master.o"
#        "C:\LEO\myGit\MTK
#        IOT\SDK_V4.2.0\out_iar\mt7697_hdk\iot_sdk_demo\Debug\Obj\hal_spim.o"
#        "C:\LEO\myGit\MTK
#        IOT\SDK_V4.2.0\out_iar\mt7697_hdk\iot_sdk_demo\Debug\Obj\hal_sys.o"
#        "C:\LEO\myGit\MTK
#        IOT\SDK_V4.2.0\out_iar\mt7697_hdk\iot_sdk_demo\Debug\Obj\hal_trng.o"
#        "C:\LEO\myGit\MTK
#        IOT\SDK_V4.2.0\out_iar\mt7697_hdk\iot_sdk_demo\Debug\Obj\hal_uart.o"
#        "C:\LEO\myGit\MTK
#        IOT\SDK_V4.2.0\out_iar\mt7697_hdk\iot_sdk_demo\Debug\Obj\hal_uid.o"
#        "C:\LEO\myGit\MTK
#        IOT\SDK_V4.2.0\out_iar\mt7697_hdk\iot_sdk_demo\Debug\Obj\hal_wdt.o"
#        "C:\LEO\myGit\MTK
#        IOT\SDK_V4.2.0\out_iar\mt7697_hdk\iot_sdk_demo\Debug\Obj\havege.o"
#        "C:\LEO\myGit\MTK
#        IOT\SDK_V4.2.0\out_iar\mt7697_hdk\iot_sdk_demo\Debug\Obj\hci_log.o"
#        "C:\LEO\myGit\MTK
#        IOT\SDK_V4.2.0\out_iar\mt7697_hdk\iot_sdk_demo\Debug\Obj\heap_4.o"
#        "C:\LEO\myGit\MTK
#        IOT\SDK_V4.2.0\out_iar\mt7697_hdk\iot_sdk_demo\Debug\Obj\hmac_drbg.o"
#        "C:\LEO\myGit\MTK
#        IOT\SDK_V4.2.0\out_iar\mt7697_hdk\iot_sdk_demo\Debug\Obj\httpclient.o"
#        "C:\LEO\myGit\MTK
#        IOT\SDK_V4.2.0\out_iar\mt7697_hdk\iot_sdk_demo\Debug\Obj\i2c.o"
#        "C:\LEO\myGit\MTK
#        IOT\SDK_V4.2.0\out_iar\mt7697_hdk\iot_sdk_demo\Debug\Obj\icmp.o"
#        "C:\LEO\myGit\MTK
#        IOT\SDK_V4.2.0\out_iar\mt7697_hdk\iot_sdk_demo\Debug\Obj\icmp6.o"
#        "C:\LEO\myGit\MTK
#        IOT\SDK_V4.2.0\out_iar\mt7697_hdk\iot_sdk_demo\Debug\Obj\igmp.o"
#        "C:\LEO\myGit\MTK
#        IOT\SDK_V4.2.0\out_iar\mt7697_hdk\iot_sdk_demo\Debug\Obj\inet6.o"
#        "C:\LEO\myGit\MTK
#        IOT\SDK_V4.2.0\out_iar\mt7697_hdk\iot_sdk_demo\Debug\Obj\inet_chksum.o"
#        "C:\LEO\myGit\MTK
#        IOT\SDK_V4.2.0\out_iar\mt7697_hdk\iot_sdk_demo\Debug\Obj\init.o"
#        "C:\LEO\myGit\MTK
#        IOT\SDK_V4.2.0\out_iar\mt7697_hdk\iot_sdk_demo\Debug\Obj\io_def.o"
#        "C:\LEO\myGit\MTK
#        IOT\SDK_V4.2.0\out_iar\mt7697_hdk\iot_sdk_demo\Debug\Obj\ip4.o"
#        "C:\LEO\myGit\MTK
#        IOT\SDK_V4.2.0\out_iar\mt7697_hdk\iot_sdk_demo\Debug\Obj\ip4_addr.o"
#        "C:\LEO\myGit\MTK
#        IOT\SDK_V4.2.0\out_iar\mt7697_hdk\iot_sdk_demo\Debug\Obj\ip6.o"
#        "C:\LEO\myGit\MTK
#        IOT\SDK_V4.2.0\out_iar\mt7697_hdk\iot_sdk_demo\Debug\Obj\ip6_addr.o"
#        "C:\LEO\myGit\MTK
#        IOT\SDK_V4.2.0\out_iar\mt7697_hdk\iot_sdk_demo\Debug\Obj\ip6_frag.o"
#        "C:\LEO\myGit\MTK
#        IOT\SDK_V4.2.0\out_iar\mt7697_hdk\iot_sdk_demo\Debug\Obj\ip_frag.o"
#        "C:\LEO\myGit\MTK
#        IOT\SDK_V4.2.0\out_iar\mt7697_hdk\iot_sdk_demo\Debug\Obj\ipcp.o"
#        "C:\LEO\myGit\MTK
#        IOT\SDK_V4.2.0\out_iar\mt7697_hdk\iot_sdk_demo\Debug\Obj\iperf_cli.o"
#        "C:\LEO\myGit\MTK
#        IOT\SDK_V4.2.0\out_iar\mt7697_hdk\iot_sdk_demo\Debug\Obj\iperf_task.o"
#        "C:\LEO\myGit\MTK
#        IOT\SDK_V4.2.0\out_iar\mt7697_hdk\iot_sdk_demo\Debug\Obj\ipv6cp.o"
#        "C:\LEO\myGit\MTK
#        IOT\SDK_V4.2.0\out_iar\mt7697_hdk\iot_sdk_demo\Debug\Obj\ir_tx.o"
#        "C:\LEO\myGit\MTK
#        IOT\SDK_V4.2.0\out_iar\mt7697_hdk\iot_sdk_demo\Debug\Obj\lcp.o"
#        "C:\LEO\myGit\MTK
#        IOT\SDK_V4.2.0\middleware\MTK\bluetooth\lib\libble_iar.a"
#        "C:\LEO\myGit\MTK
#        IOT\SDK_V4.2.0\middleware\MTK\bluetooth\lib\libble_multi_adv_iar.a"
#        "C:\LEO\myGit\MTK
#        IOT\SDK_V4.2.0\middleware\MTK\bluetooth\lib\libbtdriver_7697_iar.a"
#        "C:\LEO\myGit\MTK
#        IOT\SDK_V4.2.0\driver\chip\mt7687\lib\libhal_core_CM4_IAR.a"
#        "C:\LEO\myGit\MTK
#        IOT\SDK_V4.2.0\driver\chip\mt7687\lib\libhal_protected_CM4_IAR.a"
#        "C:\LEO\myGit\MTK
#        IOT\SDK_V4.2.0\kernel\service\lib\libkservice_CM4_MT7687_IAR.a"
#        "C:\LEO\myGit\MTK
#        IOT\SDK_V4.2.0\middleware\MTK\minicli\lib\libminicli_CM4_IAR.a"
#        "C:\LEO\myGit\MTK
#        IOT\SDK_V4.2.0\middleware\MTK\minisupp\lib\libminisupp_CM4_IAR.a"
#        "C:\LEO\myGit\MTK
#        IOT\SDK_V4.2.0\middleware\MTK\nvdm\lib\libnvdm_CM4_IAR.a"
#        "C:\LEO\myGit\MTK
#        IOT\SDK_V4.2.0\middleware\MTK\smtcn\lib\libsmtcn_CM4_IAR.a"
#        "C:\LEO\myGit\MTK
#        IOT\SDK_V4.2.0\driver\board\mt76x7_hdk\lib\libwifi_CM4_IAR.a"
#        "C:\LEO\myGit\MTK
#        IOT\SDK_V4.2.0\out_iar\mt7697_hdk\iot_sdk_demo\Debug\Obj\list.o"
#        "C:\LEO\myGit\MTK
#        IOT\SDK_V4.2.0\out_iar\mt7697_hdk\iot_sdk_demo\Debug\Obj\low_hal_gpio.o"
#        "C:\LEO\myGit\MTK
#        IOT\SDK_V4.2.0\out_iar\mt7697_hdk\iot_sdk_demo\Debug\Obj\low_hal_irrx.o"
#        "C:\LEO\myGit\MTK
#        IOT\SDK_V4.2.0\out_iar\mt7697_hdk\iot_sdk_demo\Debug\Obj\low_hal_irtx.o"
#        "C:\LEO\myGit\MTK
#        IOT\SDK_V4.2.0\out_iar\mt7697_hdk\iot_sdk_demo\Debug\Obj\low_hal_pwm.o"
#        "C:\LEO\myGit\MTK
#        IOT\SDK_V4.2.0\out_iar\mt7697_hdk\iot_sdk_demo\Debug\Obj\low_hal_rtc.o"
#        "C:\LEO\myGit\MTK
#        IOT\SDK_V4.2.0\out_iar\mt7697_hdk\iot_sdk_demo\Debug\Obj\low_hal_wdt.o"
#        "C:\LEO\myGit\MTK
#        IOT\SDK_V4.2.0\out_iar\mt7697_hdk\iot_sdk_demo\Debug\Obj\lp_ex_sleep.o"
#        "C:\LEO\myGit\MTK
#        IOT\SDK_V4.2.0\out_iar\mt7697_hdk\iot_sdk_demo\Debug\Obj\lseek.o"
#        "C:\LEO\myGit\MTK
#        IOT\SDK_V4.2.0\out_iar\mt7697_hdk\iot_sdk_demo\Debug\Obj\lwip_cli.o"
#        "C:\LEO\myGit\MTK
#        IOT\SDK_V4.2.0\out_iar\mt7697_hdk\iot_sdk_demo\Debug\Obj\lwip_log.o"
#        "C:\LEO\myGit\MTK
#        IOT\SDK_V4.2.0\out_iar\mt7697_hdk\iot_sdk_demo\Debug\Obj\lwip_timers.o"
#        "C:\LEO\myGit\MTK
#        IOT\SDK_V4.2.0\out_iar\mt7697_hdk\iot_sdk_demo\Debug\Obj\magic.o"
#        "C:\LEO\myGit\MTK
#        IOT\SDK_V4.2.0\out_iar\mt7697_hdk\iot_sdk_demo\Debug\Obj\main.o"
#        "C:\LEO\myGit\MTK
#        IOT\SDK_V4.2.0\out_iar\mt7697_hdk\iot_sdk_demo\Debug\Obj\mcs.o"
#        "C:\LEO\myGit\MTK
#        IOT\SDK_V4.2.0\out_iar\mt7697_hdk\iot_sdk_demo\Debug\Obj\md.o"
#        "C:\LEO\myGit\MTK
#        IOT\SDK_V4.2.0\out_iar\mt7697_hdk\iot_sdk_demo\Debug\Obj\md2.o"
#        "C:\LEO\myGit\MTK
#        IOT\SDK_V4.2.0\out_iar\mt7697_hdk\iot_sdk_demo\Debug\Obj\md4.o"
#        "C:\LEO\myGit\MTK
#        IOT\SDK_V4.2.0\out_iar\mt7697_hdk\iot_sdk_demo\Debug\Obj\md5.o"
#        "C:\LEO\myGit\MTK
#        IOT\SDK_V4.2.0\out_iar\mt7697_hdk\iot_sdk_demo\Debug\Obj\md_wrap.o"
#        "C:\LEO\myGit\MTK
#        IOT\SDK_V4.2.0\out_iar\mt7697_hdk\iot_sdk_demo\Debug\Obj\mem.o"
#        "C:\LEO\myGit\MTK
#        IOT\SDK_V4.2.0\out_iar\mt7697_hdk\iot_sdk_demo\Debug\Obj\memory_buffer_alloc.o"
#        "C:\LEO\myGit\MTK
#        IOT\SDK_V4.2.0\out_iar\mt7697_hdk\iot_sdk_demo\Debug\Obj\memory_regions.o"
#        "C:\LEO\myGit\MTK
#        IOT\SDK_V4.2.0\out_iar\mt7697_hdk\iot_sdk_demo\Debug\Obj\memp.o"
#        "C:\LEO\myGit\MTK
#        IOT\SDK_V4.2.0\out_iar\mt7697_hdk\iot_sdk_demo\Debug\Obj\mib2.o"
#        "C:\LEO\myGit\MTK
#        IOT\SDK_V4.2.0\out_iar\mt7697_hdk\iot_sdk_demo\Debug\Obj\mib_structs.o"
#        "C:\LEO\myGit\MTK
#        IOT\SDK_V4.2.0\out_iar\mt7697_hdk\iot_sdk_demo\Debug\Obj\misc.o"
#        "C:\LEO\myGit\MTK
#        IOT\SDK_V4.2.0\out_iar\mt7697_hdk\iot_sdk_demo\Debug\Obj\mld6.o"
#        "C:\LEO\myGit\MTK
#        IOT\SDK_V4.2.0\out_iar\mt7697_hdk\iot_sdk_demo\Debug\Obj\mppe.o"
#        "C:\LEO\myGit\MTK
#        IOT\SDK_V4.2.0\out_iar\mt7697_hdk\iot_sdk_demo\Debug\Obj\msg_in.o"
#        "C:\LEO\myGit\MTK
#        IOT\SDK_V4.2.0\out_iar\mt7697_hdk\iot_sdk_demo\Debug\Obj\msg_out.o"
#        "C:\LEO\myGit\MTK
#        IOT\SDK_V4.2.0\out_iar\mt7697_hdk\iot_sdk_demo\Debug\Obj\mt76X7_n9_image.o"
#        "C:\LEO\myGit\MTK
#        IOT\SDK_V4.2.0\out_iar\mt7697_hdk\iot_sdk_demo\Debug\Obj\nd6.o"
#        "C:\LEO\myGit\MTK
#        IOT\SDK_V4.2.0\out_iar\mt7697_hdk\iot_sdk_demo\Debug\Obj\net.o"
#        "C:\LEO\myGit\MTK
#        IOT\SDK_V4.2.0\out_iar\mt7697_hdk\iot_sdk_demo\Debug\Obj\netbuf.o"
#        "C:\LEO\myGit\MTK
#        IOT\SDK_V4.2.0\out_iar\mt7697_hdk\iot_sdk_demo\Debug\Obj\netdb.o"
#        "C:\LEO\myGit\MTK
#        IOT\SDK_V4.2.0\out_iar\mt7697_hdk\iot_sdk_demo\Debug\Obj\netif.o"
#        "C:\LEO\myGit\MTK
#        IOT\SDK_V4.2.0\out_iar\mt7697_hdk\iot_sdk_demo\Debug\Obj\netifapi.o"
#        "C:\LEO\myGit\MTK
#        IOT\SDK_V4.2.0\out_iar\mt7697_hdk\iot_sdk_demo\Debug\Obj\nvdm_cli.o"
#        "C:\LEO\myGit\MTK
#        IOT\SDK_V4.2.0\out_iar\mt7697_hdk\iot_sdk_demo\Debug\Obj\nvdm_port.o"
#        "C:\LEO\myGit\MTK
#        IOT\SDK_V4.2.0\out_iar\mt7697_hdk\iot_sdk_demo\Debug\Obj\nvic.o"
#        "C:\LEO\myGit\MTK
#        IOT\SDK_V4.2.0\out_iar\mt7697_hdk\iot_sdk_demo\Debug\Obj\oid.o"
#        "C:\LEO\myGit\MTK
#        IOT\SDK_V4.2.0\out_iar\mt7697_hdk\iot_sdk_demo\Debug\Obj\open.o"
#        "C:\LEO\myGit\MTK
#        IOT\SDK_V4.2.0\out_iar\mt7697_hdk\iot_sdk_demo\Debug\Obj\os_cli.o"
#        "C:\LEO\myGit\MTK
#        IOT\SDK_V4.2.0\out_iar\mt7697_hdk\iot_sdk_demo\Debug\Obj\os_port_callback.o"
#        "C:\LEO\myGit\MTK
#        IOT\SDK_V4.2.0\out_iar\mt7697_hdk\iot_sdk_demo\Debug\Obj\os_util.o"
#        "C:\LEO\myGit\MTK
#        IOT\SDK_V4.2.0\out_iar\mt7697_hdk\iot_sdk_demo\Debug\Obj\os_utils.o"
#        "C:\LEO\myGit\MTK
#        IOT\SDK_V4.2.0\out_iar\mt7697_hdk\iot_sdk_demo\Debug\Obj\padlock.o"
#        "C:\LEO\myGit\MTK
#        IOT\SDK_V4.2.0\out_iar\mt7697_hdk\iot_sdk_demo\Debug\Obj\pbuf.o"
#        "C:\LEO\myGit\MTK
#        IOT\SDK_V4.2.0\out_iar\mt7697_hdk\iot_sdk_demo\Debug\Obj\pem.o"
#        "C:\LEO\myGit\MTK
#        IOT\SDK_V4.2.0\out_iar\mt7697_hdk\iot_sdk_demo\Debug\Obj\ping.o"
#        "C:\LEO\myGit\MTK
#        IOT\SDK_V4.2.0\out_iar\mt7697_hdk\iot_sdk_demo\Debug\Obj\ping_cli.o"
#        "C:\LEO\myGit\MTK
#        IOT\SDK_V4.2.0\out_iar\mt7697_hdk\iot_sdk_demo\Debug\Obj\pinmux.o"
#        "C:\LEO\myGit\MTK
#        IOT\SDK_V4.2.0\out_iar\mt7697_hdk\iot_sdk_demo\Debug\Obj\pk.o"
#        "C:\LEO\myGit\MTK
#        IOT\SDK_V4.2.0\out_iar\mt7697_hdk\iot_sdk_demo\Debug\Obj\pk_wrap.o"
#        "C:\LEO\myGit\MTK
#        IOT\SDK_V4.2.0\out_iar\mt7697_hdk\iot_sdk_demo\Debug\Obj\pkcs11.o"
#        "C:\LEO\myGit\MTK
#        IOT\SDK_V4.2.0\out_iar\mt7697_hdk\iot_sdk_demo\Debug\Obj\pkcs12.o"
#        "C:\LEO\myGit\MTK
#        IOT\SDK_V4.2.0\out_iar\mt7697_hdk\iot_sdk_demo\Debug\Obj\pkcs5.o"
#        "C:\LEO\myGit\MTK
#        IOT\SDK_V4.2.0\out_iar\mt7697_hdk\iot_sdk_demo\Debug\Obj\pkparse.o"
#        "C:\LEO\myGit\MTK
#        IOT\SDK_V4.2.0\out_iar\mt7697_hdk\iot_sdk_demo\Debug\Obj\pkwrite.o"
#        "C:\LEO\myGit\MTK
#        IOT\SDK_V4.2.0\out_iar\mt7697_hdk\iot_sdk_demo\Debug\Obj\platform.o"
#        "C:\LEO\myGit\MTK
#        IOT\SDK_V4.2.0\out_iar\mt7697_hdk\iot_sdk_demo\Debug\Obj\port.o"
#        "C:\LEO\myGit\MTK
#        IOT\SDK_V4.2.0\out_iar\mt7697_hdk\iot_sdk_demo\Debug\Obj\port_tick.o"
#        "C:\LEO\myGit\MTK
#        IOT\SDK_V4.2.0\out_iar\mt7697_hdk\iot_sdk_demo\Debug\Obj\portasm.o"
#        "C:\LEO\myGit\MTK
#        IOT\SDK_V4.2.0\out_iar\mt7697_hdk\iot_sdk_demo\Debug\Obj\ppp.o"
#        "C:\LEO\myGit\MTK
#        IOT\SDK_V4.2.0\out_iar\mt7697_hdk\iot_sdk_demo\Debug\Obj\pppapi.o"
#        "C:\LEO\myGit\MTK
#        IOT\SDK_V4.2.0\out_iar\mt7697_hdk\iot_sdk_demo\Debug\Obj\pppcrypt.o"
#        "C:\LEO\myGit\MTK
#        IOT\SDK_V4.2.0\out_iar\mt7697_hdk\iot_sdk_demo\Debug\Obj\pppoe.o"
#        "C:\LEO\myGit\MTK
#        IOT\SDK_V4.2.0\out_iar\mt7697_hdk\iot_sdk_demo\Debug\Obj\pppos.o"
#        "C:\LEO\myGit\MTK
#        IOT\SDK_V4.2.0\out_iar\mt7697_hdk\iot_sdk_demo\Debug\Obj\pwm.o"
#        "C:\LEO\myGit\MTK
#        IOT\SDK_V4.2.0\out_iar\mt7697_hdk\iot_sdk_demo\Debug\Obj\queue.o"
#        "C:\LEO\myGit\MTK
#        IOT\SDK_V4.2.0\out_iar\mt7697_hdk\iot_sdk_demo\Debug\Obj\raw.o"
#        "C:\LEO\myGit\MTK
#        IOT\SDK_V4.2.0\out_iar\mt7697_hdk\iot_sdk_demo\Debug\Obj\read.o"
#        "C:\LEO\myGit\MTK
#        IOT\SDK_V4.2.0\out_iar\mt7697_hdk\iot_sdk_demo\Debug\Obj\remove.o"
#        "C:\LEO\myGit\MTK
#        IOT\SDK_V4.2.0\out_iar\mt7697_hdk\iot_sdk_demo\Debug\Obj\ripemd160.o"
#        "C:\LEO\myGit\MTK
#        IOT\SDK_V4.2.0\out_iar\mt7697_hdk\iot_sdk_demo\Debug\Obj\rsa.o"
#        "C:\LEO\myGit\MTK
#        IOT\SDK_V4.2.0\out_iar\mt7697_hdk\iot_sdk_demo\Debug\Obj\sfc.o"
#        "C:\LEO\myGit\MTK
#        IOT\SDK_V4.2.0\out_iar\mt7697_hdk\iot_sdk_demo\Debug\Obj\sha1.o"
#        "C:\LEO\myGit\MTK
#        IOT\SDK_V4.2.0\out_iar\mt7697_hdk\iot_sdk_demo\Debug\Obj\sha256.o"
#        "C:\LEO\myGit\MTK
#        IOT\SDK_V4.2.0\out_iar\mt7697_hdk\iot_sdk_demo\Debug\Obj\sha512.o"
#        "C:\LEO\myGit\MTK
#        IOT\SDK_V4.2.0\out_iar\mt7697_hdk\iot_sdk_demo\Debug\Obj\slipif.o"
#        "C:\LEO\myGit\MTK
#        IOT\SDK_V4.2.0\out_iar\mt7697_hdk\iot_sdk_demo\Debug\Obj\smt_api.o"
#        "C:\LEO\myGit\MTK
#        IOT\SDK_V4.2.0\out_iar\mt7697_hdk\iot_sdk_demo\Debug\Obj\smt_conn.o"
#        "C:\LEO\myGit\MTK
#        IOT\SDK_V4.2.0\out_iar\mt7697_hdk\iot_sdk_demo\Debug\Obj\sockets.o"
#        "C:\LEO\myGit\MTK
#        IOT\SDK_V4.2.0\out_iar\mt7697_hdk\iot_sdk_demo\Debug\Obj\spi_flash.o"
#        "C:\LEO\myGit\MTK
#        IOT\SDK_V4.2.0\out_iar\mt7697_hdk\iot_sdk_demo\Debug\Obj\spim.o"
#        "C:\LEO\myGit\MTK
#        IOT\SDK_V4.2.0\out_iar\mt7697_hdk\iot_sdk_demo\Debug\Obj\ssl_cache.o"
#        "C:\LEO\myGit\MTK
#        IOT\SDK_V4.2.0\out_iar\mt7697_hdk\iot_sdk_demo\Debug\Obj\ssl_ciphersuites.o"
#        "C:\LEO\myGit\MTK
#        IOT\SDK_V4.2.0\out_iar\mt7697_hdk\iot_sdk_demo\Debug\Obj\ssl_cli.o"
#        "C:\LEO\myGit\MTK
#        IOT\SDK_V4.2.0\out_iar\mt7697_hdk\iot_sdk_demo\Debug\Obj\ssl_cookie.o"
#        "C:\LEO\myGit\MTK
#        IOT\SDK_V4.2.0\out_iar\mt7697_hdk\iot_sdk_demo\Debug\Obj\ssl_srv.o"
#        "C:\LEO\myGit\MTK
#        IOT\SDK_V4.2.0\out_iar\mt7697_hdk\iot_sdk_demo\Debug\Obj\ssl_ticket.o"
#        "C:\LEO\myGit\MTK
#        IOT\SDK_V4.2.0\out_iar\mt7697_hdk\iot_sdk_demo\Debug\Obj\ssl_tls.o"
#        "C:\LEO\myGit\MTK
#        IOT\SDK_V4.2.0\out_iar\mt7697_hdk\iot_sdk_demo\Debug\Obj\startup_mt7687.o"
#        "C:\LEO\myGit\MTK
#        IOT\SDK_V4.2.0\out_iar\mt7697_hdk\iot_sdk_demo\Debug\Obj\stats.o"
#        "C:\LEO\myGit\MTK
#        IOT\SDK_V4.2.0\out_iar\mt7697_hdk\iot_sdk_demo\Debug\Obj\sys.o"
#        "C:\LEO\myGit\MTK
#        IOT\SDK_V4.2.0\out_iar\mt7697_hdk\iot_sdk_demo\Debug\Obj\sys_arch.o"
#        "C:\LEO\myGit\MTK
#        IOT\SDK_V4.2.0\out_iar\mt7697_hdk\iot_sdk_demo\Debug\Obj\sys_init.o"
#        "C:\LEO\myGit\MTK
#        IOT\SDK_V4.2.0\out_iar\mt7697_hdk\iot_sdk_demo\Debug\Obj\syslog_cli.o"
#        "C:\LEO\myGit\MTK
#        IOT\SDK_V4.2.0\out_iar\mt7697_hdk\iot_sdk_demo\Debug\Obj\system_mt7687.o"
#        "C:\LEO\myGit\MTK
#        IOT\SDK_V4.2.0\out_iar\mt7697_hdk\iot_sdk_demo\Debug\Obj\tasks.o"
#        "C:\LEO\myGit\MTK
#        IOT\SDK_V4.2.0\out_iar\mt7697_hdk\iot_sdk_demo\Debug\Obj\tcp.o"
#        "C:\LEO\myGit\MTK
#        IOT\SDK_V4.2.0\out_iar\mt7697_hdk\iot_sdk_demo\Debug\Obj\tcp_in.o"
#        "C:\LEO\myGit\MTK
#        IOT\SDK_V4.2.0\out_iar\mt7697_hdk\iot_sdk_demo\Debug\Obj\tcp_out.o"
#        "C:\LEO\myGit\MTK
#        IOT\SDK_V4.2.0\out_iar\mt7697_hdk\iot_sdk_demo\Debug\Obj\tcpip.o"
#        "C:\LEO\myGit\MTK
#        IOT\SDK_V4.2.0\out_iar\mt7697_hdk\iot_sdk_demo\Debug\Obj\threading.o"
#        "C:\LEO\myGit\MTK
#        IOT\SDK_V4.2.0\out_iar\mt7697_hdk\iot_sdk_demo\Debug\Obj\timer.o"
#        "C:\LEO\myGit\MTK
#        IOT\SDK_V4.2.0\out_iar\mt7697_hdk\iot_sdk_demo\Debug\Obj\timers.o"
#        "C:\LEO\myGit\MTK
#        IOT\SDK_V4.2.0\out_iar\mt7697_hdk\iot_sdk_demo\Debug\Obj\timing.o"
#        "C:\LEO\myGit\MTK
#        IOT\SDK_V4.2.0\out_iar\mt7697_hdk\iot_sdk_demo\Debug\Obj\top.o"
#        "C:\LEO\myGit\MTK
#        IOT\SDK_V4.2.0\out_iar\mt7697_hdk\iot_sdk_demo\Debug\Obj\uart.o"
#        "C:\LEO\myGit\MTK
#        IOT\SDK_V4.2.0\out_iar\mt7697_hdk\iot_sdk_demo\Debug\Obj\udp.o"
#        "C:\LEO\myGit\MTK
#        IOT\SDK_V4.2.0\out_iar\mt7697_hdk\iot_sdk_demo\Debug\Obj\upap.o"
#        "C:\LEO\myGit\MTK
#        IOT\SDK_V4.2.0\out_iar\mt7697_hdk\iot_sdk_demo\Debug\Obj\ut_app.o"
#        "C:\LEO\myGit\MTK
#        IOT\SDK_V4.2.0\out_iar\mt7697_hdk\iot_sdk_demo\Debug\Obj\ut_app_gap.o"
#        "C:\LEO\myGit\MTK
#        IOT\SDK_V4.2.0\out_iar\mt7697_hdk\iot_sdk_demo\Debug\Obj\utils.o"
#        "C:\LEO\myGit\MTK
#        IOT\SDK_V4.2.0\out_iar\mt7697_hdk\iot_sdk_demo\Debug\Obj\version.o"
#        "C:\LEO\myGit\MTK
#        IOT\SDK_V4.2.0\out_iar\mt7697_hdk\iot_sdk_demo\Debug\Obj\version_features.o"
#        "C:\LEO\myGit\MTK
#        IOT\SDK_V4.2.0\out_iar\mt7697_hdk\iot_sdk_demo\Debug\Obj\vj.o"
#        "C:\LEO\myGit\MTK
#        IOT\SDK_V4.2.0\out_iar\mt7697_hdk\iot_sdk_demo\Debug\Obj\wifi_channel.o"
#        "C:\LEO\myGit\MTK
#        IOT\SDK_V4.2.0\out_iar\mt7697_hdk\iot_sdk_demo\Debug\Obj\wifi_cli.o"
#        "C:\LEO\myGit\MTK
#        IOT\SDK_V4.2.0\out_iar\mt7697_hdk\iot_sdk_demo\Debug\Obj\wifi_default_config.o"
#        "C:\LEO\myGit\MTK
#        IOT\SDK_V4.2.0\out_iar\mt7697_hdk\iot_sdk_demo\Debug\Obj\wifi_ex_cli.o"
#        "C:\LEO\myGit\MTK
#        IOT\SDK_V4.2.0\out_iar\mt7697_hdk\iot_sdk_demo\Debug\Obj\wifi_ex_config.o"
#        "C:\LEO\myGit\MTK
#        IOT\SDK_V4.2.0\out_iar\mt7697_hdk\iot_sdk_demo\Debug\Obj\wifi_ex_connect.o"
#        "C:\LEO\myGit\MTK
#        IOT\SDK_V4.2.0\out_iar\mt7697_hdk\iot_sdk_demo\Debug\Obj\wifi_ex_profile.o"
#        "C:\LEO\myGit\MTK
#        IOT\SDK_V4.2.0\out_iar\mt7697_hdk\iot_sdk_demo\Debug\Obj\wifi_inband_cli.o"
#        "C:\LEO\myGit\MTK
#        IOT\SDK_V4.2.0\out_iar\mt7697_hdk\iot_sdk_demo\Debug\Obj\wifi_init.o"
#        "C:\LEO\myGit\MTK
#        IOT\SDK_V4.2.0\out_iar\mt7697_hdk\iot_sdk_demo\Debug\Obj\wifi_lwip_helper.o"
#        "C:\LEO\myGit\MTK
#        IOT\SDK_V4.2.0\out_iar\mt7697_hdk\iot_sdk_demo\Debug\Obj\wifi_nvdm_config.o"
#        "C:\LEO\myGit\MTK
#        IOT\SDK_V4.2.0\out_iar\mt7697_hdk\iot_sdk_demo\Debug\Obj\wifi_os_api.o"
#        "C:\LEO\myGit\MTK
#        IOT\SDK_V4.2.0\out_iar\mt7697_hdk\iot_sdk_demo\Debug\Obj\wifi_private_cli.o"
#        "C:\LEO\myGit\MTK
#        IOT\SDK_V4.2.0\out_iar\mt7697_hdk\iot_sdk_demo\Debug\Obj\wifi_profile.o"
#        "C:\LEO\myGit\MTK
#        IOT\SDK_V4.2.0\out_iar\mt7697_hdk\iot_sdk_demo\Debug\Obj\wifi_wps.o"
#        "C:\LEO\myGit\MTK
#        IOT\SDK_V4.2.0\out_iar\mt7697_hdk\iot_sdk_demo\Debug\Obj\write.o"
#        "C:\LEO\myGit\MTK
#        IOT\SDK_V4.2.0\out_iar\mt7697_hdk\iot_sdk_demo\Debug\Obj\x509.o"
#        "C:\LEO\myGit\MTK
#        IOT\SDK_V4.2.0\out_iar\mt7697_hdk\iot_sdk_demo\Debug\Obj\x509_create.o"
#        "C:\LEO\myGit\MTK
#        IOT\SDK_V4.2.0\out_iar\mt7697_hdk\iot_sdk_demo\Debug\Obj\x509_crl.o"
#        "C:\LEO\myGit\MTK
#        IOT\SDK_V4.2.0\out_iar\mt7697_hdk\iot_sdk_demo\Debug\Obj\x509_crt.o"
#        "C:\LEO\myGit\MTK
#        IOT\SDK_V4.2.0\out_iar\mt7697_hdk\iot_sdk_demo\Debug\Obj\x509_csr.o"
#        "C:\LEO\myGit\MTK
#        IOT\SDK_V4.2.0\out_iar\mt7697_hdk\iot_sdk_demo\Debug\Obj\x509write_crt.o"
#        "C:\LEO\myGit\MTK
#        IOT\SDK_V4.2.0\out_iar\mt7697_hdk\iot_sdk_demo\Debug\Obj\x509write_csr.o"
#        "C:\LEO\myGit\MTK
#        IOT\SDK_V4.2.0\out_iar\mt7697_hdk\iot_sdk_demo\Debug\Obj\xtea.o"
#        --redirect _Printf=_PrintfSmall --redirect _Scanf=_ScanfSmall -o
#        "C:\LEO\myGit\MTK
#        IOT\SDK_V4.2.0\out_iar\mt7697_hdk\iot_sdk_demo\Debug\Exe\iot_sdk_demo.out"
#        --keep __bootloader "--image_input=C:\LEO\myGit\MTK
#        IOT\SDK_V4.2.0\project\mt7697_hdk\apps\iot_sdk_demo\EWARM\..\..\..\..\..\tools\iar\mt7697\bootloader\bootloader.bin,__bootloader,.bootloader,8"
#        --map "C:\LEO\myGit\MTK
#        IOT\SDK_V4.2.0\out_iar\mt7697_hdk\iot_sdk_demo\Debug\List\iot_sdk_demo.map"
#        --config "C:\LEO\myGit\MTK
#        IOT\SDK_V4.2.0\project\mt7697_hdk\apps\iot_sdk_demo\EWARM\flash.icf"
#        --redirect malloc=pvPortMalloc --redirect calloc=pvPortCalloc
#        --redirect realloc=pvPortRealloc --redirect free=vPortFree --entry
#        __iar_program_start --vfe
#
###############################################################################

*******************************************************************************
*** RUNTIME MODEL ATTRIBUTES
***

CppFlavor                     = *
__SystemLibrary               = DLib
__dlib_dynamic_initialization = normal


*******************************************************************************
*** PLACEMENT SUMMARY
***

"P1":  place in [from 0x10000000 to 0x10008000] { section .bootloader };
"A0":  place at start of [0x10010000-0x10078fff] { block N9_BIN_BLOCK };
"A1":  place at start of [0x10079000-0x100790ff] { section .reset_handler };
"A2":  place at start of [0x10079100-0x10138000] { block ROM_BLOCK };
"P2":  place in [from 0x00100000 to 0x00110000] { block TCM_BLOCK };
"A3":  place at start of [0x20000400-0x20040000] { block RAM_BLOCK };
"A4":  place at end of [0x20000400-0x20040000] { block CSTACK };
initialize by copy { section .ramTEXT };
initialize by copy { rw };
 { section .n9fw };

  Section                Kind        Address     Size  Object
  -------                ----        -------     ----  ------
"P2":                                          0x2d8c
  TCM_BLOCK                       0x00100000   0x2d8c  <Block>
    section .ramTEXT-1            0x00100000   0x2508  <Init block>
      Veneer             inited   0x00100000      0x8  - Linker created -
      Veneer             inited   0x00100008      0x8  - Linker created -
      Veneer             inited   0x00100010      0x8  - Linker created -
      Veneer             inited   0x00100018      0x8  - Linker created -
      Veneer             inited   0x00100020      0x8  - Linker created -
      Veneer             inited   0x00100028      0x8  - Linker created -
      Veneer             inited   0x00100030      0x8  - Linker created -
      Veneer             inited   0x00100038      0x8  - Linker created -
      Veneer             inited   0x00100040      0x8  - Linker created -
      .ramTEXT           inited   0x00100048    0x328  flash_sfc.o [1]
      Veneer             inited   0x00100370      0x8  - Linker created -
      Veneer             inited   0x00100378      0x8  - Linker created -
      Veneer             inited   0x00100380      0x8  - Linker created -
      .ramTEXT           inited   0x00100388     0x78  hal_nvic.o [1]
      Veneer             inited   0x00100400      0x8  - Linker created -
      Veneer             inited   0x00100408      0x8  - Linker created -
      .ramTEXT           inited   0x00100410    0x298  sfc.o [1]
      Veneer             inited   0x001006a8      0x8  - Linker created -
      Veneer             inited   0x001006b0      0x8  - Linker created -
      .ramTEXT           inited   0x001006b8    0x770  spi_flash.o [1]
      .ramTEXT           inited   0x00100e28     0x1c  startup_mt7687.o [1]
      .ramTEXT           inited   0x00100e44     0x1c  startup_mt7687.o [1]
      .ramTEXT           inited   0x00100e60     0x1c  startup_mt7687.o [1]
      Veneer             inited   0x00100e7c      0x8  - Linker created -
      Veneer             inited   0x00100e84      0x8  - Linker created -
      Veneer             inited   0x00100e8c      0x8  - Linker created -
      .ramTEXT           inited   0x00100e94     0x7c  top.o [1]
      .ramTEXT           inited   0x00100f10   0x1378  sha1-internal.o [12]
      .ramTEXT           inited   0x00102288      0xe  nvic.o [1]
      .ramTEXT           inited   0x00102296     0x30  os_utils.o [1]
      Veneer             inited   0x001022c8      0x8  - Linker created -
      .ramTEXT           inited   0x001022d0    0x114  sha1-pbkdf2.o [12]
      .ramTEXT           inited   0x001023e4    0x124  sha1.o [12]
    .tcmBSS              zero     0x00102508    0x884  wpa_debug.o [12]
                                - 0x00102d8c   0x2d8c

"P1":                                          0x6880
  .bootloader            const    0x10000000   0x6880  bootloader.bin [2]
                                - 0x10006880   0x6880

"A0":                                         0x4501c
  N9_BIN_BLOCK                    0x10010000  0x4501c  <Block>
    .n9fw                const    0x10010000  0x4501c  mt76X7_n9_image.o [1]
                                - 0x1005501c  0x4501c

"A1":                                            0x4c
  .reset_handler         ro code  0x10079000     0x4c  startup_mt7687.o [1]
                                - 0x1007904c     0x4c

"A2":                                         0x9bae8
  ROM_BLOCK                       0x10079100  0x9bae8  <Block>
    .intvec                       0x10079100    0x1c0  <Block>
      .intvec            ro code  0x10079100    0x1c0  startup_mt7687.o [1]
    .text                ro code  0x100792c0   0x2648  iperf_task.o [1]
    .text                ro code  0x1007b908     0xdc  hal_gpt.o [1]
    .text                ro code  0x1007b9e4     0x42  strcmp_unaligned.o [17]
    .text                ro code  0x1007ba26      0x8  atoi.o [4]
    .text                ro code  0x1007ba2e     0x1a  xsnprout.o [4]
    .text                ro code  0x1007ba48   0x15bc  sockets.o [1]
    .text                ro code  0x1007d004    0x3f8  heap_4.o [1]
    .text                ro code  0x1007d3fc    0xe94  tasks.o [1]
    .text                ro code  0x1007e290     0x3a  ABImemset48.o [17]
    .text                ro code  0x1007e2ca     0x28  def.o [1]
    .text                ro code  0x1007e2f2     0x1e  xsscin.o [4]
    .text                ro code  0x1007e310     0x66  ABImemset.o [17]
    .text                ro code  0x1007e376      0xa  xsprout.o [4]
    .text                ro code  0x1007e380    0x2d8  ip4_addr.o [1]
    .text                ro code  0x1007e658     0x2e  DblCmpLe.o [16]
    .text                ro code  0x1007e688     0xe8  DblAdd.o [16]
    .text                ro code  0x1007e770     0x4c  DblToI32.o [16]
    .text                ro code  0x1007e7bc     0x30  I32ToDbl.o [16]
    .text                ro code  0x1007e7ec    0x180  DblSub.o [16]
    .text                ro code  0x1007e96c    0x1a2  DblMul.o [16]
    .text                ro code  0x1007eb0e     0x50  isxxx.o [4]
    .text                ro code  0x1007eb60     0x2e  DblCmpGe.o [16]
    .text                ro code  0x1007eb90    0x256  DblDiv.o [16]
    .text                ro code  0x1007ede8     0x36  strlen.o [17]
    .text                ro code  0x1007ee20     0x76  ABImemcpy_unaligned.o [17]
    .text                ro code  0x1007ee98     0x40  I64ToDbl.o [16]
    .text                ro code  0x1007eed8     0x34  sprintf.o [4]
    .text                ro code  0x1007ef0c     0x10  atof.o [16]
    .text                ro code  0x1007ef1c    0x328  gpt.o [1]
    .text                ro code  0x1007f244     0xc4  timer.o [1]
    .text                ro code  0x1007f308    0x304  top.o [1]
    .text                ro code  0x1007f60c     0x58  hal_log.o [1]
    .text                ro code  0x1007f664    0x198  xstoul.o [4]
    .text                ro code  0x1007f7fc      0xc  errno.o [4]
    .text                ro code  0x1007f808    0x3ec  sys_arch.o [1]
    .text                ro code  0x1007fbf4    0xf30  pbuf.o [1]
    .text                ro code  0x10080b24    0x158  netbuf.o [1]
    .text                ro code  0x10080c7c    0xa98  api_lib.o [1]
    .text                ro code  0x10081714     0x24  printf.o [4]
    .text                ro code  0x10081738    0x29c  tcpip.o [1]
    .text                ro code  0x100819d4    0x994  exception_handler.o [10]
    .text                ro code  0x10082368    0x2e8  port.o [1]
    .text                ro code  0x10082650     0x90  list.o [1]
    .text                ro code  0x100826e0    0x4b8  timers.o [1]
    .text                ro code  0x10082b98     0x84  os_port_callback.o [1]
    .text                ro code  0x10082c1c     0x62  memcmp_unaligned.o [17]
    .text                ro code  0x10082c80     0x44  strcpy_unaligned.o [17]
    .text                ro code  0x10082cc4     0x54  setlocale.o [4]
    .text                ro code  0x10082d18     0x16  xlocale_c.o [4]
    .text                ro code  0x10082d2e     0x24  xlocale_c.o [4]
    .text                ro code  0x10082d52     0x14  xlocale_c.o [4]
    .text                ro code  0x10082d66      0xa  xlocale_c.o [4]
    .text                ro code  0x10082d70    0x7c4  xprintfsmall.o [4]
    .text                ro code  0x10083534    0x168  xstod.o [16]
    Veneer               ro code  0x1008369c      0x8  - Linker created -
    Veneer               ro code  0x100836a4      0x8  - Linker created -
    .text                ro code  0x100836ac     0x88  hal_nvic.o [1]
    .text                ro code  0x10083734     0x8c  system_mt7687.o [1]
    .text                ro code  0x100837c0    0xb18  syslog.o [10]
    .text                ro code  0x100842d8     0x14  tolower.o [4]
    .text                ro code  0x100842ec     0x58  memchr.o [17]
    .text                ro code  0x10084344      0x2  xtls.o [4]
    .text                ro code  0x10084348    0xb04  queue.o [1]
    .text                ro code  0x10084e4c     0xe0  rand.o [4]
    .text                ro code  0x10084f2c     0x20  srand.o [4]
    .text                ro code  0x10084f4c   0x1454  tcp.o [1]
    .text                ro code  0x100863a0    0x6cc  mem.o [1]
    .text                ro code  0x10086a6c   0x19ac  api_msg.o [1]
    .text                ro code  0x10088418    0x334  lwip_timers.o [1]
    .text                ro code  0x1008874c    0xd34  etharp.o [1]
    .text                ro code  0x10089480    0x51c  ip4.o [1]
    .text                ro code  0x1008999c     0x26  init.o [1]
    .text                ro code  0x100899c4     0x20  port_tick.o [1]
    CODE                 ro code  0x100899e4     0xa8  portasm.o [1]
    .text                ro code  0x10089a8c     0x20  xmbtowc.o [4]
    .text                ro code  0x10089aac     0x16  strchr.o [17]
    .text                ro code  0x10089ac2      0xa  xmbcurmax.o [4]
    .text                ro code  0x10089acc     0x1a  xwctomb.o [4]
    .text                ro code  0x10089ae6    0x122  xstopfx.o [4]
    .text                ro code  0x10089c08    0x1b8  xstoflt.o [4]
    .text                ro code  0x10089dc0    0x200  xdtento.o [16]
    .text                ro code  0x10089fc0    0x218  xstoxflt.o [4]
    .text                ro code  0x1008a1d8    0x114  xdscale.o [16]
    .text                ro code  0x1008a2ec    0x61c  hal_uart.o [1]
    .text                ro code  0x1008a908     0x18  vprintf.o [4]
    .text                ro code  0x1008a920     0x3c  vsnprint.o [4]
    .text                ro code  0x1008a95c    0x136  toi.o [10]
    .text                ro code  0x1008aa94     0x44  snprintf.o [4]
    .text                ro code  0x1008aad8      0xc  xlocale_c.o [4]
    .text                ro code  0x1008aae4   0x13d4  tcp_out.o [1]
    .text                ro code  0x1008beb8   0x1a38  tcp_in.o [1]
    .text                ro code  0x1008d8f0    0x2d4  raw.o [1]
    .text                ro code  0x1008dbc4    0x65c  udp.o [1]
    .text                ro code  0x1008e220    0x9ac  dns.o [1]
    .text                ro code  0x1008ebcc    0x9c4  ip_frag.o [1]
    .text                ro code  0x1008f590   0x1788  dhcp.o [1]
    .text                ro code  0x10090d18    0x17c  inet_chksum.o [1]
    .text                ro code  0x10090e94    0x430  icmp.o [1]
    .text                ro code  0x100912c4    0x540  netif.o [1]
    .text                ro code  0x10091804      0x2  stats.o [1]
    .text                ro code  0x10091808     0x60  xencoding_sb.o [4]
    .text                ro code  0x10091868     0x6c  localeconv.o [4]
    .text                ro code  0x100918d4     0x44  xdnorm.o [16]
    .text                ro code  0x10091918     0x20  DblCmpEq.o [16]
    .text                ro code  0x10091938     0x56  xdunscal.o [16]
    .text                ro code  0x10091990    0x3d4  uart.o [1]
    .text                ro code  0x10091d64     0x38  hal_sleep_manager.o [8]
    .text                ro code  0x10091d9c    0x5d8  dma.o [1]
    .text                ro code  0x10092374    0x194  hal_sleep_driver.o [8]
    .text                ro code  0x10092508   0x15f8  sha512.o [1]
    Veneer               ro code  0x10093b00      0x8  - Linker created -
    .ram_code            ro code  0x10093b08    0x100  exception_handler.o [10]
    .rodata              const    0x10093c08    0x200  aes.o [1]
    .rodata              const    0x10093e08     0x90  ble_gpio_service.o [1]
    .rodata              const    0x10093e98     0x50  ble_smtcn.o [1]
    .rodata              const    0x10093ee8     0x38  bt_debug.o [1]
    .rodata              const    0x10093f20    0x47c  bt_gattc_handle_op.o [1]
    .rodata              const    0x1009439c    0x318  cipher_wrap.o [1]
    .rodata              const    0x100946b4    0x220  cli_cmds.o [1]
    .rodata              const    0x100948d4      0x8  connsys_bus.o [1]
    .rodata              const    0x100948dc     0x34  dhcpd.o [1]
    .rodata              const    0x10094910     0x18  elian.o [1]
    .rodata              const    0x10094928    0x124  gatt_service.o [1]
    .rodata              const    0x10094a4c     0x78  gpio_cli.o [1]
    .rodata              const    0x10094ac4      0x4  hal_log.o [1]
    .rodata              const    0x10094ac8      0xc  httpclient.o [1]
    .rodata              const    0x10094ad4      0x8  ip4_addr.o [1]
    .rodata              const    0x10094adc     0x34  iperf_cli.o [1]
    .rodata              const    0x10094b10     0x44  iperf_task.o [1]
    .rodata              const    0x10094b54     0x54  lp_ex_sleep.o [1]
    .rodata              const    0x10094ba8      0x8  lwip_log.o [1]
    .rodata              const    0x10094bb0      0x4  mcs.o [1]
    .rodata              const    0x10094bb4    0x14c  md_wrap.o [1]
    .rodata              const    0x10094d00     0x64  memory_regions.o [1]
    .rodata              const    0x10094d64     0x20  memp.o [1]
    .rodata              const    0x10094d84     0x3c  nvdm_cli.o [1]
    .rodata              const    0x10094dc0    0x9b4  oid.o [1]
    .rodata              const    0x10095774     0x50  os_cli.o [1]
    .rodata              const    0x100957c4     0x34  pk_wrap.o [1]
    .rodata              const    0x100957f8      0x8  smt_api.o [1]
    .rodata              const    0x10095800     0x9c  spi_flash.o [1]
    .rodata              const    0x1009589c    0x195  ssl_ciphersuites.o [1]
    .rodata              const    0x10095a34      0x8  sys_init.o [1]
    .rodata              const    0x10095a3c     0x14  syslog_cli.o [1]
    .rodata              const    0x10095a50     0x1a  uart.o [1]
    .rodata              const    0x10095a6c    0x548  ut_app.o [1]
    .rodata              const    0x10095fb4      0xc  wifi_cli.o [1]
    .rodata              const    0x10095fc0    0x104  wifi_ex_cli.o [1]
    .rodata              const    0x100960c4    0x364  wifi_ex_config.o [1]
    .rodata              const    0x10096428    0x108  wifi_ex_connect.o [1]
    .rodata              const    0x10096530    0x338  wifi_ex_profile.o [1]
    .rodata              const    0x10096868    0x19c  wifi_inband_cli.o [1]
    .rodata              const    0x10096a04      0x8  wifi_init.o [1]
    .rodata              const    0x10096a0c    0x37c  wifi_nvdm_config.o [1]
    .rodata              const    0x10096d88    0x418  x509_crt.o [1]
    .rodata              const    0x100971a0     0xf4  bt_gatts.o [5]
    .rodata              const    0x10097294      0x8  syslog.o [10]
    .rodata              const    0x1009729c      0x4  syslog.o [10]
    .rodata              const    0x100972a0      0x4  syslog.o [10]
    .rodata              const    0x100972a4      0x8  syslog.o [10]
    .rodata              const    0x100972ac      0x8  syslog.o [10]
    .rodata              const    0x100972b4      0x8  syslog.o [10]
    .rodata              const    0x100972bc     0x20  syslog.o [10]
    .rodata              const    0x100972dc     0x30  syslog.o [10]
    .rodata              const    0x1009730c     0x24  syslog.o [10]
    .rodata              const    0x10097330      0x8  syslog.o [10]
    .rodata              const    0x10097338      0x8  syslog.o [10]
    .rodata              const    0x10097340      0x8  syslog.o [10]
    .rodata              const    0x10097348      0x8  syslog.o [10]
    .rodata              const    0x10097350      0x8  syslog.o [10]
    .rodata              const    0x10097358     0x20  syslog.o [10]
    .rodata              const    0x10097378      0x8  syslog.o [10]
    .rodata              const    0x10097380     0x28  syslog.o [10]
    .rodata              const    0x100973a8     0x14  syslog.o [10]
    .rodata              const    0x100973bc     0x18  syslog.o [10]
    .rodata              const    0x100973d4     0x44  syslog.o [10]
    .rodata              const    0x10097418     0x3c  syslog.o [10]
    .rodata              const    0x10097454     0x44  syslog.o [10]
    .rodata              const    0x10097498    0x330  wifi_api.o [15]
    .rodata              const    0x100977c8     0x38  minisupp_cli.o [12]
    .rodata              const    0x10097800     0x28  exception_handler.o [10]
    .rodata              const    0x10097828     0x10  exception_handler.o [10]
    .rodata              const    0x10097838     0x14  exception_handler.o [10]
    .rodata              const    0x1009784c     0x14  exception_handler.o [10]
    .rodata              const    0x10097860     0x14  exception_handler.o [10]
    .rodata              const    0x10097874     0x18  exception_handler.o [10]
    .rodata              const    0x1009788c     0x10  exception_handler.o [10]
    .rodata              const    0x1009789c     0x18  exception_handler.o [10]
    .rodata              const    0x100978b4     0x1c  exception_handler.o [10]
    .rodata              const    0x100978d0     0x40  exception_handler.o [10]
    .rodata              const    0x10097910     0x38  exception_handler.o [10]
    .rodata              const    0x10097948     0x3c  exception_handler.o [10]
    .rodata              const    0x10097984     0x20  exception_handler.o [10]
    .rodata              const    0x100979a4     0x40  exception_handler.o [10]
    .rodata              const    0x100979e4     0x18  exception_handler.o [10]
    .rodata              const    0x100979fc      0xc  exception_handler.o [10]
    .rodata              const    0x10097a08     0x3c  exception_handler.o [10]
    .rodata              const    0x10097a44     0x38  exception_handler.o [10]
    .rodata              const    0x10097a7c     0x38  exception_handler.o [10]
    .rodata              const    0x10097ab4     0x2c  exception_handler.o [10]
    .rodata              const    0x10097ae0     0x34  exception_handler.o [10]
    .rodata              const    0x10097b14     0x38  exception_handler.o [10]
    .rodata              const    0x10097b4c     0x18  exception_handler.o [10]
    .rodata              const    0x10097b64     0x10  exception_handler.o [10]
    .rodata              const    0x10097b74     0x10  exception_handler.o [10]
    .rodata              const    0x10097b84     0x10  exception_handler.o [10]
    .rodata              const    0x10097b94     0x10  exception_handler.o [10]
    .rodata              const    0x10097ba4     0x10  exception_handler.o [10]
    .rodata              const    0x10097bb4     0x10  exception_handler.o [10]
    .rodata              const    0x10097bc4     0x10  exception_handler.o [10]
    .rodata              const    0x10097bd4     0x10  exception_handler.o [10]
    .rodata              const    0x10097be4     0x10  exception_handler.o [10]
    .rodata              const    0x10097bf4     0x10  exception_handler.o [10]
    .rodata              const    0x10097c04     0x10  exception_handler.o [10]
    .rodata              const    0x10097c14     0x10  exception_handler.o [10]
    .rodata              const    0x10097c24     0x10  exception_handler.o [10]
    .rodata              const    0x10097c34     0x10  exception_handler.o [10]
    .rodata              const    0x10097c44     0x10  exception_handler.o [10]
    .rodata              const    0x10097c54     0x10  exception_handler.o [10]
    .rodata              const    0x10097c64     0x14  exception_handler.o [10]
    .rodata              const    0x10097c78     0x10  exception_handler.o [10]
    .rodata              const    0x10097c88     0x10  exception_handler.o [10]
    .rodata              const    0x10097c98     0x10  exception_handler.o [10]
    .rodata              const    0x10097ca8     0x10  exception_handler.o [10]
    .rodata              const    0x10097cb8     0x10  exception_handler.o [10]
    .rodata              const    0x10097cc8     0x10  exception_handler.o [10]
    .rodata              const    0x10097cd8     0x10  exception_handler.o [10]
    .rodata              const    0x10097ce8     0x10  exception_handler.o [10]
    .rodata              const    0x10097cf8     0x10  exception_handler.o [10]
    .rodata              const    0x10097d08     0x10  exception_handler.o [10]
    .rodata              const    0x10097d18     0x10  exception_handler.o [10]
    .rodata              const    0x10097d28     0x10  exception_handler.o [10]
    .rodata              const    0x10097d38     0x10  exception_handler.o [10]
    .rodata              const    0x10097d48     0x10  exception_handler.o [10]
    .rodata              const    0x10097d58     0x10  exception_handler.o [10]
    .rodata              const    0x10097d68     0x10  exception_handler.o [10]
    .rodata              const    0x10097d78     0x10  exception_handler.o [10]
    .rodata              const    0x10097d88     0x10  exception_handler.o [10]
    .rodata              const    0x10097d98     0x10  exception_handler.o [10]
    .rodata              const    0x10097da8     0x10  exception_handler.o [10]
    .rodata              const    0x10097db8     0x10  exception_handler.o [10]
    .rodata              const    0x10097dc8     0x10  exception_handler.o [10]
    .rodata              const    0x10097dd8     0x10  exception_handler.o [10]
    .rodata              const    0x10097de8     0x10  exception_handler.o [10]
    .rodata              const    0x10097df8     0x10  exception_handler.o [10]
    .rodata              const    0x10097e08     0x10  exception_handler.o [10]
    .rodata              const    0x10097e18     0x10  exception_handler.o [10]
    .rodata              const    0x10097e28     0x10  exception_handler.o [10]
    .rodata              const    0x10097e38     0x10  exception_handler.o [10]
    .rodata              const    0x10097e48     0x10  exception_handler.o [10]
    .rodata              const    0x10097e58     0x10  exception_handler.o [10]
    .rodata              const    0x10097e68     0x10  exception_handler.o [10]
    .rodata              const    0x10097e78     0x14  exception_handler.o [10]
    .rodata              const    0x10097e8c     0x14  exception_handler.o [10]
    .rodata              const    0x10097ea0     0x14  exception_handler.o [10]
    .rodata              const    0x10097eb4     0x14  exception_handler.o [10]
    .rodata              const    0x10097ec8     0x14  exception_handler.o [10]
    .rodata              const    0x10097edc     0x20  exception_handler.o [10]
    .rodata              const    0x10097efc     0x1c  exception_handler.o [10]
    .rodata              const    0x10097f18     0x1c  exception_handler.o [10]
    .rodata              const    0x10097f34     0x18  exception_handler.o [10]
    .rodata              const    0x10097f4c     0x14  exception_handler.o [10]
    .rodata              const    0x10097f60     0x18  exception_handler.o [10]
    .rodata              const    0x10097f78     0x20  exception_handler.o [10]
    .rodata              const    0x10097f98     0x1c  exception_handler.o [10]
    .rodata              const    0x10097fb4     0x1c  exception_handler.o [10]
    .rodata              const    0x10097fd0     0x30  wpa_supplicant_entry.o [12]
    .rodata              const    0x10098000      0xc  wpa_debug.o [12]
    .rodata              const    0x1009800c     0x10  bt_gap_init.o [5]
    .rodata              const    0x1009801c     0x68  bt_smp.o [5]
    .rodata              const    0x10098084    0x218  driver_inband.o [12]
    .rodata              const    0x1009829c    0x910  bt_sm.o [5]
    .rodata              const    0x10098bac    0x1ec  driver_none.o [12]
    .rodata              const    0x10098d98    0x500  aes-internal.o [12]
    .text                ro code  0x10099298   0x2b60  aes.o [1]
    .text                ro code  0x1009bdf8     0xc6  arc4.o [1]
    .text                ro code  0x1009bec0    0x33a  asn1parse.o [1]
    .text                ro code  0x1009c1fc   0x1c86  bignum.o [1]
    .text                ro code  0x1009de84    0x1a0  base64.o [1]
    .text                ro code  0x1009e024    0x620  ble_gpio_client.o [1]
    .text                ro code  0x1009e644    0x258  bt_debug.o [1]
    .text                ro code  0x1009e89c    0x514  bt_gattc_srv.o [1]
    .text                ro code  0x1009edb0      0x6  ABImemclr4.o [17]
    .text                ro code  0x1009edb8   0x1664  bt_gattc_handle_op.o [1]
    .text                ro code  0x100a041c      0x4  x509_crt.o [1]
    .text                ro code  0x100a0420    0x850  bt_gap_le_adv.o [5]
    .text                ro code  0x100a0c70    0x5b0  bt_gattc_connect.o [1]
    .text                ro code  0x100a1220    0xe64  bt_gattc.o [5]
    .text                ro code  0x100a2084     0xe0  bt_uuid.o [5]
    .text                ro code  0x100a2164    0x33c  connection_info.o [1]
    Veneer               ro code  0x100a24a0      0x8  - Linker created -
    .text                ro code  0x100a24a8   0x19d8  mcs.o [1]
    .text                ro code  0x100a3e80     0x2e  strstr.o [4]
    .text                ro code  0x100a3eb0    0x358  bt_platform.o [5]
    Veneer               ro code  0x100a4208      0x8  - Linker created -
    .text                ro code  0x100a4210   0x3fc4  ut_app.o [1]
    .text                ro code  0x100a81d4    0x214  bt_common.o [5]
    .text                ro code  0x100a83e8   0x1420  bt_hci.o [5]
    .text                ro code  0x100a9808     0xd0  bt_gap_le_multi_adv.o [6]
    .text                ro code  0x100a98d8    0x874  bt_memory.o [5]
    .text                ro code  0x100aa14c     0x6a  bt_linknode.o [5]
    .text                ro code  0x100aa1b8   0x2990  bt_gap_le.o [5]
    .text                ro code  0x100acb48    0x560  bt_att.o [5]
    .text                ro code  0x100ad0a8     0x4c  strtok.o [4]
    .text                ro code  0x100ad0f4     0x3d  strtok_r.o [4]
    .text                ro code  0x100ad132     0x1c  strcat.o [4]
    .text                ro code  0x100ad150   0x24c8  httpclient.o [1]
    .text                ro code  0x100af618    0x17c  hal_gpio.o [1]
    .text                ro code  0x100af794    0x4f0  wifi_lwip_helper.o [1]
    .text                ro code  0x100afc84   0x1228  ble_smtcn.o [1]
    .text                ro code  0x100b0eac    0x2e8  hal_eint.o [1]
    .text                ro code  0x100b1194     0x2c  strncmp.o [4]
    .text                ro code  0x100b11c0     0xb8  os_utils.o [1]
    .text                ro code  0x100b1278    0xfa0  nvdm_data.o [13]
    .text                ro code  0x100b2218    0x208  bt_os_layer_api.o [1]
    .text                ro code  0x100b2420    0x240  bt_task.o [1]
    .text                ro code  0x100b2660    0x298  bt_timer.o [5]
    .text                ro code  0x100b28f8     0x8a  bt_hci_log.o [1]
    .text                ro code  0x100b2984     0x88  bt_driver_lib_verno.o [7]
    .text                ro code  0x100b2a0c     0x84  bt_stack_lib_verno.o [5]
    .text                ro code  0x100b2a90    0xbb0  bt_driver.o [7]
    .text                ro code  0x100b3640     0x24  sscanf.o [4]
    .text                ro code  0x100b3664   0x1598  bt_gatts.o [5]
    .text                ro code  0x100b4bfc      0x4  strtoul.o [4]
    .text                ro code  0x100b4c00    0x970  bt_l2cap_le.o [5]
    .text                ro code  0x100b5570    0xb44  bt_gap_init.o [5]
    .text                ro code  0x100b60b4    0x5a8  bt_smp.o [5]
    .text                ro code  0x100b665c     0x24  strspn.o [4]
    .text                ro code  0x100b6680     0x24  strcspn.o [4]
    .text                ro code  0x100b66a4    0x23c  netdb.o [1]
    .text                ro code  0x100b68e0   0x4574  ssl_tls.o [1]
    .text                ro code  0x100bae54     0x78  ABImemmove_unaligned.o [17]
    .text                ro code  0x100baecc     0x4e  strncasecmp.o [4]
    .text                ro code  0x100baf1c    0x638  debug.o [1]
    .text                ro code  0x100bb554    0x1a4  net.o [1]
    .text                ro code  0x100bb6f8   0x1c6c  x509_crt.o [1]
    .text                ro code  0x100bd364    0x22c  pk.o [1]
    .text                ro code  0x100bd590    0x404  ctr_drbg.o [1]
    .text                ro code  0x100bd994    0x2a4  entropy.o [1]
    .text                ro code  0x100bdc38    0x52c  pkparse.o [1]
    .text                ro code  0x100be164     0xc8  pinmux.o [1]
    .text                ro code  0x100be22c     0x98  low_hal_gpio.o [1]
    .text                ro code  0x100be2c4    0xdf8  ethernetif.o [1]
    .text                ro code  0x100bf0bc   0x2670  wifi_api.o [15]
    .text                ro code  0x100c172c    0x158  wifi_private_api.o [15]
    .text                ro code  0x100c1884   0x12e0  wifi_nvdm_config.o [1]
    .text                ro code  0x100c2b64   0x1cbc  dhcpd.o [1]
    .text                ro code  0x100c4820    0x354  nvdm_port.o [1]
    .text                ro code  0x100c4b74   0x1368  nvdm_main.o [13]
    .text                ro code  0x100c5edc     0x98  hci_log.o [1]
    .text                ro code  0x100c5f74    0x648  xscanfsmall.o [4]
    .text                ro code  0x100c65bc    0x140  gatt_service.o [1]
    .text                ro code  0x100c66fc    0x188  bt_cmac.o [5]
    .text                ro code  0x100c6884     0x34  fprintf.o [4]
    .text                ro code  0x100c68b8   0x3978  bt_sm.o [5]
    .text                ro code  0x100ca230    0xb30  md5.o [1]
    .text                ro code  0x100cad60   0x1308  sha1.o [1]
    .text                ro code  0x100cc068    0x2ce  md.o [1]
    .text                ro code  0x100cc338    0x4c4  cipher.o [1]
    .text                ro code  0x100cc7fc    0x4c0  ssl_ciphersuites.o [1]
    .text                ro code  0x100cccbc    0xbdc  sha256.o [1]
    .text                ro code  0x100cd898   0x1e78  ssl_cli.o [1]
    .text                ro code  0x100cf710    0x63c  x509.o [1]
    .text                ro code  0x100cfd4c    0x6d4  oid.o [1]
    .text                ro code  0x100d0420    0x560  pem.o [1]
    .text                ro code  0x100d0980    0xbec  rsa.o [1]
    .text                ro code  0x100d156c    0x310  hal_pinmux.o [1]
    .text                ro code  0x100d187c    0xee4  hal_gpio_7687.o [1]
    .text                ro code  0x100d2760   0x1088  connsys_bus.o [1]
    .text                ro code  0x100d37e8   0x1a70  connsys_driver.o [1]
    .text                ro code  0x100d5258   0x375c  connsys_util.o [1]
    .text                ro code  0x100d89b4    0xde4  inband_queue.o [15]
    .text                ro code  0x100d9798    0x144  net_task.o [15]
    .text                ro code  0x100d98dc    0xfe8  wifi_init.o [1]
    .text                ro code  0x100da8c4   0x103c  wifi_inband.o [15]
    .text                ro code  0x100db900   0x1e08  wifi_profile.o [1]
    .text                ro code  0x100dd708   0x1d64  wifi_scan.o [15]
    .text                ro code  0x100df46c    0x2d0  wifi_channel.o [1]
    .text                ro code  0x100df73c     0xea  os_util.o [1]
    .text                ro code  0x100df828    0x288  wifi_os_api.o [1]
    .text                ro code  0x100dfab0     0xe0  hal_efuse.o [8]
    .text                ro code  0x100dfb90    0x244  get_profile_string.o [1]
    .text                ro code  0x100dfdd4     0x6c  strncpy_unaligned.o [17]
    Veneer               ro code  0x100dfe40      0x8  - Linker created -
    Veneer               ro code  0x100dfe48      0x8  - Linker created -
    .text                ro code  0x100dfe50     0x52  hal_flash.o [1]
    .text                ro code  0x100dfea4    0x1b0  nvdm_io.o [13]
    .text                ro code  0x100e0054     0xee  I64DivMod.o [17]
    .text                ro code  0x100e0144     0x40  xwctob.o [4]
    .text                ro code  0x100e0184     0x88  xstol.o [4]
    .text                ro code  0x100e020c     0x10  gatt_command.o [1]
    .text                ro code  0x100e021c      0x4  xsyslock_nop.o [4]
    .text                ro code  0x100e0220   0x1480  des.o [1]
    .text                ro code  0x100e16a0    0x130  hal_lp.o [1]
    .text                ro code  0x100e17d0     0xf8  wpa_supplicant_task.o [12]
    .text                ro code  0x100e18c8      0x6  strtol.o [4]
    .text                ro code  0x100e18d0    0x154  misc.o [1]
    .text                ro code  0x100e1a24    0x300  hal_cache.o [1]
    .text                ro code  0x100e1d24     0x3c  hal_sys.o [1]
    Veneer               ro code  0x100e1d60      0x8  - Linker created -
    .text                ro code  0x100e1d68     0xdc  flash_sfc.o [1]
    .text                ro code  0x100e1e44      0x2  I64DivZer.o [17]
    .text                ro code  0x100e1e48    0xa44  wpa_supplicant_entry.o [12]
    .text                ro code  0x100e288c      0x4  misc.o [1]
    .text                ro code  0x100e2890    0x14c  low_hal_wdt.o [1]
    Veneer               ro code  0x100e29dc      0x8  - Linker created -
    .text                ro code  0x100e29e4   0x3604  wpa_supplicant.o [12]
    .text                ro code  0x100e5fe8    0x874  ap.o [12]
    .text                ro code  0x100e685c    0x6a0  eloop.o [12]
    .text                ro code  0x100e6efc    0xc48  bss.o [12]
    .text                ro code  0x100e7b44   0x13d8  scan.o [12]
    .text                ro code  0x100e8f1c   0x290c  driver_inband.o [12]
    .text                ro code  0x100eb828     0x26  strpbrk.o [4]
    .text                ro code  0x100eb850    0x48c  wpa_debug.o [12]
    .text                ro code  0x100ebcdc     0xc6  blacklist.o [12]
    .text                ro code  0x100ebda4   0x39fc  wpa.o [12]
    .text                ro code  0x100ef7a0    0x320  l2_packet_freertos.o [12]
    .text                ro code  0x100efac0     0xb4  notify.o [12]
    .text                ro code  0x100efb74    0x2d8  wpabuf.o [12]
    .text                ro code  0x100efe4c    0x458  config.o [12]
    .text                ro code  0x100f02a4    0x5f0  config_nvram.o [12]
    .text                ro code  0x100f0894    0x680  wpa_ie.o [12]
    .text                ro code  0x100f0f14    0x174  common.o [12]
    .text                ro code  0x100f1088    0x534  wpas_glue.o [12]
    .text                ro code  0x100f15bc   0x3024  events.o [12]
    .text                ro code  0x100f45e0      0x4  eap_register.o [12]
    .text                ro code  0x100f45e4    0x100  eap_server_methods.o [12]
    .text                ro code  0x100f46e4    0x8e8  ap_config.o [12]
    .text                ro code  0x100f4fcc   0x12bc  hostapd.o [12]
    .text                ro code  0x100f6288     0x8c  utils.o [12]
    .text                ro code  0x100f6314   0x12f0  ieee802_1x.o [12]
    .text                ro code  0x100f7604     0x4a  perror.o [4]
    .text                ro code  0x100f764e    0x534  qsort.o [4]
    .text                ro code  0x100f7b82      0x8  abs.o [4]
    .text                ro code  0x100f7b8c    0x4b4  driver_common.o [12]
    .text                ro code  0x100f8040    0xce8  sta_info.o [12]
    .text                ro code  0x100f8d28    0x2b0  ieee802_11_common.o [12]
    .text                ro code  0x100f8fd8     0x28  isprint.o [4]
    Veneer               ro code  0x100f9000      0x8  - Linker created -
    Veneer               ro code  0x100f9008      0x8  - Linker created -
    .text                ro code  0x100f9010    0x678  wpa_common.o [12]
    .text                ro code  0x100f9688     0x9e  rc4.o [12]
    .text                ro code  0x100f9726     0xb8  aes-unwrap.o [12]
    .text                ro code  0x100f97e0    0x3ac  drv_callbacks.o [12]
    .text                ro code  0x100f9b8c    0x1c0  tkip_countermeasures.o [12]
    .text                ro code  0x100f9d4c    0x2b4  eap_server_identity.o [12]
    .text                ro code  0x100fa000     0x2a  fopen.o [4]
    .text                ro code  0x100fa02a     0xce  fgets.o [4]
    .text                ro code  0x100fa0f8     0x7a  fclose.o [4]
    .text                ro code  0x100fa174    0x610  ap_drv_ops.o [12]
    .text                ro code  0x100fa784    0x634  wpa_auth_glue.o [12]
    .text                ro code  0x100fadb8     0x32  ieee802_11_auth.o [12]
    .text                ro code  0x100fadea      0x6  authsrv.o [12]
    .text                ro code  0x100fadf0    0x208  beacon.o [12]
    .text                ro code  0x100faff8   0x2e8c  wpa_auth.o [12]
    .text                ro code  0x100fde84     0xf4  md5.o [12]
    .text                ro code  0x100fdf78   0x121c  eapol_auth_sm.o [12]
    .text                ro code  0x100ff194   0x1244  eap_server.o [12]
    .text                ro code  0x101003d8    0x498  pmksa_cache_auth.o [12]
    .text                ro code  0x10100870     0x98  fputs.o [4]
    .text                ro code  0x10100908    0x110  xstrerro.o [4]
    .text                ro code  0x10100a18    0x1f8  ap_mlme.o [12]
    .text                ro code  0x10100c10     0x9e  sha1.o [12]
    .text                ro code  0x10100cb0    0x4c4  aes-internal-dec.o [12]
    .text                ro code  0x10101174    0x924  wpa_auth_ie.o [12]
    .text                ro code  0x10101a98    0x186  eap_common.o [12]
    .text                ro code  0x10101c20     0xc8  xfofind.o [4]
    .text                ro code  0x10101ce8    0x110  xfoprep.o [4]
    .text                ro code  0x10101df8     0xb8  xfrprep.o [4]
    .text                ro code  0x10101eb0     0xb0  fflush.o [4]
    .text                ro code  0x10101f60      0x4  close.o [1]
    .text                ro code  0x10101f64      0x4  remove.o [1]
    .text                ro code  0x10101f68    0x1f2  ieee802_11_shared.o [12]
    .text                ro code  0x1010215a     0xa0  aes-wrap.o [12]
    .text                ro code  0x101021fc    0x95c  md5-internal.o [12]
    .text                ro code  0x10102b58     0xb8  xfwprep.o [4]
    .text                ro code  0x10102c10     0x18  strrchr.o [4]
    .text                ro code  0x10102c28    0x4d4  aes-internal.o [12]
    .text                ro code  0x101030fc     0x54  xfopen.o [4]
    .text                ro code  0x10103150      0x6  read.o [1]
    .text                ro code  0x10103156      0x6  write.o [1]
    .text                ro code  0x1010315c    0x440  aes-internal-enc.o [12]
    .text                ro code  0x1010359c     0x22  fseek.o [4]
    .text                ro code  0x101035c0     0x1c  open.o [1]
    .text                ro code  0x101035dc     0xd6  xfspos.o [4]
    .text                ro code  0x101036b2      0xc  xfgpos.o [4]
    .text                ro code  0x101036be      0x6  lseek.o [1]
    .text                ro code  0x101036c4    0x458  ble_gpio_service.o [1]
    .text                ro code  0x10103b1c    0x1dc  board_cli.o [1]
    .text                ro code  0x10103cf8    0x104  cli.o [11]
    .text                ro code  0x10103dfc    0x69c  cli_line.o [11]
    .text                ro code  0x10104498    0x2e0  cli_cmd.o [11]
    .text                ro code  0x10104778    0x1c6  cli_tok.o [11]
    .text                ro code  0x10104940      0xc  bsp_flash_config.o [1]
    .text                ro code  0x1010494c    0x238  bsp_gpio_ept_config.o [1]
    .text                ro code  0x10104b84     0xe0  bt_cli.o [1]
    .text                ro code  0x10104c64    0x5e0  bt_init.o [1]
    .text                ro code  0x10105244     0x58  hal_trng.o [1]
    .text                ro code  0x1010529c    0x13a  cipher_wrap.o [1]
    .text                ro code  0x101053d8     0x2c  cli_cmds.o [1]
    .text                ro code  0x10105404     0xd0  cli_def.o [1]
    .text                ro code  0x101054d4    0x3b8  elian.o [1]
    .text                ro code  0x1010588c    0x674  smt_core.o [14]
    .text                ro code  0x10105f00    0x9ac  smt_api.o [1]
    .text                ro code  0x101068ac    0x3b8  hal_aes.o [1]
    .text                ro code  0x10106c64    0x164  crypt_aes.o [9]
    .text                ro code  0x10106dc8    0x160  hal_sec.o [9]
    .text                ro code  0x10106f28     0xc8  entropy_poll.o [1]
    .text                ro code  0x10106ff0    0x470  gpio_cli.o [1]
    .text                ro code  0x10107460     0x38  hal_rtc.o [1]
    .text                ro code  0x10107498     0xb8  low_hal_rtc.o [1]
    .text                ro code  0x10107550     0xf8  io_def.o [1]
    .text                ro code  0x10107648    0xc88  iperf_cli.o [1]
    Veneer               ro code  0x101082d0      0x8  - Linker created -
    Veneer               ro code  0x101082d8      0x8  - Linker created -
    .text                ro code  0x101082e0     0xb4  lp_ex_sleep.o [1]
    .text                ro code  0x10108394    0x51c  lwip_cli.o [1]
    .text                ro code  0x101088b0    0x18c  main.o [1]
    .text                ro code  0x10108a3c    0x298  sys_init.o [1]
    .text                ro code  0x10108cd4      0xe  ctime.o [4]
    .text                ro code  0x10108ce4     0xb6  localtim.o [4]
    .text                ro code  0x10108d9c     0x2c  asctime.o [4]
    .text                ro code  0x10108dc8      0xa  getzone.o [4]
    .text                ro code  0x10108dd2     0x42  xgettime.o [4]
    .text                ro code  0x10108e14    0x188  xttotm.o [4]
    .text                ro code  0x10108f9c    0x180  xlocale_c.o [4]
    .text                ro code  0x1010911c    0x10c  xstrftim.o [4]
    .text                ro code  0x10109228    0x134  xisdst.o [4]
    .text                ro code  0x1010935c    0x842  xgentime.o [4]
    .text                ro code  0x10109b9e    0x15e  xgetdst.o [4]
    .text                ro code  0x10109cfc    0x268  nvdm_cli.o [1]
    .text                ro code  0x10109f64    0x1f0  os_cli.o [1]
    .text                ro code  0x1010a154    0x6c0  ping.o [1]
    .text                ro code  0x1010a814     0x24  sys.o [1]
    .text                ro code  0x1010a838    0x134  pk_wrap.o [1]
    .text                ro code  0x1010a96c    0x198  smt_conn.o [1]
    .text                ro code  0x1010ab04    0x1ac  syslog_cli.o [1]
    .text                ro code  0x1010acb0   0x110c  ut_app_gap.o [1]
    .text                ro code  0x1010bdbc   0x27f4  wifi_cli.o [1]
    .text                ro code  0x1010e5b0   0x1130  wifi_ex_config.o [1]
    .text                ro code  0x1010f6e0   0x1304  wifi_ex_profile.o [1]
    .text                ro code  0x101109e4    0x940  wifi_inband_cli.o [1]
    .text                ro code  0x10111324      0xc  getchar.o [4]
    .text                ro code  0x10111330     0x5a  fgetc.o [4]
    .text                ro code  0x1011138c   0x1038  wifi_private_cli.o [1]
    .text                ro code  0x101123c4     0xe0  driver_none.o [12]
    .text                ro code  0x101124a4     0x22  fpinit_M.o [16]
    .text                ro code  0x101124c8     0x1a  cmain.o [17]
    .text                ro code  0x101124e2      0x4  low_level_init.o [4]
    .text                ro code  0x101124e8     0x28  data_init.o [17]
    .text                ro code  0x10112510      0x4  exit.o [4]
    .text                ro code  0x10112514      0xe  cexit.o [17]
    .text                ro code  0x10112524     0x58  xcloseall.o [4]
    .text                ro code  0x1011257c      0xc  XXexit.o [17]
    .text                ro code  0x10112588      0xc  putchar.o [4]
    .text                ro code  0x10112594      0x0  cstart_closeall.o [17]
    .text                ro code  0x10112594     0x20  cmain_call_ctors.o [17]
    .text                ro code  0x101125b4     0x18  cppinit.o [4]
    SHT$$PREINIT_ARRAY            0x101125cc      0x4  <Block>
      .prepreinit_array  const    0x101125cc      0x4  xlocale_c.o [4]
    SHT$$INIT_ARRAY               0x101125d0      0x0  <Block>
    .text                ro code  0x101125d0    0x118  md_wrap.o [1]
    .text                ro code  0x101126e8     0x5a  ping_cli.o [1]
    .text                ro code  0x10112742      0x4  startup_mt7687.o [1]
    .text                ro code  0x10112746     0x82  threading.o [1]
    .text                ro code  0x101127c8      0xa  minisupp_cli.o [12]
    .text                ro code  0x101127d2      0xc  cstartup_M.o [17]
    .text                ro code  0x101127de     0x16  xprout.o [4]
    .text                ro code  0x101127f4     0x18  xfprout.o [4]
    .text                ro code  0x1011280c     0x40  zero_init3.o [17]
    .text                ro code  0x1011284c     0x78  lz77_init_single.o [17]
    .iar.init_table      const    0x101128c4     0x3c  - Linker created -
    .rodata              const    0x10112900      0x0  zero_init3.o [17]
    .rodata              const    0x10112900      0x0  lz77_init_single.o [17]
    Initializer bytes    const    0x10112900    0x8df  <for rw-1>
    Initializer bytes    const    0x101131df   0x1a09  <for section .ramTEXT-1>
                                - 0x10114be8  0x9bae8

"A3":                                         0x3574c
  RAM_BLOCK                       0x20000400  0x3574c  <Block>
    rw-1                          0x20000400   0x219e  <Init block>
      .data              inited   0x20000400     0x20  ble_gpio_client.o [1]
      .data              inited   0x20000420      0x8  ble_gpio_client.o [1]
      .data              inited   0x20000428     0x10  ble_gpio_service.o [1]
      .data              inited   0x20000438     0x10  ble_gpio_service.o [1]
      .data              inited   0x20000448     0x10  ble_gpio_service.o [1]
      .data              inited   0x20000458     0x14  ble_smtcn.o [1]
      .data              inited   0x2000046c     0x10  ble_smtcn.o [1]
      .data              inited   0x2000047c    0x108  bt_debug.o [1]
      .data              inited   0x20000584    0x1d4  cli_cmds.o [1]
      .data              inited   0x20000758    0x414  cli_def.o [1]
      .data              inited   0x20000b6c     0x10  connsys_bus.o [1]
      .data              inited   0x20000b7c      0x4  dhcp.o [1]
      .data              inited   0x20000b80     0x50  dhcpd.o [1]
      .data              inited   0x20000bd0     0x80  dma.o [1]
      .data              inited   0x20000c50     0x38  dma.o [1]
      .data              inited   0x20000c88     0x14  elian.o [1]
      .data              inited   0x20000c9c      0x8  ethernetif.o [1]
      .data              inited   0x20000ca4     0x18  ethernetif.o [1]
      .data              inited   0x20000cbc      0x8  flash_sfc.o [1]
      .data              inited   0x20000cc4      0x4  flash_sfc.o [1]
      .data              inited   0x20000cc8    0x100  gatt_service.o [1]
      .data              inited   0x20000dc8     0x10  gatt_service.o [1]
      .data              inited   0x20000dd8     0x10  gatt_service.o [1]
      .data              inited   0x20000de8     0x18  gatt_service.o [1]
      .data              inited   0x20000e00      0xc  gatt_service.o [1]
      .data              inited   0x20000e0c     0x34  gatt_service.o [1]
      .data              inited   0x20000e40      0xc  gatt_service.o [1]
      .data              inited   0x20000e4c      0xc  gatt_service.o [1]
      .data              inited   0x20000e58     0x18  gatt_service.o [1]
      .data              inited   0x20000e70     0x70  gpio_cli.o [1]
      .data              inited   0x20000ee0     0x10  hal_log.o [1]
      .data              inited   0x20000ef0     0x10  httpclient.o [1]
      .data              inited   0x20000f00     0x40  iperf_cli.o [1]
      .data              inited   0x20000f40     0x7c  iperf_task.o [1]
      .data              inited   0x20000fbc     0x20  iperf_task.o [1]
      .data              inited   0x20000fdc     0x50  lp_ex_sleep.o [1]
      .data              inited   0x2000102c     0x10  lwip_log.o [1]
      .data              inited   0x2000103c    0x128  mcs.o [1]
      .data              inited   0x20001164     0x50  nvdm_cli.o [1]
      .data              inited   0x200011b4      0x4  open.o [1]
      .data              inited   0x200011b8     0x40  os_cli.o [1]
      .data              inited   0x200011f8     0x34  ping.o [1]
      .data              inited   0x2000122c      0xc  port.o [1]
      .data              inited   0x20001238    0x1a8  smt_api.o [1]
      .data              inited   0x200013e0     0x10  spi_flash.o [1]
      .data              inited   0x200013f0     0x10  sys_init.o [1]
      .data              inited   0x20001400     0x34  sys_init.o [1]
      .data              inited   0x20001434     0x20  syslog_cli.o [1]
      .data              inited   0x20001454      0x4  system_mt7687.o [1]
      .data              inited   0x20001458     0x9c  tasks.o [1]
      .data              inited   0x200014f4     0x20  tcp.o [1]
      .data              inited   0x20001514      0x4  threading.o [1]
      .data              inited   0x20001518      0x4  threading.o [1]
      .data              inited   0x2000151c      0x4  threading.o [1]
      .data              inited   0x20001520      0x4  threading.o [1]
      .data              inited   0x20001524      0x8  udp.o [1]
      .data              inited   0x2000152c    0x22c  ut_app.o [1]
      .data              inited   0x20001758      0x8  ut_app.o [1]
      .data              inited   0x20001760     0x78  ut_app.o [1]
      .data              inited   0x200017d8     0xcd  ut_app.o [1]
      .data              inited   0x200018a8     0x20  wifi_cli.o [1]
      .data              inited   0x200018c8     0x30  wifi_ex_cli.o [1]
      .data              inited   0x200018f8     0x30  wifi_ex_cli.o [1]
      .data              inited   0x20001928     0x20  wifi_ex_cli.o [1]
      .data              inited   0x20001948     0x40  wifi_ex_cli.o [1]
      .data              inited   0x20001988     0x60  wifi_ex_cli.o [1]
      .data              inited   0x200019e8     0xb0  wifi_ex_config.o [1]
      .data              inited   0x20001a98    0x1d0  wifi_ex_config.o [1]
      .data              inited   0x20001c68    0x180  wifi_ex_config.o [1]
      .data              inited   0x20001de8     0x50  wifi_ex_connect.o [1]
      .data              inited   0x20001e38     0x50  wifi_ex_connect.o [1]
      .data              inited   0x20001e88     0xf0  wifi_ex_profile.o [1]
      .data              inited   0x20001f78    0x100  wifi_ex_profile.o [1]
      .data              inited   0x20002078     0x10  wifi_init.o [1]
      .data              inited   0x20002088     0x18  wifi_private_cli.o [1]
      .data              inited   0x200020a0     0x10  syslog.o [10]
      .data              inited   0x200020b0      0x8  syslog.o [10]
      .data              inited   0x200020b8      0xc  syslog.o [10]
      .data              inited   0x200020c4      0x4  wifi_api.o [15]
      .data              inited   0x200020c8      0x4  exception_handler.o [10]
      .data              inited   0x200020cc      0x4  exception_handler.o [10]
      .data              inited   0x200020d0     0x90  wifi_scan.o [15]
      .data              inited   0x20002160     0x18  inband_queue.o [15]
      .data              inited   0x20002178     0x3c  wpa_supplicant_entry.o [12]
      .data              inited   0x200021b4     0x20  wpa_debug.o [12]
      .data              inited   0x200021d4     0x32  bt_driver.o [7]
      .data              inited   0x20002208      0x4  hal_sleep_driver.o [8]
      .data              inited   0x2000220c     0xa0  nvdm_data.o [13]
      .data              inited   0x200022ac      0xc  drivers.o [12]
      .data              inited   0x200022b8      0x8  eapol_auth_sm.o [12]
      .data              inited   0x200022c0     0x40  xfiles.o [4]
      .data              inited   0x20002300     0x40  xfiles.o [4]
      .data              inited   0x20002340     0x40  xfiles.o [4]
      .data              inited   0x20002380     0x20  xfiles.o [4]
      __DLIB_PERTHREAD   inited   0x200023a0     0x8c  rand.o [4]
      __DLIB_PERTHREAD   inited   0x2000242c      0x4  errno.o [4]
      __DLIB_PERTHREAD   inited   0x20002430      0x4  strtok.o [4]
      __DLIB_PERTHREAD   inited   0x20002434     0x74  setlocale.o [4]
      __DLIB_PERTHREAD   inited   0x200024a8      0x8  localtim.o [4]
      __DLIB_PERTHREAD   inited   0x200024b0     0x1c  asctime.o [4]
      __DLIB_PERTHREAD   inited   0x200024cc      0xc  xstrerro.o [4]
      __DLIB_PERTHREAD   inited   0x200024d8     0x88  localeconv.o [4]
      __DLIB_PERTHREAD   inited   0x20002560     0x2c  xttotm.o [4]
      __DLIB_PERTHREAD   inited   0x2000258c      0x4  xisdst.o [4]
      __DLIB_PERTHREAD   inited   0x20002590      0x4  xisdstData.o [4]
      .data              inited   0x20002594      0x2  gatt_command.o [1]
      .data              inited   0x20002596      0x2  gatt_service.o [1]
      .data              inited   0x20002598      0x2  tcp.o [1]
      .data              inited   0x2000259a      0x2  connsys_driver.o [1]
      .data              inited   0x2000259c      0x1  wifi_api.o [15]
      .data              inited   0x2000259d      0x1  wifi_api.o [15]
    .bss                 zero     0x200025a0    0xa40  wifi_scan.o [15]
    .bss                 zero     0x20002fe0    0x28c  wifi_scan.o [15]
    .bss                 zero     0x2000326c      0x4  ble_gpio_client.o [1]
    .bss                 zero     0x20003270      0xc  ble_gpio_service.o [1]
    .bss                 zero     0x2000327c     0x58  ble_smtcn.o [1]
    .bss                 zero     0x200032d4    0x1c0  bt_gattc_srv.o [1]
    .bss                 zero     0x20003494    0xc08  bt_init.o [1]
    .bss                 zero     0x2000409c      0x8  bt_init.o [1]
    .bss                 zero     0x200040a4      0x8  bt_os_layer_api.o [1]
    .bss                 zero     0x200040ac      0x4  bt_task.o [1]
    .bss                 zero     0x200040b0     0xb0  connection_info.o [1]
    .bss                 zero     0x20004160    0x8c0  connection_info.o [1]
    .bss                 zero     0x20004a20     0x88  connsys_driver.o [1]
    .bss                 zero     0x20004aa8     0x74  connsys_driver.o [1]
    .bss                 zero     0x20004b1c     0x74  connsys_driver.o [1]
    .bss                 zero     0x20004b90      0x4  connsys_driver.o [1]
    .bss                 zero     0x20004b94     0x48  connsys_driver.o [1]
    .bss                 zero     0x20004bdc      0x4  connsys_driver.o [1]
    .bss                 zero     0x20004be0      0x4  connsys_util.o [1]
    .bss                 zero     0x20004be4    0x410  connsys_util.o [1]
    .bss                 zero     0x20004ff4      0x4  connsys_util.o [1]
    .bss                 zero     0x20004ff8      0x4  connsys_util.o [1]
    .bss                 zero     0x20004ffc      0x4  connsys_util.o [1]
    .bss                 zero     0x20005000      0x4  connsys_util.o [1]
    .bss                 zero     0x20005004      0x4  debug.o [1]
    .bss                 zero     0x20005008     0x34  dhcp.o [1]
    .bss                 zero     0x2000503c      0x4  dhcp.o [1]
    .bss                 zero     0x20005040     0x1c  dns.o [1]
    .bss                 zero     0x2000505c    0x440  dns.o [1]
    .bss                 zero     0x2000549c     0x30  dns.o [1]
    .bss                 zero     0x200054cc     0xf0  etharp.o [1]
    .bss                 zero     0x200055bc     0x8c  ethernetif.o [1]
    .bss                 zero     0x20005648      0xc  gpt.o [1]
    .bss                 zero     0x20005654      0x4  hal_cache_internal.o [1]
    .bss                 zero     0x20005658      0x4  hal_cache_internal.o [1]
    .bss                 zero     0x2000565c     0x80  hal_cache_internal.o [1]
    .bss                 zero     0x200056dc     0x84  hal_eint.o [1]
    .bss                 zero     0x20005760     0x2c  hal_gpio_7687.o [1]
    .bss                 zero     0x2000578c     0x50  hal_gpt.o [1]
    .bss                 zero     0x200057dc      0x4  hal_lp.o [1]
    .bss                 zero     0x200057e0      0x4  hal_lp.o [1]
    .bss                 zero     0x200057e4      0x4  hal_lp.o [1]
    .bss                 zero     0x200057e8    0x300  hal_nvic.o [1]
    .bss                 zero     0x20005ae8      0x4  hal_sys.o [1]
    .bss                 zero     0x20005aec     0x60  hal_uart.o [1]
    .bss                 zero     0x20005b4c  0x14018  heap_4.o [1]
    .bss                 zero     0x20019b64      0x4  io_def.o [1]
    .bss                 zero     0x20019b68     0x80  io_def.o [1]
    .bss                 zero     0x20019be8     0x80  io_def.o [1]
    .bss                 zero     0x20019c68     0x18  ip4.o [1]
    .bss                 zero     0x20019c80     0x10  ip4_addr.o [1]
    .bss                 zero     0x20019c90      0x8  ip_frag.o [1]
    .bss                 zero     0x20019c98      0x4  lwip_timers.o [1]
    .bss                 zero     0x20019c9c      0x4  lwip_timers.o [1]
    .bss                 zero     0x20019ca0  0x1902c  mem.o [1]
    .bss                 zero     0x20032ccc      0x4  misc.o [1]
    .bss                 zero     0x20032cd0      0xc  netif.o [1]
    .bss                 zero     0x20032cdc     0x44  netif.o [1]
    .bss                 zero     0x20032d20      0x4  nvdm_port.o [1]
    .bss                 zero     0x20032d24      0x4  os_util.o [1]
    .bss                 zero     0x20032d28      0x4  pbuf.o [1]
    .bss                 zero     0x20032d2c      0x4  pbuf.o [1]
    .bss                 zero     0x20032d30     0x40  queue.o [1]
    .bss                 zero     0x20032d70      0x4  raw.o [1]
    .bss                 zero     0x20032d74      0x4  sfc.o [1]
    .bss                 zero     0x20032d78     0x90  smt_api.o [1]
    .bss                 zero     0x20032e08    0x280  sockets.o [1]
    .bss                 zero     0x20033088      0x8  sockets.o [1]
    .bss                 zero     0x20033090     0x3c  ssl_ciphersuites.o [1]
    .bss                 zero     0x200330cc     0xd0  stats.o [1]
    .bss                 zero     0x2003319c      0x8  sys_arch.o [1]
    .bss                 zero     0x200331a4    0x190  tasks.o [1]
    .bss                 zero     0x20033334     0x34  tcp_in.o [1]
    .bss                 zero     0x20033368      0xc  tcpip.o [1]
    .bss                 zero     0x20033374     0x34  timers.o [1]
    .bss                 zero     0x200333a8      0x4  timers.o [1]
    .bss                 zero     0x200333ac      0x8  top.o [1]
    .bss                 zero     0x200333b4      0x4  uart.o [1]
    .bss                 zero     0x200333b8      0x8  ut_app.o [1]
    .bss                 zero     0x200333c0     0x10  ut_app.o [1]
    .bss                 zero     0x200333d0      0x8  ut_app.o [1]
    .bss                 zero     0x200333d8     0x1c  ut_app.o [1]
    .bss                 zero     0x200333f4      0x4  ut_app.o [1]
    .bss                 zero     0x200333f8     0x10  ut_app.o [1]
    .bss                 zero     0x20033408      0x8  wifi_channel.o [1]
    .bss                 zero     0x20033410      0x4  wifi_inband_cli.o [1]
    .bss                 zero     0x20033414     0x20  wifi_init.o [1]
    .bss                 zero     0x20033434      0xc  wifi_lwip_helper.o [1]
    .bss                 zero     0x20033440    0x1d0  wifi_private_cli.o [1]
    .bss                 zero     0x20033610      0x4  syslog.o [10]
    .bss                 zero     0x20033614   0x1280  syslog.o [10]
    .bss                 zero     0x20034894      0x4  syslog.o [10]
    .bss                 zero     0x20034898      0x4  syslog.o [10]
    .bss                 zero     0x2003489c      0x4  syslog.o [10]
    .bss                 zero     0x200348a0      0x4  syslog.o [10]
    .bss                 zero     0x200348a4      0x4  syslog.o [10]
    .bss                 zero     0x200348a8      0x8  syslog.o [10]
    .bss                 zero     0x200348b0      0x4  cli.o [11]
    .bss                 zero     0x200348b4     0x9c  bt_memory.o [5]
    .bss                 zero     0x20034950      0x8  bt_memory.o [5]
    .bss                 zero     0x20034958      0x8  bt_platform.o [5]
    .bss                 zero     0x20034960      0x4  bt_platform.o [5]
    .bss                 zero     0x20034964    0x114  smt_core.o [14]
    .bss                 zero     0x20034a78     0x18  smt_core.o [14]
    .bss                 zero     0x20034a90    0x300  exception_handler.o [10]
    .bss                 zero     0x20034d90     0x34  exception_handler.o [10]
    .bss                 zero     0x20034dc4     0x10  exception_handler.o [10]
    .bss                 zero     0x20034dd4      0x4  exception_handler.o [10]
    .bss                 zero     0x20034dd8     0xd8  exception_handler.o [10]
    .bss                 zero     0x20034eb0      0xc  net_task.o [15]
    .bss                 zero     0x20034ebc      0x4  wifi_scan.o [15]
    .bss                 zero     0x20034ec0     0x80  wifi_scan.o [15]
    .bss                 zero     0x20034f40      0x4  wifi_scan.o [15]
    .bss                 zero     0x20034f44      0x8  wifi_scan.o [15]
    .bss                 zero     0x20034f4c    0x640  inband_queue.o [15]
    .bss                 zero     0x2003558c     0x38  crypt_aes.o [9]
    .bss                 zero     0x200355c4      0x4  wpa_debug.o [12]
    .bss                 zero     0x200355c8      0x4  wpa_debug.o [12]
    .bss                 zero     0x200355cc     0x18  nvdm_main.o [13]
    .bss                 zero     0x200355e4      0x4  wifi_private_api.o [15]
    .bss                 zero     0x200355e8     0xf8  wpa_supplicant_task.o [12]
    .bss                 zero     0x200356e0    0x13c  bt_common.o [5]
    .bss                 zero     0x2003581c      0xc  bt_driver.o [7]
    .bss                 zero     0x20035828      0x4  bt_timer.o [5]
    .bss                 zero     0x2003582c      0xc  hal_sleep_driver.o [8]
    .bss                 zero     0x20035838     0x80  hal_sleep_driver.o [8]
    .bss                 zero     0x200358b8     0x80  hal_sleep_driver.o [8]
    .bss                 zero     0x20035938     0x4c  eloop.o [12]
    .bss                 zero     0x20035984      0x4  wpa_supplicant.o [12]
    .bss                 zero     0x20035988     0x80  nvdm_io.o [13]
    .bss                 zero     0x20035a08     0x24  common.o [12]
    .bss                 zero     0x20035a2c      0x4  eap_server_methods.o [12]
    .bss                 zero     0x20035a30     0x50  xfiles.o [4]
    .bss                 zero     0x20035a80     0x50  xfiles.o [4]
    .bss                 zero     0x20035ad0     0x54  xlocale_c.o [4]
    .bss                 zero     0x20035b24      0x4  bt_gattc_handle_op.o [1]
    .bss                 zero     0x20035b28      0x6  hal_uart.o [1]
    .bss                 zero     0x20035b2e      0x2  ip4.o [1]
    .bss                 zero     0x20035b30      0x1  bt_cli.o [1]
    .bss                 zero     0x20035b31      0x1  connsys_driver.o [1]
    .bss                 zero     0x20035b32      0x2  connsys_util.o [1]
    .bss                 zero     0x20035b34      0x1  dhcp.o [1]
    .bss                 zero     0x20035b35      0x1  dns.o [1]
    .bss                 zero     0x20035b36      0x1  dns.o [1]
    .bss                 zero     0x20035b37      0x1  etharp.o [1]
    .bss                 zero     0x20035b38      0x2  flash_sfc.o [1]
    .bss                 zero     0x20035b3a      0x1  hal_aes.o [1]
    .bss                 zero     0x20035b3b      0x1  hal_aes.o [1]
    .bss                 zero     0x20035b3c      0x1  hal_cache.o [1]
    .bss                 zero     0x20035b3d      0x1  hal_lp.o [1]
    .bss                 zero     0x20035b3e      0x1  pbuf.o [1]
    .bss                 zero     0x20035b3f      0x1  smt_api.o [1]
    .bss                 zero     0x20035b40      0x1  wifi_init.o [1]
    .bss                 zero     0x20035b41      0x1  syslog.o [10]
    .bss                 zero     0x20035b42      0x2  wifi_api.o [15]
    .bss                 zero     0x20035b44      0x1  bt_gap_le.o [5]
    .bss                 zero     0x20035b45      0x1  bt_memory.o [5]
    .bss                 zero     0x20035b46      0x1  wifi_scan.o [15]
    .bss                 zero     0x20035b47      0x1  bt_hci.o [5]
    .bss                 zero     0x20035b48      0x1  bt_driver.o [7]
    .bss                 zero     0x20035b49      0x1  driver_inband.o [12]
                                - 0x20035b4c  0x3574c

"A4":                                           0xc00
  CSTACK                          0x2003f400    0xc00  <Block>
    CSTACK               uninit   0x2003f400    0xc00  <Block tail>
                                - 0x20040000    0xc00


*******************************************************************************
*** INIT TABLE
***

          Address     Size
          -------     ----
Zero (__iar_zero_init3)
    2 destination ranges, total size 0x33e2e:
          0x00102508    0x884
          0x200025a0  0x335aa

Copy/lz77 (__iar_lz77_init_single3)
    1 source range, total size 0x8df (26% of destination):
          0x10112900    0x8df
    1 destination range, total size 0x219e:
          0x20000400   0x219e

Copy/lz77 (__iar_lz77_init_single3)
    1 source range, total size 0x1a09 (70% of destination):
          0x101131df   0x1a09
    1 destination range, total size 0x2508:
          0x00100000   0x2508

Extra (__iar_cstart_call_ctors)



*******************************************************************************
*** MODULE SUMMARY
***

    Module                  ro code  rw code  ro data  rw data
    ------                  -------  -------  -------  -------
C:\LEO\myGit\MTK IOT\SDK_V4.2.0\out_iar\mt7697_hdk\iot_sdk_demo\Debug\Obj: [1]
    aes.o                    11 104               512
    api_lib.o                 2 712
    api_msg.o                 6 572
    arc4.o                      198
    asn1parse.o                 826
    base64.o                    416
    bignum.o                  7 302
    ble_gpio_client.o         1 568                10       44
    ble_gpio_service.o        1 112               157       60
    ble_smtcn.o               4 648                89      124
    board_cli.o                 476
    bsp_flash_config.o           12
    bsp_gpio_ept_config.o       568
    bt_cli.o                    224                          1
    bt_debug.o                  600               126      264
    bt_gattc_connect.o        1 456
    bt_gattc_handle_op.o      5 732             1 148        4
    bt_gattc_srv.o            1 300                        448
    bt_hci_log.o                138
    bt_init.o                 1 504                      3 088
    bt_os_layer_api.o           520                          8
    bt_task.o                   576                          4
    cipher.o                  1 220
    cipher_wrap.o               314               792
    cli_cmds.o                   44               667      468
    cli_def.o                   208               276    1 044
    close.o                       4
    connection_info.o           828                      2 416
    connsys_bus.o             4 232                12       16
    connsys_driver.o          6 768                 1      451
    connsys_util.o           14 172                      1 062
    ctr_drbg.o                1 028
    debug.o                   1 592                          4
    def.o                        40
    des.o                     5 248
    dhcp.o                    6 024                 1       61
    dhcpd.o                   7 356                73       80
    dma.o                     1 496                49      184
    dns.o                     2 476                      1 166
    elian.o                     952                29       20
    entropy.o                   676
    entropy_poll.o              200
    etharp.o                  3 380                        241
    ethernetif.o              3 576                 9      172
    flash_sfc.o                 220      808      571       14
    gatt_command.o               16                          2
    gatt_service.o              320               405      426
    get_profile_string.o        580
    gpio_cli.o                1 136               149      112
    gpt.o                       808                         12
    hal_aes.o                   952                          2
    hal_cache.o                 768                          1
    hal_cache_internal.o                                   136
    hal_eint.o                  744                        132
    hal_flash.o                  82
    hal_gpio.o                  380
    hal_gpio_7687.o           3 812                         44
    hal_gpt.o                   220                         80
    hal_log.o                    88                 8       16
    hal_lp.o                    304                         13
    hal_nvic.o                  136      120       84      768
    hal_pinmux.o                784
    hal_rtc.o                    56
    hal_sys.o                    60                          4
    hal_trng.o                   88
    hal_uart.o                1 564                        102
    hci_log.o                   152
    heap_4.o                  1 016                     81 944
    httpclient.o              9 416                17       16
    icmp.o                    1 072
    inet_chksum.o               380
    init.o                       38
    io_def.o                    248                        260
    ip4.o                     1 308                         26
    ip4_addr.o                  728                 8       16
    ip_frag.o                 2 500                          8
    iperf_cli.o               3 208                68       64
    iperf_task.o              9 800               110      156
    list.o                      144
    low_hal_gpio.o              152
    low_hal_rtc.o               184
    low_hal_wdt.o               332
    lp_ex_sleep.o               180               105       80
    lseek.o                       6
    lwip_cli.o                1 308
    lwip_log.o                                     12       16
    lwip_timers.o               820                          8
    main.o                      396
    mcs.o                     6 616                82      296
    md.o                        718
    md5.o                     2 864
    md_wrap.o                   280               332
    mem.o                     1 740                    102 444
    memory_regions.o                              100
    memp.o                                         32
    misc.o                      344                          4
    mt76X7_n9_image.o                         282 652
    net.o                       420
    netbuf.o                    344
    netdb.o                     572
    netif.o                   1 344                         80
    nvdm_cli.o                  616                81       80
    nvdm_port.o                 852                          4
    nvic.o                                14        9
    oid.o                     1 748             2 484
    open.o                       28                 1        4
    os_cli.o                    496                97       64
    os_port_callback.o          132
    os_util.o                   234                          4
    os_utils.o                  184       48       34
    pbuf.o                    3 888                          9
    pem.o                     1 376
    ping.o                    1 728                14       52
    ping_cli.o                   90
    pinmux.o                    200
    pk.o                        556
    pk_wrap.o                   308                52
    pkparse.o                 1 324
    port.o                      744                 3       12
    port_tick.o                  32
    portasm.o                   168
    queue.o                   2 820                         64
    raw.o                       724                          4
    read.o                        6
    remove.o                      4
    rsa.o                     3 052
    sfc.o                                664      467        4
    sha1.o                    4 872
    sha256.o                  3 036
    sha512.o                  5 624
    smt_api.o                 2 476               120      569
    smt_conn.o                  408
    sockets.o                 5 564                        648
    spi_flash.o                        1 904    1 498       16
    ssl_ciphersuites.o        1 216               405       60
    ssl_cli.o                 7 800
    ssl_tls.o                17 780
    startup_mt7687.o            528       84       59
    stats.o                       2                        208
    sys.o                        36
    sys_arch.o                1 004                          8
    sys_init.o                  664                26       68
    syslog_cli.o                428                29       32
    system_mt7687.o             140                 1        4
    tasks.o                   3 732                41      556
    tcp.o                     5 204                 8       34
    tcp_in.o                  6 712                         52
    tcp_out.o                 5 076
    tcpip.o                     668                         12
    threading.o                 130                 4       16
    timer.o                     196
    timers.o                  1 208                         56
    top.o                       772      124       87        8
    uart.o                      980                26        4
    udp.o                     1 628                 3        8
    ut_app.o                 16 324             1 586      969
    ut_app_gap.o              4 364
    wifi_channel.o              720                          8
    wifi_cli.o               10 228                21       32
    wifi_ex_cli.o                                 336      288
    wifi_ex_config.o          4 400             1 139    1 024
    wifi_ex_connect.o                             306      160
    wifi_ex_profile.o         4 868               955      496
    wifi_inband_cli.o         2 368               412        4
    wifi_init.o               4 072                12       49
    wifi_lwip_helper.o        1 264                         12
    wifi_nvdm_config.o        4 832               892
    wifi_os_api.o               648
    wifi_private_cli.o        4 152                 6      488
    wifi_profile.o            7 688
    write.o                       6
    x509.o                    1 596
    x509_crt.o                7 280             1 048
    ----------------------------------------------------------
    Total:                  347 150    3 766  300 948  204 902

C:\LEO\myGit\MTK IOT\SDK_V4.2.0\project\mt7697_hdk\apps\iot_sdk_demo\EWARM\..\..\..\..\..\tools\iar\mt7697\bootloader: [2]
    bootloader.bin                             26 752
    ----------------------------------------------------------
    Total:                                     26 752

command line: [3]
    ----------------------------------------------------------
    Total:

dl7M_tlf.a: [4]
    abs.o                         8
    asctime.o                    44                 7       28
    atoi.o                        8
    cppinit.o                    24
    ctime.o                      14
    errno.o                      12                 1        4
    exit.o                        4
    fclose.o                    122
    fflush.o                    176
    fgetc.o                      90
    fgets.o                     206
    fopen.o                      42
    fprintf.o                    52
    fputs.o                     152
    fseek.o                      34
    getchar.o                    12
    getzone.o                    10
    isprint.o                    40
    isxxx.o                      80
    localeconv.o                108                36      136
    localtim.o                  182                 2        8
    low_level_init.o              4
    perror.o                     74
    printf.o                     36
    putchar.o                    12
    qsort.o                   1 332
    rand.o                      224                37      140
    setlocale.o                  84                31      116
    snprintf.o                   68
    sprintf.o                    52
    srand.o                      32
    sscanf.o                     36
    strcat.o                     28
    strcspn.o                    36
    strncasecmp.o                78
    strncmp.o                    44
    strpbrk.o                    38
    strrchr.o                    24
    strspn.o                     36
    strstr.o                     46
    strtok.o                     76                 1        4
    strtok_r.o                   61
    strtol.o                      6
    strtoul.o                     4
    tolower.o                    20
    vprintf.o                    24
    vsnprint.o                   60
    xcloseall.o                  88
    xencoding_sb.o               96
    xfgpos.o                     12
    xfiles.o                                       59      384
    xfofind.o                   200
    xfopen.o                     84
    xfoprep.o                   272
    xfprout.o                    24
    xfrprep.o                   184
    xfspos.o                    214
    xfwprep.o                   184
    xgentime.o                2 114
    xgetdst.o                   350
    xgettime.o                   66
    xisdst.o                    308                 1        4
    xisdstData.o                                    1        4
    xlocale_c.o                 484                 4       84
    xmbcurmax.o                  10
    xmbtowc.o                    32
    xprintfsmall.o            1 988
    xprout.o                     22
    xscanfsmall.o             1 608
    xsnprout.o                   26
    xsprout.o                    10
    xsscin.o                     30
    xstoflt.o                   440
    xstol.o                     136
    xstopfx.o                   290
    xstoul.o                    408
    xstoxflt.o                  536
    xstrerro.o                  272                 3       12
    xstrftim.o                  268
    xsyslock_nop.o                4
    xtls.o                        2
    xttotm.o                    392                12       44
    xwctob.o                     64
    xwctomb.o                    26
    ----------------------------------------------------------
    Total:                   15 199               195      968

libble_iar.a: [5]
    bt_att.o                  1 376
    bt_cmac.o                   392
    bt_common.o                 532                        316
    bt_gap_init.o             2 884                16
    bt_gap_le.o              10 640                          1
    bt_gap_le_adv.o           2 128
    bt_gattc.o                3 684
    bt_gatts.o                5 528               244
    bt_hci.o                  5 152                          1
    bt_l2cap_le.o             2 416
    bt_linknode.o               106
    bt_memory.o               2 164                        165
    bt_platform.o               856                         12
    bt_sm.o                  14 712             2 320
    bt_smp.o                  1 448               104
    bt_stack_lib_verno.o        132
    bt_timer.o                  664                          4
    bt_uuid.o                   224
    ----------------------------------------------------------
    Total:                   55 038             2 684      499

libble_multi_adv_iar.a: [6]
    bt_gap_le_multi_adv.o       208
    ----------------------------------------------------------
    Total:                      208

libbtdriver_7697_iar.a: [7]
    bt_driver.o               2 992                13       63
    bt_driver_lib_verno.o       136
    ----------------------------------------------------------
    Total:                    3 128                13       63

libhal_core_CM4_IAR.a: [8]
    hal_efuse.o                 224
    hal_sleep_driver.o          404                 1      272
    hal_sleep_manager.o          56
    ----------------------------------------------------------
    Total:                      684                 1      272

libhal_protected_CM4_IAR.a: [9]
    crypt_aes.o                 356                         56
    hal_sec.o                   352
    ----------------------------------------------------------
    Total:                      708                         56

libkservice_CM4_MT7687_IAR.a: [10]
    exception_handler.o       2 708             2 002    1 064
    syslog.o                  2 840               526    4 805
    toi.o                       310
    ----------------------------------------------------------
    Total:                    5 858             2 528    5 869

libminicli_CM4_IAR.a: [11]
    cli.o                       260                          4
    cli_cmd.o                   736
    cli_line.o                1 692
    cli_tok.o                   454
    ----------------------------------------------------------
    Total:                    3 142                          4

libminisupp_CM4_IAR.a: [12]
    aes-internal-dec.o        1 220
    aes-internal-enc.o        1 088
    aes-internal.o            1 236             1 280
    aes-unwrap.o                184
    aes-wrap.o                  160
    ap.o                      2 164
    ap_config.o               2 280
    ap_drv_ops.o              1 552
    ap_mlme.o                   504
    authsrv.o                     6
    beacon.o                    520
    blacklist.o                 198
    bss.o                     3 144
    common.o                    372                         36
    config.o                  1 112
    config_nvram.o            1 520
    driver_common.o           1 204
    driver_inband.o          10 508               536        1
    driver_none.o               224               492
    drivers.o                                       3       12
    drv_callbacks.o             940
    eap_common.o                390
    eap_register.o                4
    eap_server.o              4 676
    eap_server_identity.o       692
    eap_server_methods.o        256                          4
    eapol_auth_sm.o           4 636                 2        8
    eloop.o                   1 696                         76
    events.o                 12 324
    hostapd.o                 4 796
    ieee802_11_auth.o            50
    ieee802_11_common.o         688
    ieee802_11_shared.o         498
    ieee802_1x.o              4 848
    l2_packet_freertos.o        800
    md5-internal.o            2 396
    md5.o                       244
    minisupp_cli.o               10                56
    notify.o                    180
    pmksa_cache_auth.o        1 176
    rc4.o                       158
    scan.o                    5 080
    sha1-internal.o                    4 984    3 505
    sha1-pbkdf2.o                        276      194
    sha1.o                      158      292      206
    sta_info.o                3 304
    tkip_countermeasures.o      448
    utils.o                     140
    wpa.o                    14 844
    wpa_auth.o               11 916
    wpa_auth_glue.o           1 588
    wpa_auth_ie.o             2 340
    wpa_common.o              1 656
    wpa_debug.o               1 164                21    2 220
    wpa_ie.o                  1 664
    wpa_supplicant.o         13 828                          4
    wpa_supplicant_entry.o    2 628                64       60
    wpa_supplicant_task.o       248                        248
    wpabuf.o                    728
    wpas_glue.o               1 332
    ----------------------------------------------------------
    Total:                  133 720    5 552    6 359    2 669

libnvdm_CM4_IAR.a: [13]
    nvdm_data.o               4 000                43      160
    nvdm_io.o                   432                        128
    nvdm_main.o               4 968                         24
    ----------------------------------------------------------
    Total:                    9 400                43      312

libsmtcn_CM4_IAR.a: [14]
    smt_core.o                1 652                        300
    ----------------------------------------------------------
    Total:                    1 652                        300

libwifi_CM4_IAR.a: [15]
    inband_queue.o            3 556                 6    1 624
    net_task.o                  324                         12
    wifi_api.o                9 840               818        8
    wifi_inband.o             4 156
    wifi_private_api.o          344                          4
    wifi_scan.o               7 524                38    3 565
    ----------------------------------------------------------
    Total:                   25 744               862    5 213

m7M_tls.a: [16]
    DblAdd.o                    232
    DblCmpEq.o                   32
    DblCmpGe.o                   46
    DblCmpLe.o                   46
    DblDiv.o                    598
    DblMul.o                    418
    DblSub.o                    384
    DblToI32.o                   76
    I32ToDbl.o                   48
    I64ToDbl.o                   64
    atof.o                       16
    fpinit_M.o                   34
    xdnorm.o                     68
    xdscale.o                   276
    xdtento.o                   512
    xdunscal.o                   86
    xstod.o                     360
    ----------------------------------------------------------
    Total:                    3 296

rt7M_tl.a: [17]
    ABImemclr4.o                  6
    ABImemcpy_unaligned.o       118
    ABImemmove_unaligned.o      120
    ABImemset.o                 102
    ABImemset48.o                58
    I64DivMod.o                 238
    I64DivZer.o                   2
    XXexit.o                     12
    cexit.o                      14
    cmain.o                      26
    cmain_call_ctors.o           32
    cstart_closeall.o
    cstartup_M.o                 12
    data_init.o                  40
    lz77_init_single.o          120
    memchr.o                     88
    memcmp_unaligned.o           98
    strchr.o                     22
    strcmp_unaligned.o           66
    strcpy_unaligned.o           68
    strlen.o                     54
    strncpy_unaligned.o         108
    zero_init3.o                 64
    ----------------------------------------------------------
    Total:                    1 468

    Gaps                         89        2        5        7
    Linker created              104      160      174    3 072
--------------------------------------------------------------
    Grand Total:            606 588    9 480  340 564  224 206


*******************************************************************************
*** ENTRY LIST
***

Entry                      Address     Size  Type      Object
-----                      -------     ----  ----      ------
.iar.init_table$$Base   0x101128c4            --   Gb  - Linker created -
.iar.init_table$$Limit  0x10112900            --   Gb  - Linker created -
.intvec$$Base           0x10079100            --   Gb  - Linker created -
.intvec$$Limit          0x100792c0            --   Gb  - Linker created -
?main                   0x101124c9           Code  Gb  cmain.o [17]
AtoH                    0x100ded3f     0x30  Code  Gb  wifi_scan.o [15]
BLE_SMTCN_CHAR_UUID128  0x10093e98     0x10  Data  Gb  ble_smtcn.o [1]
BT_GATT_UUID_CHARC      0x10097264     0x10  Data  Gb  bt_gatts.o [5]
BT_GATT_UUID_CHARC_USER_DESCRIPTION
                        0x10097274     0x10  Data  Gb  bt_gatts.o [5]
BT_GATT_UUID_CLIENT_CHARC_CONFIG
                        0x10097284     0x10  Data  Gb  bt_gatts.o [5]
BT_GATT_UUID_PRIMARY_SERVICE
                        0x10097254     0x10  Data  Gb  bt_gatts.o [5]
BT_MM_IS_TIMER_AVAILABLE
                        0x100a9e09     0x12  Code  Gb  bt_memory.o [5]
BT_SIG_UUID_GPIO_CONTROL
                        0x10093e18     0x10  Data  Gb  ble_gpio_service.o [1]
BT_SIG_UUID_HEARTRATE_MEASUREMENT
                        0x10093e08     0x10  Data  Gb  ble_gpio_service.o [1]
BssCipherParse          0x100ddd79    0x25a  Code  Gb  wifi_scan.o [15]
BtoH                    0x100ded11     0x2e  Code  Gb  wifi_scan.o [15]
BusFault_Handler        0x10093bf1      0xc  Code  Gb  exception_handler.o [10]
Bus_Fault_Handler       0x10082181     0x32  Code  Gb  exception_handler.o [10]
CLI_BT_SIG_UUID_APPEARANCE
                        0x10094948     0x10  Data  Gb  gatt_service.o [1]
CLI_BT_SIG_UUID_CENTRAL_ADDRESS_RESOLUTION
                        0x10094978     0x10  Data  Gb  gatt_service.o [1]
CLI_BT_SIG_UUID_DEVICE_NAME
                        0x10094938     0x10  Data  Gb  gatt_service.o [1]
CLI_BT_SIG_UUID_PERIPHERAL_PREFERRED_CONNECTION_PARAMETERS
                        0x10094958     0x10  Data  Gb  gatt_service.o [1]
CLI_BT_SIG_UUID_SERIAL_NUMBER
                        0x10094968     0x10  Data  Gb  gatt_service.o [1]
CLI_BT_SIG_UUID_SERVICE_CHANGED
                        0x10094928     0x10  Data  Gb  gatt_service.o [1]
CM4_GPT2Init            0x1007f1c9      0x8  Code  Gb  gpt.o [1]
CM4_GPT4Init            0x1007f1d1      0x8  Code  Gb  gpt.o [1]
CSTACK$$Base            0x2003f400           Data  Gb  - Linker created -
CSTACK$$Limit           0x20040000            --   Gb  - Linker created -
CachePreInit            0x1008377f     0x26  Code  Gb  system_mt7687.o [1]
CommonFault_Handler     0x10093b5d     0x62  Code  Gb  exception_handler.o [10]
DMA_Channel_Status      0x20000c4c      0x4  Data  Lc  dma.o [1]
DMA_Clock_Disable       0x10092261      0xe  Code  Gb  dma.o [1]
DMA_Clock_Enable        0x10092253      0xe  Code  Gb  dma.o [1]
DMA_ERROR_LISR          0x10091dff      0x2  Code  Gb  dma.o [1]
DMA_Init                0x100920df     0x48  Code  Gb  dma.o [1]
DMA_LISR                0x10091e31    0x2ae  Code  Gb  dma.o [1]
DMA_LISR_FUNC           0x20000c20     0x2c  Data  Gb  dma.o [1]
DMA_Owner               0x20000bdc      0xc  Data  Gb  dma.o [1]
DMA_Stop                0x10091de3     0x1c  Code  Gb  dma.o [1]
DMA_UnRegister          0x10091e01     0x2e  Code  Gb  dma.o [1]
DMA_UnRegister::__FUNCTION__
                        0x10092338     0x10  Data  Lc  dma.o [1]
DMA_VFIFO_LISR_FUNC     0x20000be8     0x38  Data  Gb  dma.o [1]
DMA_VFIFO_TO_LISR_FUNC  0x20000c50     0x38  Data  Gb  dma.o [1]
DMA_Vfifo_Flush         0x10092225     0x16  Code  Gb  dma.o [1]
DMA_Vfifo_Register_Callback
                        0x1009223b      0xc  Code  Gb  dma.o [1]
DMA_Vfifo_Register_TO_Callback
                        0x10092247      0xc  Code  Gb  dma.o [1]
DMA_Vfifo_SetAdrs       0x100921d3     0x32  Code  Gb  dma.o [1]
DMA_Vfifo_disable_interrupt
                        0x10092215     0x10  Code  Gb  dma.o [1]
DMA_Vfifo_enable_interrupt
                        0x10092205     0x10  Code  Gb  dma.o [1]
DMA_Vfifo_init          0x10092127     0xac  Code  Gb  dma.o [1]
DMA_used_channel        0x20000bd0      0xc  Data  Lc  dma.o [1]
DlListAdd               0x100d89bb      0xe  Code  Lc  inband_queue.o [15]
DlListAddTail           0x100d89c9     0x10  Code  Lc  inband_queue.o [15]
DlListDel               0x100d89d9     0x16  Code  Lc  inband_queue.o [15]
DlListEmpty             0x100d89ef      0xe  Code  Lc  inband_queue.o [15]
DlListInit              0x100d89b5      0x6  Code  Lc  inband_queue.o [15]
DlListLen               0x100d89fd     0x12  Code  Lc  inband_queue.o [15]
ESC_CHAR                0x10104779     0x62  Code  Lc  cli_tok.o [11]
EXTRA_HEADROOM_LEN_FOR_NON_QOS
                        0x2000259a      0x1  Data  Lc  connsys_driver.o [1]
EXTRA_HEADROOM_LEN_FOR_QOS_ENABLE
                        0x2000259b      0x1  Data  Lc  connsys_driver.o [1]
FSb                     0x10093c08    0x100  Data  Lc  aes.o [1]
FT0                     0x1009a158    0x400  Data  Lc  aes.o [1]
FT1                     0x1009a558    0x400  Data  Lc  aes.o [1]
FT2                     0x10099958    0x400  Data  Lc  aes.o [1]
FT3                     0x10099d58    0x400  Data  Lc  aes.o [1]
Flash_ReturnReady       0x00100113     0x7c  Code  Gb  flash_sfc.o [1]
GPTTimer                0x20005648      0xc  Data  Lc  gpt.o [1]
GPT_INT_Handler         0x1007f065     0x36  Code  Gb  gpt.o [1]
GPT_ResetTimer          0x1007ef49     0x60  Code  Gb  gpt.o [1]
GPT_Start               0x1007efa9     0x64  Code  Gb  gpt.o [1]
GPT_Stop                0x1007f00d     0x58  Code  Gb  gpt.o [1]
GPT_init                0x1007f09b     0xb4  Code  Gb  gpt.o [1]
GPT_return_current_count
                        0x1007f14f     0x54  Code  Gb  gpt.o [1]
HardFault_Handler       0x10093bd9      0xc  Code  Gb  exception_handler.o [10]
Hard_Fault_Handler      0x100820e3     0x6e  Code  Gb  exception_handler.o [10]
ISOwkyr                 0x10109401     0xb8  Code  Lc  xgentime.o [4]
K                       0x100cd758    0x100  Data  Lc  sha256.o [1]
K                       0x10093488    0x280  Data  Lc  sha512.o [1]
LHs                     0x100e0570     0x40  Data  Lc  des.o [1]
LISR                    0x20005760     0x2c  Data  Lc  hal_gpio_7687.o [1]
LoadInt                 0x100831a1     0x4c  Code  Lc  xprintfsmall.o [4]
MD5Final                0x101022e3     0x6e  Code  Gb  md5-internal.o [12]
MD5Init                 0x1010223d     0x20  Code  Gb  md5-internal.o [12]
MD5Transform            0x10102351    0x6f6  Code  Lc  md5-internal.o [12]
MD5Update               0x1010225d     0x86  Code  Gb  md5-internal.o [12]
MemManage_Fault_Handler
                        0x10082151     0x30  Code  Gb  exception_handler.o [10]
MemManage_Handler       0x10093be5      0xc  Code  Gb  exception_handler.o [10]
N9_BIN_BLOCK$$Base      0x10010000            --   Gb  - Linker created -
N9_BIN_BLOCK$$Limit     0x1005501c            --   Gb  - Linker created -
N9_array                0x10010000  0x4501c  Data  Gb  mt76X7_n9_image.o [1]
NMI_Handler             0x10081aa9      0x2  Code  Gb  exception_handler.o [10]
NOR_FLASH_BUSY          0x20035b38      0x1  Data  Gb  flash_sfc.o [1]
NOR_FLASH_SUSPENDED     0x20035b39      0x1  Data  Gb  flash_sfc.o [1]
NVIC_ClearPendingIRQ    0x101068d5     0x14  Code  Lc  hal_aes.o [1]
NVIC_ClearPendingIRQ    0x100836ad     0x12  Code  Lc  hal_nvic.o [1]
NVIC_DisableIRQ         0x10091db1     0x14  Code  Lc  dma.o [1]
NVIC_DisableIRQ         0x101068c1     0x14  Code  Lc  hal_aes.o [1]
NVIC_DisableIRQ         0x100d1891     0x14  Code  Lc  hal_gpio_7687.o [1]
NVIC_DisableIRQ         0x100e28a3     0x12  Code  Lc  low_hal_wdt.o [1]
NVIC_DisableIRQ         0x100b2aa5     0x14  Code  Lc  bt_driver.o [7]
NVIC_EnableIRQ          0x100d37e9     0x14  Code  Lc  connsys_driver.o [1]
NVIC_EnableIRQ          0x10091d9d     0x14  Code  Lc  dma.o [1]
NVIC_EnableIRQ          0x1007ef1d     0x12  Code  Lc  gpt.o [1]
NVIC_EnableIRQ          0x101068ad     0x14  Code  Lc  hal_aes.o [1]
NVIC_EnableIRQ          0x100d187d     0x14  Code  Lc  hal_gpio_7687.o [1]
NVIC_EnableIRQ          0x100e16a1     0x12  Code  Lc  hal_lp.o [1]
NVIC_EnableIRQ          0x1008a2ed     0x14  Code  Lc  hal_uart.o [1]
NVIC_EnableIRQ          0x100e2891     0x12  Code  Lc  low_hal_wdt.o [1]
NVIC_EnableIRQ          0x100b2a91     0x14  Code  Lc  bt_driver.o [7]
NVIC_SetPriority        0x100d37fd     0x1e  Code  Lc  connsys_driver.o [1]
NVIC_SetPriority        0x10091dc5     0x1e  Code  Lc  dma.o [1]
NVIC_SetPriority        0x1007ef2f     0x1a  Code  Lc  gpt.o [1]
NVIC_SetPriority        0x101068e9     0x1e  Code  Lc  hal_aes.o [1]
NVIC_SetPriority        0x100d18a5     0x1e  Code  Lc  hal_gpio_7687.o [1]
NVIC_SetPriority        0x100e16b3     0x1a  Code  Lc  hal_lp.o [1]
NVIC_SetPriority        0x100e28b5     0x1a  Code  Lc  low_hal_wdt.o [1]
NVIC_SetPriority        0x100b2ab9     0x1e  Code  Lc  bt_driver.o [7]
NetJobAddFromISR        0x100d97b9     0x36  Code  Gb  net_task.o [15]
NetJobTaskHandle        0x20034eb4      0x4  Data  Gb  net_task.o [15]
NetTaskInit             0x100d97ef     0x42  Code  Gb  net_task.o [15]
OOM_temp_data           0x200021f1      0x1  Data  Lc  bt_driver.o [7]
PendSV_Handler          0x100899e5           Code  Gb  portasm.o [1]
RAM_BLOCK$$Base         0x20000400           Data  Gb  - Linker created -
RAM_BLOCK$$Limit        0x20035b4c           Data  Gb  - Linker created -
RCON                    0x10099480     0x28  Data  Lc  aes.o [1]
RHs                     0x100e05b0     0x40  Data  Lc  des.o [1]
ROM_BLOCK$$Base         0x10079100            --   Gb  - Linker created -
ROM_BLOCK$$Limit        0x10114be8            --   Gb  - Linker created -
RSN_OUI                 0x100ddfd8      0x4  Data  Gb  wifi_scan.o [15]
RSb                     0x10093d08    0x100  Data  Lc  aes.o [1]
RT0                     0x1009b530    0x400  Data  Lc  aes.o [1]
RT1                     0x1009b930    0x400  Data  Lc  aes.o [1]
RT2                     0x1009ad30    0x400  Data  Lc  aes.o [1]
RT3                     0x1009b130    0x400  Data  Lc  aes.o [1]
Region$$Table$$Base     0x101128c4            --   Gb  - Linker created -
Region$$Table$$Limit    0x10112900            --   Gb  - Linker created -
SB1                     0x100e1204    0x100  Data  Lc  des.o [1]
SB2                     0x100e15a0    0x100  Data  Lc  des.o [1]
SB3                     0x100e1304    0x100  Data  Lc  des.o [1]
SB4                     0x100e0f04    0x100  Data  Lc  des.o [1]
SB5                     0x100e1404    0x100  Data  Lc  des.o [1]
SB6                     0x100e1004    0x100  Data  Lc  des.o [1]
SB7                     0x100e0e04    0x100  Data  Lc  des.o [1]
SB8                     0x100e1104    0x100  Data  Lc  des.o [1]
SDMutex                 0x20002208      0x4  Data  Lc  hal_sleep_driver.o [8]
SF_DAL_CheckDeviceReady
                        0x0010018f     0xe2  Code  Gb  flash_sfc.o [1]
SF_DAL_CheckReadyAndResume
                        0x00100271     0x90  Code  Gb  flash_sfc.o [1]
SF_DAL_FLAG_BUSY_CLR    0x00100075      0x8  Code  Gb  flash_sfc.o [1]
SF_DAL_FLAG_BUSY_SET    0x0010006d      0x8  Code  Gb  flash_sfc.o [1]
SF_DAL_FLAG_SUS_CLR     0x00100085      0x8  Code  Gb  flash_sfc.o [1]
SF_DAL_FLAG_SUS_SET     0x0010007d      0x8  Code  Gb  flash_sfc.o [1]
SHA1Final               0x001021b9     0xa6  Code  Gb  sha1-internal.o [12]
SHA1Init                0x0010212b     0x1c  Code  Gb  sha1-internal.o [12]
SHA1Transform           0x00100f51   0x11da  Code  Gb  sha1-internal.o [12]
SHA1Update              0x00102147     0x72  Code  Gb  sha1-internal.o [12]
SHT$$INIT_ARRAY$$Base   0x101125d0            --   Gb  - Linker created -
SHT$$INIT_ARRAY$$Limit  0x101125d0            --   Gb  - Linker created -
SHT$$PREINIT_ARRAY$$Base
                        0x101125cc            --   Gb  - Linker created -
SHT$$PREINIT_ARRAY$$Limit
                        0x101125d0            --   Gb  - Linker created -
SVC_Handler             0x10089a3d           Code  Gb  portasm.o [1]
SYSefuse_Read16Bytes    0x100dfab1     0x56  Code  Gb  hal_efuse.o [8]
SysTick_Handler         0x1008248d     0x28  Code  Gb  port.o [1]
SysTick_Set             0x10083735     0x22  Code  Gb  system_mt7687.o [1]
SystemClock_Config      0x10108a3d      0x4  Code  Lc  sys_init.o [1]
SystemCoreClock         0x20001454      0x4  Data  Gb  system_mt7687.o [1]
SystemCoreClockUpdate   0x10083757      0xc  Code  Gb  system_mt7687.o [1]
SystemInit              0x10083763     0x1c  Code  Gb  system_mt7687.o [1]
TCM_BLOCK$$Base         0x00100000           Data  Gb  - Linker created -
TCM_BLOCK$$Limit        0x00102d8c           Data  Gb  - Linker created -
TCP_ip                  0x20001068     0x14  Data  Gb  mcs.o [1]
TMR_Start               0x1007f2d7      0x4  Code  Gb  timer.o [1]
TMR_Stop                0x1007f2db      0x4  Code  Gb  timer.o [1]
Td0                     0x10098d98    0x400  Data  Gb  aes-internal.o [12]
Td4s                    0x10099198    0x100  Data  Gb  aes-internal.o [12]
Te0                     0x10102cf0    0x400  Data  Gb  aes-internal.o [12]
UsageFault_Handler      0x10093bfd      0xc  Code  Gb  exception_handler.o [10]
Usage_Fault_Handler     0x100821b3     0x34  Code  Gb  exception_handler.o [10]
WDT_LISR                0x100e28e1     0x2e  Code  Gb  low_hal_wdt.o [1]
WPA_OUI                 0x100ddfd4      0x4  Data  Gb  wifi_scan.o [15]
WPS_OUI                 0x100ddba4      0x4  Data  Gb  wifi_scan.o [15]
ZeroMAC                 0x100df464      0x8  Data  Gb  wifi_scan.o [15]
ZeroSsid                0x20002140     0x20  Data  Gb  wifi_scan.o [15]
_Asctime_tbuf           0x200024b0     0x1c  Data  Lc  asctime.o [4]
_CStrftime              0x1010911d     0xfe  Code  Gb  xstrftim.o [4]
_Close_all              0x10112525     0x58  Code  Gb  xcloseall.o [4]
_EncodingSb_Mbtowc      0x10091823     0x30  Code  Gb  xencoding_sb.o [4]
_EncodingSb_Mbtowc::initial
                        0x10091860      0x8  Data  Lc  xencoding_sb.o [4]
_EncodingSb_Wctomb      0x10091809     0x1a  Code  Gb  xencoding_sb.o [4]
_EncodingSb_Wctomb::initial
                        0x10091858      0x8  Data  Lc  xencoding_sb.o [4]
_FProut                 0x101127f5     0x18  Code  Gb  xfprout.o [4]
_Files                  0x20002380     0x20  Data  Gb  xfiles.o [4]
_Fofind                 0x10101c21     0x4a  Code  Gb  xfofind.o [4]
_Fofree                 0x10101c6b     0x78  Code  Gb  xfofind.o [4]
_Fopen                  0x101030fd     0x42  Code  Gb  xfopen.o [4]
_Fopen::rwacc           0x10103140     0x10  Data  Lc  xfopen.o [4]
_Foprep                 0x10101ce9     0xce  Code  Gb  xfoprep.o [4]
_Foprep::init           0x10101db8     0x40  Data  Lc  xfoprep.o [4]
_Frprep                 0x10101df9     0xb8  Code  Gb  xfrprep.o [4]
_Fspos                  0x101035dd     0xd6  Code  Gb  xfspos.o [4]
_Fwprep                 0x10102b59     0xb8  Code  Gb  xfwprep.o [4]
_Gentime                0x101095c9    0x59a  Code  Gb  xgentime.o [4]
_Get_LocaleC_Tinfo      0x10108feb      0x4  Code  Gb  xlocale_c.o [4]
_Getdst                 0x10109bcb    0x132  Code  Gb  xgetdst.o [4]
_GetintSmall            0x100c635d    0x23a  Code  Lc  xscanfsmall.o [4]
_GetstrSmall            0x100c61d9    0x17e  Code  Lc  xscanfsmall.o [4]
_Gettime                0x10108dd3     0x42  Code  Gb  xgettime.o [4]
_IsdstStr               0x20002438      0x4  Data  Gb  setlocale.o [4]
_Isdst_olddst           0x2000258c      0x4  Data  Lc  xisdst.o [4]
_Isdst_rules            0x20002590      0x4  Data  Gb  xisdstData.o [4]
_LitobSmall             0x1008341f     0xce  Code  Lc  xprintfsmall.o [4]
_LocaleC_Tinfo          0x20035ad0     0x54  Data  Lc  xlocale_c.o [4]
_LocaleC_isalpha        0x10082d19     0x16  Code  Gb  xlocale_c.o [4]
_LocaleC_ispunct        0x10082d2f     0x24  Code  Gb  xlocale_c.o [4]
_LocaleC_isspace        0x10082d53     0x14  Code  Gb  xlocale_c.o [4]
_LocaleC_isupper        0x10082d67      0xa  Code  Gb  xlocale_c.o [4]
_LocaleC_tolower        0x1008aad9      0xc  Code  Gb  xlocale_c.o [4]
_LocaleEncoding         0x10082cfd      0xe  Code  Gb  setlocale.o [4]
_LocaleForCat           0x10082ceb     0x12  Code  Gb  setlocale.o [4]
_LocaleReturnString     0x20002458     0x50  Data  Lc  setlocale.o [4]
_Locale_Profile         0x2000243c     0x1c  Data  Gb  setlocale.o [4]
_Locale_aeabi_lconv     0x20002528     0x38  Data  Gb  localeconv.o [4]
_Locale_lconv           0x200024d8     0x50  Data  Gb  localeconv.o [4]
_Localtime_oldzone      0x200024a8      0x4  Data  Lc  localtim.o [4]
_Localtime_tzoff        0x200024ac      0x4  Data  Lc  localtim.o [4]
_Mbtowc                 0x10089a8d     0x20  Code  Gb  xmbtowc.o [4]
_Nnl                    0x101036b3      0xc  Code  Gb  xfgpos.o [4]
_PrintfSmall            0x10082d71    0x430  Code  Gb  xprintfsmall.o [4]
_Prout                  0x101127df     0x16  Code  Gb  xprout.o [4]
_PutcharsSmall          0x100834ed     0x2e  Code  Lc  xprintfsmall.o [4]
_PutstrSmall            0x100831ed    0x228  Code  Lc  xprintfsmall.o [4]
_Rand_idx               0x200023a8      0x4  Data  Lc  rand.o [4]
_Rand_rv                0x200023ac     0x80  Data  Lc  rand.o [4]
_Randinit               0x200023a0      0x1  Data  Gb  rand.o [4]
_Randseed               0x200023a4      0x4  Data  Gb  rand.o [4]
_SNProut                0x1007ba2f     0x1a  Code  Gb  xsnprout.o [4]
_SProut                 0x1007e377      0xa  Code  Gb  xsprout.o [4]
_SScin                  0x1007e2f3     0x1e  Code  Gb  xsscin.o [4]
_ScanfSmall             0x100c5f8f    0x244  Code  Gb  xscanfsmall.o [4]
_Stoflt                 0x10089c09    0x1b8  Code  Gb  xstoflt.o [4]
_Stopfx                 0x10089ae7    0x122  Code  Gb  xstopfx.o [4]
_Stoxflt                0x10089fc1    0x1e2  Code  Gb  xstoxflt.o [4]
_Stoxflt::digits        0x1008a1a8     0x18  Data  Lc  xstoxflt.o [4]
_Stoxflt::vals          0x1008a1c0     0x18  Data  Lc  xstoxflt.o [4]
_Strerror_sbuf          0x200024cc      0xc  Data  Lc  xstrerro.o [4]
_Strtok_ssave           0x20002430      0x4  Data  Lc  strtok.o [4]
_Ttotm_ts               0x20002560     0x2c  Data  Lc  xttotm.o [4]
_Tzoff                  0x10108ce5     0x94  Code  Gb  localtim.o [4]
_TzoneStr               0x20002434      0x4  Data  Gb  setlocale.o [4]
_UngetN                 0x100c5f75     0x1a  Code  Lc  xscanfsmall.o [4]
_Wctomb                 0x10089acd     0x1a  Code  Gb  xwctomb.o [4]
__aeabi_assert          0x10081a29      0x8  Code  Gb  exception_handler.o [10]
__aeabi_cdcmpeq         0x10091919           Code  Gb  DblCmpEq.o [16]
__aeabi_cdcmple         0x1007e659           Code  Gb  DblCmpLe.o [16]
__aeabi_cdrcmple        0x1007eb61           Code  Gb  DblCmpGe.o [16]
__aeabi_d2iz            0x1007e771           Code  Gb  DblToI32.o [16]
__aeabi_dadd            0x1007e689           Code  Gb  DblAdd.o [16]
__aeabi_ddiv            0x1007eb91           Code  Gb  DblDiv.o [16]
__aeabi_dmul            0x1007e96d           Code  Gb  DblMul.o [16]
__aeabi_dsub            0x1007e7ed           Code  Gb  DblSub.o [16]
__aeabi_errno_addr      0x1007f7fd      0x6  Code  Gb  errno.o [4]
__aeabi_i2d             0x1007e7bd           Code  Gb  I32ToDbl.o [16]
__aeabi_ldiv0           0x100e1e45           Code  Gb  I64DivZer.o [17]
__aeabi_memclr4         0x1009edb1           Code  Gb  ABImemclr4.o [17]
__aeabi_memset          0x1007e311           Code  Gb  ABImemset.o [17]
__aeabi_memset4         0x1007e291           Code  Gb  ABImemset48.o [17]
__aeabi_memset8         0x1007e291           Code  Gb  ABImemset48.o [17]
__aeabi_ui2d            0x1007e7d1           Code  Gb  I32ToDbl.o [16]
__aeabi_ul2d            0x1007ee99           Code  Gb  I64ToDbl.o [16]
__aeabi_uldivmod        0x100e0055           Code  Gb  I64DivMod.o [17]
__bootloader            0x10000000   0x6880  Data  Gb  bootloader.bin [2]
__call_ctors            0x101125b5     0x18  Code  Gb  cppinit.o [4]
__cexit_closeall        0x10112517           Code  Gb  cexit.o [17]
__close                 0x10101f61      0x4  Code  Gb  close.o [1]
__cmain                 0x101124c9           Code  Gb  cmain.o [17]
__cstart_closeall       0x10112594           Data  Gb  cstart_closeall.o [17]
__ctime32               0x10108cd5      0xe  Code  Gb  ctime.o [4]
__exit                  0x1011257d           Code  Gb  XXexit.o [17]
__g_wpa_supplicant_api  0x20034ec0     0x80  Data  Gb  wifi_scan.o [15]
__getzone               0x10108dc9      0x6  Code  Gb  getzone.o [4]
__iar_Daysto32          0x10108e15     0x3a  Code  Gb  xttotm.o [4]
__iar_Dnorm             0x100918d5     0x44  Code  Gb  xdnorm.o [16]
__iar_Dscale            0x1008a1d9    0x114  Code  Gb  xdscale.o [16]
__iar_Dtentox           0x10089e1d    0x140  Code  Gb  xdtento.o [16]
__iar_Dunscale          0x10091939     0x56  Code  Gb  xdunscal.o [16]
__iar_Errno             0x2000242c      0x4  Data  Gb  errno.o [4]
__iar_Isdst32           0x10109229    0x134  Code  Gb  xisdst.o [4]
__iar_Locale_lconv_init
                        0x10091869     0x3a  Code  Gb  localeconv.o [4]
__iar_Lockfilelock      0x100e021d      0x2  Code  Gb  xsyslock_nop.o [4]
__iar_Mbcurmax          0x10089ac3      0xa  Code  Gb  xmbcurmax.o [4]
__iar_Memchr            0x100842ed           Code  Gb  memchr.o [17]
__iar_Memset            0x1007e311           Code  Gb  ABImemset.o [17]
__iar_Memset4_word      0x1007e299           Code  Gb  ABImemset48.o [17]
__iar_Memset8_word      0x1007e299           Code  Gb  ABImemset48.o [17]
__iar_Memset_word       0x1007e319           Code  Gb  ABImemset.o [17]
__iar_Stderr            0x20002340     0x40  Data  Gb  xfiles.o [4]
__iar_Stdin             0x200022c0     0x40  Data  Gb  xfiles.o [4]
__iar_Stdout            0x20002300     0x40  Data  Gb  xfiles.o [4]
__iar_Stod              0x10083699      0x4  Code  Gb  xstod.o [16]
__iar_Stodx             0x10083535    0x14e  Code  Gb  xstod.o [16]
__iar_Stolx             0x100e0185     0x88  Code  Gb  xstol.o [4]
__iar_Stoul             0x1007f7a9      0x4  Code  Gb  xstoul.o [4]
__iar_Stoulx            0x1007f665    0x13e  Code  Gb  xstoul.o [4]
__iar_Strchr            0x10089aad           Code  Gb  strchr.o [17]
__iar_Strerror          0x10100909     0x94  Code  Gb  xstrerro.o [4]
__iar_Strpbrk           0x100eb829     0x26  Code  Gb  strpbrk.o [4]
__iar_Strrchr           0x10102c11     0x18  Code  Gb  strrchr.o [4]
__iar_Strstr            0x100a3e81     0x2e  Code  Gb  strstr.o [4]
__iar_Ttotm32           0x10108e4f    0x112  Code  Gb  xttotm.o [4]
__iar_TzoneStr_init     0x10082cc5     0x26  Code  Gb  setlocale.o [4]
__iar_Unlockfilelock    0x100e021f      0x2  Code  Gb  xsyslock_nop.o [4]
__iar_Wctob             0x100e0145     0x36  Code  Gb  xwctob.o [4]
__iar_cstart_call_ctors
                        0x10112595     0x20  Code  Gb  cmain_call_ctors.o [17]
__iar_d2uiz             0x1007e79d           Code  Gb  DblToI32.o [16]
__iar_dadd              0x1007e69d           Code  Gb  DblAdd.o [16]
__iar_data_init3        0x101124e9     0x28  Code  Gb  data_init.o [17]
__iar_dlib_perthread_access
                        0x10084345      0x2  Code  Gb  xtls.o [4]
__iar_dsub              0x1007e801           Code  Gb  DblSub.o [16]
__iar_dsubStart         0x1007e813           Code  Gb  DblSub.o [16]
__iar_init_vfp          0x101124a5           Code  Gb  fpinit_M.o [16]
__iar_lz77_init_single3
                        0x1011284d     0x78  Code  Gb  lz77_init_single.o [17]
__iar_program_start     0x101127d3           Code  Gb  cstartup_M.o [17]
__iar_ui2d              0x1007e7d5           Code  Gb  I32ToDbl.o [16]
__iar_ul2d              0x1007ee9d           Code  Gb  I64ToDbl.o [16]
__iar_unaligned___aeabi_memcpy
                        0x1007ee21           Code  Gb  ABImemcpy_unaligned.o [17]
__iar_unaligned___aeabi_memcpy4
                        0x1007ee41           Code  Gb  ABImemcpy_unaligned.o [17]
__iar_unaligned___aeabi_memcpy8
                        0x1007ee41           Code  Gb  ABImemcpy_unaligned.o [17]
__iar_unaligned___aeabi_memmove
                        0x100bae55           Code  Gb  ABImemmove_unaligned.o [17]
__iar_unaligned___aeabi_memmove4
                        0x100bae55           Code  Gb  ABImemmove_unaligned.o [17]
__iar_unaligned___aeabi_memmove8
                        0x100bae55           Code  Gb  ABImemmove_unaligned.o [17]
__iar_unaligned_memcmp  0x10082c1d           Code  Gb  memcmp_unaligned.o [17]
__iar_unaligned_strcmp  0x1007b9e5           Code  Gb  strcmp_unaligned.o [17]
__iar_unaligned_strcpy  0x10082c81           Code  Gb  strcpy_unaligned.o [17]
__iar_unaligned_strncpy
                        0x100dfdd5           Code  Gb  strncpy_unaligned.o [17]
__iar_vfp_atof          0x1007ef0d     0x10  Code  Gb  atof.o [16]
__iar_zero_init3        0x1011280d     0x40  Code  Gb  zero_init3.o [17]
__io_getchar            0x10107597     0x2e  Code  Gb  io_def.o [1]
__io_putchar            0x10107579     0x1e  Code  Gb  io_def.o [1]
__isr_vector            0x10079100           Data  Gb  startup_mt7687.o [1]
__localtime32           0x10108d81     0x1a  Code  Gb  localtim.o [4]
__low_level_init        0x101124e3      0x4  Code  Gb  low_level_init.o [4]
__lseek                 0x101036bf      0x6  Code  Gb  lseek.o [1]
__open                  0x101035c1     0x1c  Code  Gb  open.o [1]
__pbufAllocCount        0x20032d28      0x4  Data  Gb  pbuf.o [1]
__pbufFreeCount         0x20032d2c      0x4  Data  Gb  pbuf.o [1]
__process_global_event  0x200020d0     0x18  Data  Gb  wifi_scan.o [15]
__read                  0x10103151      0x6  Code  Gb  read.o [1]
__rstrtok               0x20032ccc      0x4  Data  Lc  misc.o [1]
__sti__routine          0x10108f9d     0x4e  Code  Lc  xlocale_c.o [4]
__vector_table          0x10079100           Data  Gb  startup_mt7687.o [1]
__wpa_send_eapol        0x100fc515    0x32e  Code  Gb  wpa_auth.o [12]
__write                 0x10103157      0x6  Code  Gb  write.o [1]
_bt_driver_recv         0x100b2ed1     0x48  Code  Lc  bt_driver.o [7]
_call_main              0x101124d5           Code  Gb  cmain.o [17]
_cli_cb                 0x20000758     0x80  Data  Lc  cli_def.o [1]
_cli_connsys_related    0x1010ecad      0x4  Code  Gb  wifi_ex_config.o [1]
_cli_do_cmd             0x101046f1     0x16  Code  Gb  cli_cmd.o [11]
_cli_do_cmd_no_sub      0x101045c7     0x24  Code  Lc  cli_cmd.o [11]
_cli_do_cmd_no_token    0x101045eb     0x40  Code  Lc  cli_cmd.o [11]
_cli_do_show_help       0x10104499     0x64  Code  Lc  cli_cmd.o [11]
_cli_do_show_help_recursive
                        0x101044fd     0xa4  Code  Lc  cli_cmd.o [11]
_cli_do_tok             0x1010462b     0xb2  Code  Gb  cli_cmd.o [11]
_cli_find_one_match     0x101045a1     0x26  Code  Lc  cli_cmd.o [11]
_cli_getline            0x101043e9     0x78  Code  Gb  cli_line.o [11]
_cli_ip_cmds            0x10108507    0x18e  Code  Lc  lwip_cli.o [1]
_cli_ip_nvram_commit    0x10108441      0x2  Code  Lc  lwip_cli.o [1]
_cli_ip_nvram_set_key   0x10108395     0xac  Code  Lc  lwip_cli.o [1]
_cli_ip_show            0x10108443     0xc4  Code  Lc  lwip_cli.o [1]
_cli_iperf_client       0x10107777     0xf6  Code  Lc  iperf_cli.o [1]
_cli_iperf_client::__FUNCTION__
                        0x10107bf0     0x14  Data  Lc  iperf_cli.o [1]
_cli_iperf_help         0x10107871    0x260  Code  Lc  iperf_cli.o [1]
_cli_iperf_help::__FUNCTION__
                        0x10107c4c     0x10  Data  Lc  iperf_cli.o [1]
_cli_iperf_server       0x10107649    0x12e  Code  Lc  iperf_cli.o [1]
_cli_iperf_server::__FUNCTION__
                        0x10107ae4     0x14  Data  Lc  iperf_cli.o [1]
_cli_legacy_sleep       0x101082e3     0x4e  Code  Lc  lp_ex_sleep.o [1]
_cli_line_skip_ws       0x101047db     0x6a  Code  Lc  cli_tok.o [11]
_cli_line_to_tokens     0x101048c1     0x7e  Code  Gb  cli_tok.o [11]
_cli_line_tok_plain     0x10104845     0x44  Code  Lc  cli_tok.o [11]
_cli_line_tok_quote     0x10104889     0x38  Code  Lc  cli_tok.o [11]
_cli_login              0x10103cf9     0x5c  Code  Lc  cli.o [11]
_cli_ptr                0x20000584      0x4  Data  Lc  cli_cmds.o [1]
_cli_rtc_mode           0x10108339     0x26  Code  Lc  lp_ex_sleep.o [1]
_cli_scan               0x1010e945    0x20a  Code  Gb  wifi_ex_config.o [1]
_cli_supp_reload        0x1010e633     0x2a  Code  Lc  wifi_ex_config.o [1]
_cli_supp_show_ifaces   0x1010e65d     0x1c  Code  Lc  wifi_ex_config.o [1]
_cli_supp_wps_ap_pin    0x1010e747     0x5c  Code  Lc  wifi_ex_config.o [1]
_cli_supp_wps_auto_connection
                        0x1010e837     0x1c  Code  Lc  wifi_ex_config.o [1]
_cli_supp_wps_crdential_handler
                        0x1010e81b     0x1c  Code  Lc  wifi_ex_config.o [1]
_cli_supp_wps_device_info
                        0x1010e7ff     0x1c  Code  Lc  wifi_ex_config.o [1]
_cli_supp_wps_get_pin   0x1010e7a3     0x5c  Code  Lc  wifi_ex_config.o [1]
_cli_supp_wps_pbc       0x1010e679     0x40  Code  Lc  wifi_ex_config.o [1]
_cli_supp_wps_pin       0x1010e6b9     0x4e  Code  Lc  wifi_ex_config.o [1]
_cli_supp_wps_reg       0x1010e707     0x40  Code  Lc  wifi_ex_config.o [1]
_cli_tickless_mode      0x10108331      0x4  Code  Lc  lp_ex_sleep.o [1]
_cli_tickless_status    0x10108335      0x4  Code  Lc  lp_ex_sleep.o [1]
_cli_utf8_consume       0x1010435b     0x8e  Code  Lc  cli_line.o [11]
_cli_wifi               0x1010ecb1    0x1b0  Code  Gb  wifi_ex_config.o [1]
_cli_wow                0x1010eb4f    0x15a  Code  Gb  wifi_ex_config.o [1]
_cmds_normal            0x20000678     0xe0  Data  Lc  cli_cmds.o [1]
_cmds_test              0x20000588     0xf0  Data  Lc  cli_cmds.o [1]
_do_backspace           0x1010425f     0x86  Code  Lc  cli_line.o [11]
_do_delete              0x101042e5     0x76  Code  Lc  cli_line.o [11]
_do_end_line            0x10103ec1     0x36  Code  Lc  cli_line.o [11]
_do_history_down        0x10104029    0x118  Code  Lc  cli_line.o [11]
_do_history_up          0x10103ef7    0x132  Code  Lc  cli_line.o [11]
_do_insert_character    0x10103e19     0xa4  Code  Lc  cli_line.o [11]
_do_isr                 0x100da8d1      0xe  Code  Lc  wifi_inband.o [15]
_do_isr_ext             0x100da8c5      0xc  Code  Lc  wifi_inband.o [15]
_do_move_cursor         0x10104141    0x11e  Code  Lc  cli_line.o [11]
_do_process_driver_event
                        0x100e8f87    0x2e8  Code  Lc  driver_inband.o [12]
_do_terminate           0x10103ebd      0x4  Code  Lc  cli_line.o [11]
_efuse_block_status     0x10110eed     0x78  Code  Lc  wifi_inband_cli.o [1]
_efuse_cmds             0x10096974     0x50  Data  Lc  wifi_inband_cli.o [1]
_efuse_get              0x10110a0b     0xce  Code  Lc  wifi_inband_cli.o [1]
_efuse_get_free         0x101109e5     0x26  Code  Lc  wifi_inband_cli.o [1]
_efuse_get_phy          0x10110ad9     0xcc  Code  Lc  wifi_inband_cli.o [1]
_efuse_phy_cmds         0x10096934     0x40  Data  Lc  wifi_inband_cli.o [1]
_efuse_set              0x10110ba5    0x1a2  Code  Lc  wifi_inband_cli.o [1]
_efuse_set_phy          0x10110d47    0x1a6  Code  Lc  wifi_inband_cli.o [1]
_efuse_timer            0x10110f65     0x50  Code  Lc  wifi_inband_cli.o [1]
_efuse_timer::start     0x20033410      0x4  Data  Lc  wifi_inband_cli.o [1]
_elian_reset            0x10105933     0x1e  Code  Lc  smt_core.o [14]
_exit                   0x10112515           Code  Gb  cexit.o [17]
_ieee802_1x_abort_auth  0x100f7049      0x2  Code  Lc  ieee802_1x.o [12]
_ieee802_1x_finished    0x100f6f83      0xa  Code  Lc  ieee802_1x.o [12]
_ieee802_1x_tx_key      0x100f704b      0x4  Code  Lc  ieee802_1x.o [12]
_inband_debug_flag      0x10110fb9     0x58  Code  Lc  wifi_inband_cli.o [1]
_lock                   0x101058cf      0x2  Code  Lc  smt_core.o [14]
_main                   0x101124df           Code  Gb  cmain.o [17]
_main_sys_random_init   0x10108b69     0x2c  Code  Lc  sys_init.o [1]
_minisupp_cli_show_interfaces
                        0x101127c9      0xa  Code  Lc  minisupp_cli.o [12]
_move_cursor            0x10103dfd     0x1c  Code  Lc  cli_line.o [11]
_os_cli_crash           0x1010a019     0x12  Code  Lc  os_cli.o [1]
_os_cli_mem             0x10109fe3     0x36  Code  Lc  os_cli.o [1]
_os_cli_show_task_info  0x10109f65     0x7e  Code  Lc  os_cli.o [1]
_pmksa_cache_free_entry
                        0x101003e7     0x18  Code  Lc  pmksa_cache_auth.o [12]
_sc_rst                 0x101058d7     0x46  Code  Lc  smt_core.o [14]
_sdk_cli_normal_mode    0x101053e5      0xe  Code  Lc  cli_cmds.o [1]
_sdk_cli_test_mode      0x101053d9      0xc  Code  Lc  cli_cmds.o [1]
_smart_config_test      0x1010e075     0xac  Code  Gb  wifi_cli.o [1]
_toi_detect             0x1008a95d     0x5c  Code  Lc  toi.o [10]
_trylock                0x101058d3      0x4  Code  Lc  smt_core.o [14]
_uart_event             0x10107551     0x28  Code  Lc  io_def.o [1]
_unlock                 0x101058d1      0x2  Code  Lc  smt_core.o [14]
_wpa_alloc_eapol        0x100f1303     0x10  Code  Lc  wpas_glue.o [12]
_wpa_ether_send         0x100f1313      0xe  Code  Lc  wpas_glue.o [12]
_wpa_hexdump            0x100eb873     0x5c  Code  Lc  wpa_debug.o [12]
_wpa_hexdump_ascii      0x100eb8ed     0xc8  Code  Lc  wpa_debug.o [12]
_wpa_supplicant_cancel_auth_timeout
                        0x100f1321      0x4  Code  Lc  wpas_glue.o [12]
_wpa_supplicant_deauthenticate
                        0x100f1347     0x16  Code  Lc  wpas_glue.o [12]
_wpa_supplicant_disassociate
                        0x100f1331     0x16  Code  Lc  wpas_glue.o [12]
_wpa_supplicant_event_scan_results
                        0x100f2c85    0x1c8  Code  Lc  events.o [12]
_wpa_supplicant_get_state
                        0x100f132f      0x2  Code  Lc  wpas_glue.o [12]
_wpa_supplicant_set_state
                        0x100f1325      0x4  Code  Lc  wpas_glue.o [12]
abs                     0x100f7b83      0x8  Code  Gb  abs.o [4]
accept_function         0x10086fcf     0x96  Code  Lc  api_msg.o [1]
accounting_deinit       0x100f4fd3      0x2  Code  Lc  hostapd.o [12]
accounting_init         0x100f4fcf      0x4  Code  Lc  hostapd.o [12]
accounting_sta_start    0x100f4fcd      0x2  Code  Lc  hostapd.o [12]
accounting_sta_start    0x100f6323      0x2  Code  Lc  ieee802_1x.o [12]
accounting_sta_stop     0x100f8041      0x2  Code  Lc  sta_info.o [12]
accounting_sta_stop     0x100f6325      0x2  Code  Lc  ieee802_1x.o [12]
accounting_sta_stop     0x100f97e1      0x2  Code  Lc  drv_callbacks.o [12]
ackno                   0x2003335c      0x4  Data  Lc  tcp_in.o [1]
add_connection_info     0x100a2165     0x44  Code  Gb  connection_info.o [1]
add_freq                0x100e5d41     0x26  Code  Lc  wpa_supplicant.o [12]
adjust_heap             0x100f77b1     0x88  Code  Lc  qsort.o [4]
adv_data                0x20001824     0x20  Data  Gb  ut_app.o [1]
adv_data_default        0x20001844     0x20  Data  Gb  ut_app.o [1]
adv_enable              0x2000152c      0x4  Data  Gb  ut_app.o [1]
adv_enable_default      0x200017d8      0x4  Data  Gb  ut_app.o [1]
adv_para                0x200333c0     0x10  Data  Gb  ut_app.o [1]
adv_para_default        0x200017dc     0x10  Data  Gb  ut_app.o [1]
aes128_decrypt          0x101059dd     0x7e  Code  Lc  smt_core.o [14]
aes_128_cbc_info        0x100944ac     0x1c  Data  Lc  cipher_wrap.o [1]
aes_128_ecb_info        0x10094458     0x1c  Data  Lc  cipher_wrap.o [1]
aes_192_cbc_info        0x100944c8     0x1c  Data  Lc  cipher_wrap.o [1]
aes_192_ecb_info        0x10094474     0x1c  Data  Lc  cipher_wrap.o [1]
aes_256_cbc_info        0x100944e4     0x1c  Data  Lc  cipher_wrap.o [1]
aes_256_ecb_info        0x10094490     0x1c  Data  Lc  cipher_wrap.o [1]
aes_configure           0x10106cd1     0x1e  Code  Gb  crypt_aes.o [9]
aes_crypt_cbc_wrap      0x101052a1     0x10  Code  Lc  cipher_wrap.o [1]
aes_crypt_ecb_wrap      0x1010529d      0x4  Code  Lc  cipher_wrap.o [1]
aes_ctx_alloc           0x101052b9     0x1c  Code  Lc  cipher_wrap.o [1]
aes_ctx_free            0x101052d5     0x12  Code  Lc  cipher_wrap.o [1]
aes_decrypt             0x1010115d      0x2  Code  Gb  aes-internal-dec.o [12]
aes_decrypt_deinit      0x1010115f     0x16  Code  Gb  aes-internal-dec.o [12]
aes_decrypt_init        0x10100d85     0x24  Code  Gb  aes-internal-dec.o [12]
aes_encrypt             0x10103585      0x2  Code  Gb  aes-internal-enc.o [12]
aes_encrypt_deinit      0x10103587     0x16  Code  Gb  aes-internal-enc.o [12]
aes_encrypt_init        0x10103561     0x24  Code  Gb  aes-internal-enc.o [12]
aes_handle              0x2003558c     0x38  Data  Gb  crypt_aes.o [9]
aes_info                0x10094438     0x20  Data  Lc  cipher_wrap.o [1]
aes_iv_assign           0x10106ca7     0x2a  Code  Gb  crypt_aes.o [9]
aes_key_assign          0x10106c65     0x42  Code  Gb  crypt_aes.o [9]
aes_operate             0x10106d05     0xba  Code  Gb  crypt_aes.o [9]
aes_operation_done      0x10106937     0x1e  Code  Lc  hal_aes.o [1]
aes_set_key             0x10106cef     0x16  Code  Gb  crypt_aes.o [9]
aes_setkey_dec_wrap     0x101052b1      0x4  Code  Lc  cipher_wrap.o [1]
aes_setkey_enc_wrap     0x101052b5      0x4  Code  Lc  cipher_wrap.o [1]
aes_unwrap              0x100f9727     0xb8  Code  Gb  aes-unwrap.o [12]
aes_wrap                0x1010215b     0xa0  Code  Gb  aes-wrap.o [12]
alloc_socket            0x1007ba9b     0x64  Code  Lc  sockets.o [1]
alt_digits              0x10108ff4      0x1  Data  Lc  xlocale_c.o [4]
am_pm                   0x10108ff8      0x8  Data  Lc  xlocale_c.o [4]
ap_check_default_value  0x100c2029      0xa  Code  Lc  wifi_nvdm_config.o [1]
ap_client_poll_ok       0x100e6741      0x2  Code  Gb  ap.o [12]
ap_config_name          0x20002198      0x4  Data  Lc  wpa_supplicant_entry.o [12]
ap_eapol_tx_status      0x100e673f      0x2  Code  Gb  ap.o [12]
ap_for_each_sta         0x100f8093     0x26  Code  Gb  sta_info.o [12]
ap_free_sta             0x100f816b    0x1e0  Code  Gb  sta_info.o [12]
ap_get_sta              0x100f80b9     0x28  Code  Gb  sta_info.o [12]
ap_handle_session_timer
                        0x100f8631     0x4c  Code  Lc  sta_info.o [12]
ap_handle_timer         0x100f8375    0x2ba  Code  Gb  sta_info.o [12]
ap_if                   0x20005604     0x44  Data  Gb  ethernetif.o [1]
ap_ifname               0x200021a8      0x4  Data  Gb  wpa_supplicant_entry.o [12]
ap_list_deinit          0x100f4fd9      0x2  Code  Lc  hostapd.o [12]
ap_list_init            0x100f4fd5      0x4  Code  Lc  hostapd.o [12]
ap_mgmt_rx              0x100e6745      0x2  Code  Gb  ap.o [12]
ap_mgmt_tx_cb           0x100e6747      0x2  Code  Gb  ap.o [12]
ap_probe_req_rx         0x100e632b      0x4  Code  Lc  ap.o [12]
ap_public_action_rx     0x100e631f      0x2  Code  Lc  ap.o [12]
ap_reset_to_default     0x100c2033      0xa  Code  Lc  wifi_nvdm_config.o [1]
ap_rx_from_unknown_sta  0x100e6743      0x2  Code  Gb  ap.o [12]
ap_show_value           0x100c203d      0xa  Code  Lc  wifi_nvdm_config.o [1]
ap_sta_add              0x100f867d     0x98  Code  Gb  sta_info.o [12]
ap_sta_authorized_cb    0x100e6323      0x4  Code  Lc  ap.o [12]
ap_sta_bind_vlan        0x100f8843      0x4  Code  Gb  sta_info.o [12]
ap_sta_deauth_cb_timeout
                        0x100f8829     0x1a  Code  Lc  sta_info.o [12]
ap_sta_disassoc_cb_timeout
                        0x100f8789     0x1a  Code  Lc  sta_info.o [12]
ap_sta_disassociate     0x100f87a3     0x84  Code  Gb  sta_info.o [12]
ap_sta_disconnect       0x100f8987     0x74  Code  Gb  sta_info.o [12]
ap_sta_hash_add         0x100f8103     0x14  Code  Gb  sta_info.o [12]
ap_sta_hash_del         0x100f8117     0x54  Code  Lc  sta_info.o [12]
ap_sta_is_authorized    0x100f6327      0x8  Code  Lc  ieee802_1x.o [12]
ap_sta_list_del         0x100f80e1     0x22  Code  Lc  sta_info.o [12]
ap_sta_remove           0x100f8715     0x2c  Code  Lc  sta_info.o [12]
ap_sta_remove_in_other_bss
                        0x100f8741     0x46  Code  Lc  sta_info.o [12]
ap_sta_set_authorized   0x100f8847    0x140  Code  Gb  sta_info.o [12]
ap_tx_status            0x100e673d      0x2  Code  Gb  ap.o [12]
ap_vendor_action_rx     0x100e6327      0x4  Code  Lc  ap.o [12]
ap_wps_event_cb         0x100e6321      0x2  Code  Lc  ap.o [12]
ap_wps_reg_success_cb   0x100e632f      0x2  Code  Lc  ap.o [12]
app_add_dev_2_resolving_list
                        0x100a5729     0x54  Code  Gb  ut_app.o [1]
app_add_dev_2_white_list
                        0x100a577d     0x3e  Code  Gb  ut_app.o [1]
app_clear_resolving_list
                        0x100a56d7     0x1e  Code  Gb  ut_app.o [1]
app_data                0x20034a78     0x18  Data  Lc  smt_core.o [14]
app_delete_dev_from_resolving_list
                        0x100a56f5     0x34  Code  Gb  ut_app.o [1]
arc4_128_info           0x10094628     0x1c  Data  Lc  cipher_wrap.o [1]
arc4_base_info          0x10094608     0x20  Data  Lc  cipher_wrap.o [1]
arc4_crypt_stream_wrap  0x10105389      0x4  Code  Lc  cipher_wrap.o [1]
arc4_ctx_alloc          0x101053a9     0x1c  Code  Lc  cipher_wrap.o [1]
arc4_ctx_free           0x101053c5     0x12  Code  Lc  cipher_wrap.o [1]
arc4_setkey_wrap        0x1010538d     0x16  Code  Lc  cipher_wrap.o [1]
are_ies_equal           0x100e722d    0x118  Code  Lc  bss.o [12]
arp_table               0x200054cc     0xf0  Data  Lc  etharp.o [1]
arp_timer               0x100884a3     0x14  Code  Lc  lwip_timers.o [1]
asctime                 0x10108d9d     0x24  Code  Gb  asctime.o [4]
assert_expr             0x20034dc4     0x10  Data  Lc  exception_handler.o [10]
atoi                    0x1007ba27      0x8  Code  Gb  atoi.o [4]
atomic_read_smtcn_flag  0x10106147      0xa  Code  Gb  smt_api.o [1]
atomic_write_smtcn_flag
                        0x10106151      0xa  Code  Gb  smt_api.o [1]
authsrv_deinit          0x100fadef      0x2  Code  Gb  authsrv.o [12]
authsrv_init            0x100fadeb      0x4  Code  Gb  authsrv.o [12]
b_debug_on              0x20035b3f      0x1  Data  Lc  smt_api.o [1]
b_init                  0x20001240      0x1  Data  Lc  smt_api.o [1]
base64_dec_map          0x1009dfa4     0x80  Data  Lc  base64.o [1]
bgscan_deinit           0x100e2c8b      0x2  Code  Lc  wpa_supplicant.o [12]
bgscan_notify_scan      0x100f16cb      0x4  Code  Lc  events.o [12]
bgscan_notify_signal_change
                        0x100f16cf      0x2  Code  Lc  events.o [12]
ble_gpio_set_adv        0x1009edb9     0x3a  Code  Gb  bt_gattc_handle_op.o [1]
ble_smtcn_charc_value_callback
                        0x100b0217    0x158  Code  Lc  ble_smtcn.o [1]
ble_smtcn_charc_value_callback::__FUNCTION__
                        0x100b0ad4     0x20  Data  Lc  ble_smtcn.o [1]
ble_smtcn_client_config_callback
                        0x100b036f     0xea  Code  Lc  ble_smtcn.o [1]
ble_smtcn_client_config_callback::__FUNCTION__
                        0x100b0c8c     0x24  Data  Lc  ble_smtcn.o [1]
ble_smtcn_cntx          0x2000327c     0x58  Data  Lc  ble_smtcn.o [1]
ble_smtcn_event_callback
                        0x100afd65     0xa4  Code  Gb  ble_smtcn.o [1]
ble_smtcn_event_callback::__FUNCTION__
                        0x100b06dc     0x1c  Data  Lc  ble_smtcn.o [1]
ble_smtcn_init          0x100b058d     0x42  Code  Gb  ble_smtcn.o [1]
ble_smtcn_init2         0x100afc85     0x2c  Code  Gb  ble_smtcn.o [1]
ble_smtcn_init2::__FUNCTION__
                        0x100b05fc     0x10  Data  Lc  ble_smtcn.o [1]
ble_smtcn_init::__FUNCTION__
                        0x100b0e80     0x10  Data  Lc  ble_smtcn.o [1]
ble_smtcn_ip_change_callback
                        0x100b0459     0x66  Code  Lc  ble_smtcn.o [1]
ble_smtcn_ip_change_callback::__FUNCTION__
                        0x100b0d6c     0x20  Data  Lc  ble_smtcn.o [1]
ble_smtcn_parse_data    0x100aff0f    0x130  Code  Gb  ble_smtcn.o [1]
ble_smtcn_parse_data::__FUNCTION__
                        0x100b07e8     0x18  Data  Lc  ble_smtcn.o [1]
ble_smtcn_send_indication
                        0x100afe39     0xd6  Code  Gb  ble_smtcn.o [1]
ble_smtcn_send_indication::__FUNCTION__
                        0x100b071c     0x1c  Data  Lc  ble_smtcn.o [1]
ble_smtcn_set_adv       0x100afcf5     0x70  Code  Gb  ble_smtcn.o [1]
ble_smtcn_set_adv::__FUNCTION__
                        0x100b066c     0x14  Data  Lc  ble_smtcn.o [1]
ble_smtcn_setup_wifi_connection
                        0x100b00ef    0x128  Code  Gb  ble_smtcn.o [1]
ble_smtcn_setup_wifi_connection::__FUNCTION__
                        0x100b09e0     0x20  Data  Lc  ble_smtcn.o [1]
ble_smtcn_stop_adv      0x100afcb1     0x44  Code  Gb  ble_smtcn.o [1]
ble_smtcn_stop_adv::__FUNCTION__
                        0x100b0628     0x14  Data  Lc  ble_smtcn.o [1]
ble_smtcn_timeout_callback
                        0x100b003f     0xb0  Code  Gb  ble_smtcn.o [1]
ble_smtcn_timeout_callback::__FUNCTION__
                        0x100b0964     0x1c  Data  Lc  ble_smtcn.o [1]
ble_smtcn_wifi_event_handler
                        0x100b04bf     0xce  Code  Gb  ble_smtcn.o [1]
ble_smtcn_wifi_event_handler::__FUNCTION__
                        0x100b0da4     0x20  Data  Lc  ble_smtcn.o [1]
block_cipher_df         0x100bd655    0x11e  Code  Lc  ctr_drbg.o [1]
bmap_set                0x1010588d     0x18  Code  Lc  smt_core.o [14]
bmap_test               0x101058a5     0x2a  Code  Lc  smt_core.o [14]
board_cli_reboot        0x10103b7f     0x1e  Code  Gb  board_cli.o [1]
board_cli_reg_read      0x10103ba1     0x40  Code  Gb  board_cli.o [1]
board_cli_reg_write     0x10103be1     0x56  Code  Gb  board_cli.o [1]
board_cli_ver           0x10103b1d     0x62  Code  Gb  board_cli.o [1]
bonded_info_req         0x20004160    0x8c0  Data  Gb  connection_info.o [1]
bqb_gap_io_callback     0x1010acb1      0x4  Code  Wk  ut_app_gap.o [1]
bqb_get_gatt_server     0x100e020d      0x4  Code  Wk  gatt_command.o [1]
bsp_ept_gpio_setting_init
                        0x10104b11     0x1c  Code  Gb  bsp_gpio_ept_config.o [1]
bssid_use_flag          0x20035b42      0x1  Data  Lc  wifi_api.o [15]
bt_alloc_rx_packet_with_node
                        0x100a82d7     0x1c  Code  Gb  bt_common.o [5]
bt_allocate_packet_with_node
                        0x100a82f3     0x42  Code  Gb  bt_common.o [5]
bt_app_advertising      0x20001543      0x1  Data  Gb  ut_app.o [1]
bt_app_callback_table   0x100a723c     0x28  Data  Lc  ut_app.o [1]
bt_app_connecting       0x20001545      0x1  Data  Gb  ut_app.o [1]
bt_app_event_callback   0x100a72c1    0x682  Code  Gb  ut_app.o [1]
bt_app_event_callback::__FUNCTION__
                        0x100a7948     0x18  Data  Lc  ut_app.o [1]
bt_app_event_callback_wrap
                        0x100ac309     0x22  Code  Gb  bt_gap_le.o [5]
bt_app_gap_io_callback  0x1010ace9    0x964  Code  Gb  ut_app_gap.o [1]
bt_app_gattc_io_callback
                        0x100e0211      0x4  Code  Wk  gatt_command.o [1]
bt_app_gatts_io_callback
                        0x100e0215      0x4  Code  Wk  gatt_command.o [1]
bt_app_io_callback      0x100a5811   0x1168  Code  Gb  ut_app.o [1]
bt_app_l2cap_io_callback
                        0x100a4211      0x4  Code  Wk  ut_app.o [1]
bt_app_scanning         0x20001544      0x1  Data  Gb  ut_app.o [1]
bt_app_sm_io_callback   0x100a4215      0x4  Code  Wk  ut_app.o [1]
bt_app_wait_peer_central_address_resolution_rsp
                        0x20001546      0x1  Data  Gb  ut_app.o [1]
bt_att_get_packet       0x100acc1d     0x72  Code  Gb  bt_att.o [5]
bt_att_rx_proc          0x100acb49     0xa4  Code  Gb  bt_att.o [5]
bt_att_send_data        0x100acc8f     0xa2  Code  Gb  bt_att.o [5]
bt_att_send_error_rsp   0x100acbf1     0x2c  Code  Gb  bt_att.o [5]
bt_att_send_packet      0x100acd31     0xb0  Code  Gb  bt_att.o [5]
bt_cli_ble              0x10104bed     0x68  Code  Gb  bt_cli.o [1]
bt_cli_bqb              0x10104b85     0x68  Code  Gb  bt_cli.o [1]
bt_cmac_reverse_and_encrypt
                        0x100c6723    0x162  Code  Gb  bt_cmac.o [5]
bt_cmac_shift_key       0x100c66fd     0x26  Code  Gb  bt_cmac.o [5]
bt_copy_and_increase    0x100a82b1      0xe  Code  Gb  bt_common.o [5]
bt_create_task          0x10104f0d     0x88  Code  Gb  bt_init.o [1]
bt_create_task::__FUNCTION__
                        0x101051dc     0x10  Data  Lc  bt_init.o [1]
bt_debug_addr2str       0x1009e795     0x52  Code  Gb  bt_debug.o [1]
bt_debug_bd_addr2str    0x1009e763     0x32  Code  Gb  bt_debug.o [1]
bt_debug_buff           0x200004ec     0x98  Data  Lc  bt_debug.o [1]
bt_debug_log            0x1009e645    0x11e  Code  Gb  bt_debug.o [1]
bt_debug_log::__FUNCTION__
                        0x1009e7f4     0x10  Data  Lc  bt_debug.o [1]
bt_driver_close         0x100b2fcb     0x3e  Code  Gb  bt_driver.o [7]
bt_driver_core_dump_counter
                        0x200021ef      0x1  Data  Lc  bt_driver.o [7]
bt_driver_core_dump_format
                        0x200021e0      0xc  Data  Lc  bt_driver.o [7]
bt_driver_core_dump_format_start
                        0x200021ee      0x1  Data  Lc  bt_driver.o [7]
bt_driver_disable_irq   0x100b2b0d      0x4  Code  Lc  bt_driver.o [7]
bt_driver_disable_irq_mask
                        0x100b2ae3      0xe  Code  Lc  bt_driver.o [7]
bt_driver_enable_irq    0x100b2b09      0x4  Code  Lc  bt_driver.o [7]
bt_driver_enable_irq_mask
                        0x100b2ad7      0xc  Code  Lc  bt_driver.o [7]
bt_driver_exec_wmt_routine
                        0x100b3101     0xa2  Code  Lc  bt_driver.o [7]
bt_driver_fw_assert     0x200021ec      0x1  Data  Lc  bt_driver.o [7]
bt_driver_fw_assert_data_len
                        0x200021ed      0x1  Data  Lc  bt_driver.o [7]
bt_driver_fw_assert_header
                        0x20002204      0x2  Data  Lc  bt_driver.o [7]
bt_driver_is_rx_oom     0x100b2b11     0x10  Code  Gb  bt_driver.o [7]
bt_driver_isr           0x100b2f29     0x34  Code  Lc  bt_driver.o [7]
bt_driver_isr_rx_allocate_packet
                        0x100b2b21    0x14c  Code  Lc  bt_driver.o [7]
bt_driver_lib_lastest_commit
                        0x100b298b      0x6  Code  Gb  bt_driver_lib_verno.o [7]
bt_driver_lib_verno     0x100b2985      0x6  Code  Gb  bt_driver_lib_verno.o [7]
bt_driver_open          0x100b2f5d     0x6e  Code  Gb  bt_driver.o [7]
bt_driver_opened        0x2003581c      0x1  Data  Lc  bt_driver.o [7]
bt_driver_power_off     0x100b3221     0x46  Code  Gb  bt_driver.o [7]
bt_driver_power_on      0x100b31cb     0x56  Code  Gb  bt_driver.o [7]
bt_driver_recv          0x100b2f1d      0xc  Code  Gb  bt_driver.o [7]
bt_driver_recv_l2cap_header
                        0x200021f4      0x1  Data  Lc  bt_driver.o [7]
bt_driver_register_irq  0x100b2af1     0x18  Code  Lc  bt_driver.o [7]
bt_driver_rx            0x100b2c6d    0x264  Code  Lc  bt_driver.o [7]
bt_driver_rx_packet     0x20002200      0x4  Data  Lc  bt_driver.o [7]
bt_driver_rx_payload    0x200021f8      0x4  Data  Lc  bt_driver.o [7]
bt_driver_rx_payload_end
                        0x200021fc      0x4  Data  Lc  bt_driver.o [7]
bt_driver_rx_prefix     0x200021d4      0xc  Data  Lc  bt_driver.o [7]
bt_driver_rx_prefix_i   0x200021f3      0x1  Data  Lc  bt_driver.o [7]
bt_driver_rx_state      0x200021f2      0x1  Data  Lc  bt_driver.o [7]
bt_driver_rx_suspended_for_OOM
                        0x200021f0      0x1  Data  Lc  bt_driver.o [7]
bt_driver_trigger_controller_codedump
                        0x100a3eb1      0x2  Code  Wk  bt_platform.o [5]
bt_driver_tx            0x100b302d     0x5e  Code  Gb  bt_driver.o [7]
bt_driver_tx_wait       0x20035820      0x4  Data  Lc  bt_driver.o [7]
bt_driver_wmt_routine_completd
                        0x20035824      0x4  Data  Lc  bt_driver.o [7]
bt_driver_wmt_tx        0x100b308b     0x68  Code  Gb  bt_driver.o [7]
bt_driver_write         0x100b3009     0x24  Code  Lc  bt_driver.o [7]
bt_find_conn_by_handle  0x100a81d5     0x2c  Code  Gb  bt_common.o [5]
bt_find_tx_queue_by_handle
                        0x100a8201     0x16  Code  Gb  bt_common.o [5]
bt_free_packet_with_node
                        0x100a8335      0xe  Code  Gb  bt_common.o [5]
bt_gap_ata_callback     0x100aa281      0x6  Code  Wk  bt_gap_le.o [5]
bt_gap_debug_cmd_sending
                        0x100aa5e5     0x34  Code  Gb  bt_gap_le.o [5]
bt_gap_dump             0x100aa469     0x92  Code  Gb  bt_gap_le.o [5]
bt_gap_le_bond          0x100aae55     0xce  Code  Gb  bt_gap_le.o [5]
bt_gap_le_bond_reply_proc
                        0x100aad95     0x1c  Code  Gb  bt_gap_le.o [5]
bt_gap_le_bonding_reply
                        0x100aadcd     0x6e  Code  Gb  bt_gap_le.o [5]
bt_gap_le_cancel_connection
                        0x100ab319     0x32  Code  Gb  bt_gap_le.o [5]
bt_gap_le_connect       0x100ab199     0xca  Code  Gb  bt_gap_le.o [5]
bt_gap_le_connection_complete_rollback
                        0x100abce1     0x64  Code  Gb  bt_gap_le.o [5]
bt_gap_le_connection_destroy
                        0x100aa3f1     0x56  Code  Gb  bt_gap_le.o [5]
bt_gap_le_connection_proc
                        0x100ab051     0xd2  Code  Gb  bt_gap_le.o [5]
bt_gap_le_connection_update_proc
                        0x100ab441    0x24a  Code  Gb  bt_gap_le.o [5]
bt_gap_le_destroy_conn_ind_buff
                        0x100abbb5     0x40  Code  Gb  bt_gap_le.o [5]
bt_gap_le_disconnect    0x100ab375     0x5c  Code  Gb  bt_gap_le.o [5]
bt_gap_le_event_callback
                        0x100abd8d    0x572  Code  Gb  bt_gap_le.o [5]
bt_gap_le_get_bonding_info
                        0x100a7285     0x18  Code  Gb  ut_app.o [1]
bt_gap_le_get_local_config
                        0x100a729d     0x12  Code  Gb  ut_app.o [1]
bt_gap_le_get_local_key
                        0x100aa287      0x4  Code  Wk  bt_gap_le.o [5]
bt_gap_le_get_max_multiple_advertiser_instances_int
                        0x100a06c7      0x8  Code  Gb  bt_gap_le_adv.o [5]
bt_gap_le_get_max_multiple_advertiser_instances_weak
                        0x100a982f      0x4  Code  Gb  bt_gap_le_multi_adv.o [6]
bt_gap_le_get_max_multiple_advertising_instances
                        0x100a06bf      0x8  Code  Gb  bt_gap_le_adv.o [5]
bt_gap_le_get_pairing_config
                        0x100a72af     0x12  Code  Gb  ut_app.o [1]
bt_gap_le_init_event_mask
                        0x1009800c      0x8  Data  Lc  bt_gap_init.o [5]
bt_gap_le_init_le_event_mask
                        0x10098014      0x8  Data  Lc  bt_gap_init.o [5]
bt_gap_le_init_le_local_supported_features_mask
                        0x100b6030      0x8  Data  Lc  bt_gap_init.o [5]
bt_gap_le_init_local_supported_commands_mask
                        0x100b5fe8     0x40  Data  Lc  bt_gap_init.o [5]
bt_gap_le_init_local_supported_features_mask
                        0x100b6028      0x8  Data  Lc  bt_gap_init.o [5]
bt_gap_le_init_proc     0x100b5571    0x39c  Code  Gb  bt_gap_init.o [5]
bt_gap_le_init_table    0x100b6038     0x78  Data  Lc  bt_gap_init.o [5]
bt_gap_le_is_connection_update_request_accepted
                        0x100aa1b9     0x44  Code  Wk  bt_gap_le.o [5]
bt_gap_le_power_off_proc
                        0x100aa641     0x24  Code  Gb  bt_gap_le.o [5]
bt_gap_le_read_remote_used_features
                        0x100abca9     0x30  Code  Gb  bt_gap_le.o [5]
bt_gap_le_read_remote_used_features_proc
                        0x100abbf9     0xb0  Code  Gb  bt_gap_le.o [5]
bt_gap_le_read_rssi     0x100aba11     0x3c  Code  Gb  bt_gap_le.o [5]
bt_gap_le_read_rssi_proc
                        0x100ab9a5     0x68  Code  Gb  bt_gap_le.o [5]
bt_gap_le_set_address_resolution_enable
                        0x100aaacd     0x42  Code  Gb  bt_gap_le.o [5]
bt_gap_le_set_advertising
                        0x100a04e7     0x48  Code  Gb  bt_gap_le_adv.o [5]
bt_gap_le_set_advertising_weak
                        0x100a9809     0x26  Code  Gb  bt_gap_le_multi_adv.o [6]
bt_gap_le_set_random_address
                        0x100a0489     0x5e  Code  Gb  bt_gap_le_adv.o [5]
bt_gap_le_set_random_address_proc
                        0x100a0421     0x68  Code  Gb  bt_gap_le_adv.o [5]
bt_gap_le_set_resolvable_private_address_timeout
                        0x100aab39     0x42  Code  Gb  bt_gap_le.o [5]
bt_gap_le_set_resolving_config_proc
                        0x100aa8b9     0x94  Code  Gb  bt_gap_le.o [5]
bt_gap_le_set_resolving_list
                        0x100aa9d5     0xa2  Code  Gb  bt_gap_le.o [5]
bt_gap_le_set_scan      0x100aad19     0x46  Code  Gb  bt_gap_le.o [5]
bt_gap_le_set_scan_proc
                        0x100aabb1     0xf2  Code  Gb  bt_gap_le.o [5]
bt_gap_le_set_tx_power  0x100abb71     0x3c  Code  Gb  bt_gap_le.o [5]
bt_gap_le_set_tx_power_proc
                        0x100abb0d     0x5e  Code  Gb  bt_gap_le.o [5]
bt_gap_le_set_white_list
                        0x100aa7e9     0x7a  Code  Gb  bt_gap_le.o [5]
bt_gap_le_set_white_list_proc
                        0x100aa705     0x6a  Code  Gb  bt_gap_le.o [5]
bt_gap_le_start_multi_advertising_proc
                        0x100a0593    0x12c  Code  Lc  bt_gap_le_adv.o [5]
bt_gap_le_start_multiple_advertising
                        0x100a984b     0x52  Code  Gb  bt_gap_le_multi_adv.o [6]
bt_gap_le_start_multiple_advertising_int
                        0x100a0715    0x1b6  Code  Gb  bt_gap_le_adv.o [5]
bt_gap_le_stop_multi_advertising_proc
                        0x100a052f     0x64  Code  Lc  bt_gap_le_adv.o [5]
bt_gap_le_stop_multiple_advertising
                        0x100a9833     0x18  Code  Gb  bt_gap_le_multi_adv.o [6]
bt_gap_le_stop_multiple_advertising_int
                        0x100a06cf     0x46  Code  Gb  bt_gap_le_adv.o [5]
bt_gap_le_update_connection_parameter
                        0x100ab83d     0xa8  Code  Gb  bt_gap_le.o [5]
bt_gap_le_update_data_length
                        0x100abac1     0x3c  Code  Gb  bt_gap_le.o [5]
bt_gap_le_update_data_length_proc
                        0x100aba55     0x66  Code  Gb  bt_gap_le.o [5]
bt_gatt_rx_proc_handle_list
                        0x100ad02c     0x7c  Data  Lc  bt_att.o [5]
bt_gatt_rx_proc_not_supported_without_feedback
                        0x100acbed      0x4  Code  Gb  bt_att.o [5]
bt_gatt_service_execute_write
                        0x100e0219      0x4  Code  Wk  gatt_command.o [1]
bt_gatt_timeout_callback
                        0x100a1221     0x66  Code  Gb  bt_gattc.o [5]
bt_gattc_char_val_notify_and_ind
                        0x1009f75d     0x68  Code  Lc  bt_gattc_handle_op.o [1]
bt_gattc_connect        0x100a0d7d     0x7e  Code  Gb  bt_gattc_connect.o [1]
bt_gattc_disconnect     0x100a0dfb     0x2e  Code  Gb  bt_gattc_connect.o [1]
bt_gattc_discover_charactiristics_cnf
                        0x1009f055     0x7e  Code  Lc  bt_gattc_handle_op.o [1]
bt_gattc_discover_charateristic
                        0x1009f007     0x4e  Code  Lc  bt_gattc_handle_op.o [1]
bt_gattc_discover_charc
                        0x100a13f9     0x90  Code  Gb  bt_gattc.o [5]
bt_gattc_discover_charc_descriptor
                        0x100a1489     0x58  Code  Gb  bt_gattc.o [5]
bt_gattc_discover_complete
                        0x1009faf7     0x5e  Code  Lc  bt_gattc_handle_op.o [1]
bt_gattc_discover_descriptor_of_characteristic
                        0x1009f145     0x36  Code  Gb  bt_gattc_handle_op.o [1]
bt_gattc_discover_descriptors_cnf
                        0x1009f2ed     0xa4  Code  Lc  bt_gattc_handle_op.o [1]
bt_gattc_discover_include_service
                        0x1009ef37     0x3e  Code  Lc  bt_gattc_handle_op.o [1]
bt_gattc_discover_include_service_cnf
                        0x1009ef75     0x92  Code  Lc  bt_gattc_handle_op.o [1]
bt_gattc_discover_primary_service
                        0x100a12d5     0x4e  Code  Gb  bt_gattc.o [5]
bt_gattc_discover_primary_service_by_uuid
                        0x100a1323     0x7e  Code  Gb  bt_gattc.o [5]
bt_gattc_discover_primary_service_cnf
                        0x1009ee9b     0x8a  Code  Lc  bt_gattc_handle_op.o [1]
bt_gattc_event_callback
                        0x1009f7c5    0x2fe  Code  Gb  bt_gattc_handle_op.o [1]
bt_gattc_explore_service
                        0x1009ef25     0x12  Code  Lc  bt_gattc_handle_op.o [1]
bt_gattc_find_all_descriptor_of_char
                        0x1009f17b     0x9a  Code  Lc  bt_gattc_handle_op.o [1]
bt_gattc_find_included_services
                        0x100a13a1     0x58  Code  Gb  bt_gattc.o [5]
bt_gattc_get_char_by_handle
                        0x1009fbd5     0x44  Code  Gb  bt_gattc_handle_op.o [1]
bt_gattc_get_service    0x1009f40d     0x26  Code  Lc  bt_gattc_handle_op.o [1]
bt_gattc_link_info_by_id
                        0x100a0e69     0x44  Code  Gb  bt_gattc_connect.o [1]
bt_gattc_notify_error   0x1009faf5      0x2  Code  Lc  bt_gattc_handle_op.o [1]
bt_gattc_parse_char_command_data
                        0x1009f51b     0x40  Code  Gb  bt_gattc_handle_op.o [1]
bt_gattc_parse_characteristic
                        0x1009f55b     0xc4  Code  Lc  bt_gattc_handle_op.o [1]
bt_gattc_parse_descriptor
                        0x1009f61f     0xd4  Code  Lc  bt_gattc_handle_op.o [1]
bt_gattc_parse_include_command_data
                        0x1009f433     0x30  Code  Gb  bt_gattc_handle_op.o [1]
bt_gattc_parse_include_service
                        0x1009f463     0xb8  Code  Lc  bt_gattc_handle_op.o [1]
bt_gattc_parse_primary_service
                        0x1009f3ad     0x60  Code  Lc  bt_gattc_handle_op.o [1]
bt_gattc_prepare_write_charc
                        0x100a164f    0x128  Code  Gb  bt_gattc.o [5]
bt_gattc_read_charc     0x100a14e1     0x58  Code  Gb  bt_gattc.o [5]
bt_gattc_read_using_charc_uuid
                        0x100a1539     0x9e  Code  Gb  bt_gattc.o [5]
bt_gattc_rx_proc_error_rsp
                        0x100a1801     0x74  Code  Gb  bt_gattc.o [5]
bt_gattc_rx_proc_exchange_mtu_rsp
                        0x100a1875     0x2a  Code  Gb  bt_gattc.o [5]
bt_gattc_rx_proc_execute_write_rsp
                        0x100a1fe1     0x24  Code  Gb  bt_gattc.o [5]
bt_gattc_rx_proc_find_by_type_value_rsp
                        0x100a193b     0xe4  Code  Gb  bt_gattc.o [5]
bt_gattc_rx_proc_find_information_rsp
                        0x100a189f     0x9c  Code  Gb  bt_gattc.o [5]
bt_gattc_rx_proc_handle_value_indication
                        0x100a2021     0x32  Code  Gb  bt_gattc.o [5]
bt_gattc_rx_proc_handle_value_notification
                        0x100a2005     0x1c  Code  Gb  bt_gattc.o [5]
bt_gattc_rx_proc_prepare_write_rsp
                        0x100a1ecb    0x116  Code  Gb  bt_gattc.o [5]
bt_gattc_rx_proc_read_blob_rsp
                        0x100a1d6b     0x78  Code  Gb  bt_gattc.o [5]
bt_gattc_rx_proc_read_by_group_type_rsp
                        0x100a1e0f     0x8c  Code  Gb  bt_gattc.o [5]
bt_gattc_rx_proc_read_by_type_rsp
                        0x100a1a1f    0x1d8  Code  Gb  bt_gattc.o [5]
bt_gattc_rx_proc_read_multiple_rsp
                        0x100a1de9     0x26  Code  Gb  bt_gattc.o [5]
bt_gattc_rx_proc_read_rsp
                        0x100a1c05    0x166  Code  Gb  bt_gattc.o [5]
bt_gattc_rx_proc_write_rsp
                        0x100a1ead     0x1e  Code  Gb  bt_gattc.o [5]
bt_gattc_send_charc_value_confirmation
                        0x100a1777     0x54  Code  Gb  bt_gattc.o [5]
bt_gattc_set_scan       0x100a0d3b     0x42  Code  Gb  bt_gattc_connect.o [1]
bt_gattc_start_discover_service
                        0x1009edf3     0xa8  Code  Gb  bt_gattc_handle_op.o [1]
bt_gattc_write_char_cnf
                        0x1009f753      0xa  Code  Lc  bt_gattc_handle_op.o [1]
bt_gattc_write_charc    0x100a15d7     0x78  Code  Gb  bt_gattc.o [5]
bt_gattc_write_descr    0x1009f6f3     0x60  Code  Gb  bt_gattc_handle_op.o [1]
bt_gatts_fill_value_by_rec
                        0x100b386d     0x40  Code  Gb  bt_gatts.o [5]
bt_gatts_find_ending_handle_by_handle
                        0x100b37f9     0x14  Code  Gb  bt_gatts.o [5]
bt_gatts_find_handle_by_uuid
                        0x100b380d     0x44  Code  Gb  bt_gatts.o [5]
bt_gatts_find_valid_rec_from_handle
                        0x100b37c7     0x32  Code  Gb  bt_gatts.o [5]
bt_gatts_get_authorization_check_result
                        0x100a808d     0x5e  Code  Gb  ut_app.o [1]
bt_gatts_get_execute_write_result
                        0x100c668d      0x8  Code  Gb  gatt_service.o [1]
bt_gatts_get_rec        0x100b37a9     0x1e  Code  Gb  bt_gatts.o [5]
bt_gatts_get_service    0x100b376d     0x3c  Code  Gb  bt_gatts.o [5]
bt_gatts_get_value_length
                        0x100b3851     0x1c  Code  Gb  bt_gatts.o [5]
bt_gatts_rx_proc_exchange_mtu_req
                        0x100b3a59     0x5e  Code  Gb  bt_gatts.o [5]
bt_gatts_rx_proc_execute_write_req
                        0x100b4591     0x60  Code  Gb  bt_gatts.o [5]
bt_gatts_rx_proc_find_by_type_value_req
                        0x100b4155    0x19c  Code  Gb  bt_gatts.o [5]
bt_gatts_rx_proc_find_information_req
                        0x100b3d03    0x192  Code  Gb  bt_gatts.o [5]
bt_gatts_rx_proc_handle_value_confirmation
                        0x100b45f1     0x12  Code  Gb  bt_gatts.o [5]
bt_gatts_rx_proc_prepare_write_req
                        0x100b44d5     0xbc  Code  Gb  bt_gatts.o [5]
bt_gatts_rx_proc_read_by_group_type_req
                        0x100b3abd    0x246  Code  Gb  bt_gatts.o [5]
bt_gatts_rx_proc_read_multiple_req
                        0x100b3fd5    0x180  Code  Gb  bt_gatts.o [5]
bt_gatts_rx_proc_read_req
                        0x100b3e95    0x140  Code  Gb  bt_gatts.o [5]
bt_gatts_rx_proc_signed_write_command
                        0x100acbed      0x4  Code  Wk  bt_att.o [5]
bt_gatts_rx_proc_write_command
                        0x100acbed      0x4  Code  Wk  bt_att.o [5]
bt_gatts_rx_proc_write_req
                        0x100b42f9    0x1d0  Code  Gb  bt_gatts.o [5]
bt_gatts_security_and_rw_compare
                        0x100b38d5    0x118  Code  Gb  bt_gatts.o [5]
bt_gatts_send_charc_value_notification_indication
                        0x100b3719     0x54  Code  Gb  bt_gatts.o [5]
bt_gatts_set_max_mtu    0x100b3665     0x3c  Code  Gb  bt_gatts.o [5]
bt_gatts_write_value_by_rec
                        0x100b38ad     0x28  Code  Gb  bt_gatts.o [5]
bt_get_gatt_server      0x100c666d     0x10  Code  Gb  gatt_service.o [1]
bt_get_packet_from_node
                        0x100a8343      0x4  Code  Gb  bt_common.o [5]
bt_get_status_from_hci_event_cc
                        0x100a827d     0x1a  Code  Gb  bt_common.o [5]
bt_handle_interrupt     0x100a40cb     0x70  Code  Gb  bt_platform.o [5]
bt_hci_acl_le_send      0x100a8793     0x8a  Code  Gb  bt_hci.o [5]
bt_hci_acl_proc         0x100a894d    0x2ae  Code  Gb  bt_hci.o [5]
bt_hci_check_connection_type
                        0x100a83fd     0x24  Code  Gb  bt_hci.o [5]
bt_hci_cmd_send         0x100a881d    0x12a  Code  Gb  bt_hci.o [5]
bt_hci_connection_construct
                        0x100a851b     0x26  Code  Gb  bt_hci.o [5]
bt_hci_connection_destroy
                        0x100a8541     0x50  Code  Gb  bt_hci.o [5]
bt_hci_event_table      0x100a97c0     0x48  Data  Lc  bt_hci.o [5]
bt_hci_evt_proc         0x100a8bfb    0x162  Code  Gb  bt_hci.o [5]
bt_hci_get_acl_credit_counter_by_connection_type
                        0x100a8421     0x38  Code  Lc  bt_hci.o [5]
bt_hci_get_max_acl_packet_length_by_connection_type
                        0x100a8459     0x38  Code  Lc  bt_hci.o [5]
bt_hci_is_controller_buffer_shared
                        0x20035b47      0x1  Data  Lc  bt_hci.o [5]
bt_hci_log              0x100b28f9     0x8a  Code  Gb  bt_hci_log.o [1]
bt_hci_log_enabled      0x100a57f5      0x6  Code  Gb  ut_app.o [1]
bt_hci_nocp_callback    0x100a8491     0x8a  Code  Gb  bt_hci.o [5]
bt_hci_notify           0x100a3f5b     0x1e  Code  Gb  bt_platform.o [5]
bt_hci_notify_from_task
                        0x100a3f79     0x1e  Code  Gb  bt_platform.o [5]
bt_hci_process_packet   0x100a8d5d     0xe0  Code  Gb  bt_hci.o [5]
bt_hci_process_rx_oom   0x100a8e79      0x2  Code  Gb  bt_hci.o [5]
bt_hci_rx_cb_proc       0x100a8e3d      0xa  Code  Gb  bt_hci.o [5]
bt_hci_set_controller_buffer_is_shared
                        0x100a83e9     0x14  Code  Gb  bt_hci.o [5]
bt_hci_tx_notify        0x100a3f97     0x1e  Code  Gb  bt_platform.o [5]
bt_hci_tx_send          0x100a8591    0x202  Code  Gb  bt_hci.o [5]
bt_hr_notify            0x101036c5     0xce  Code  Lc  ble_gpio_service.o [1]
bt_hrc_app_callback     0x1009e23b      0x6  Code  Gb  ble_gpio_client.o [1]
bt_hrc_app_show_data    0x1009e241     0x50  Code  Lc  ble_gpio_client.o [1]
bt_hummingbird          0x200356e0    0x13c  Data  Gb  bt_common.o [5]
bt_hummingbird_deinit   0x100a3ef5      0x4  Code  Gb  bt_platform.o [5]
bt_if_ble_smtcn_service
                        0x10093edc      0xc  Data  Gb  ble_smtcn.o [1]
bt_if_ble_smtcn_service_rec
                        0x2000046c     0x10  Data  Lc  ble_smtcn.o [1]
bt_if_central_address_resolution
                        0x20000e00      0xc  Data  Lc  gatt_service.o [1]
bt_if_clm_gatt_server   0x20000e58     0x18  Data  Gb  gatt_service.o [1]
bt_if_dtp_char          0x10093eb4     0x10  Data  Lc  ble_smtcn.o [1]
bt_if_dtp_char_value    0x10093ec4      0xc  Data  Lc  ble_smtcn.o [1]
bt_if_dtp_client_config
                        0x10093ed0      0xc  Data  Lc  ble_smtcn.o [1]
bt_if_dtp_primary_service
                        0x10093ea8      0xc  Data  Lc  ble_smtcn.o [1]
bt_if_gap_appearance    0x100949ec      0xc  Data  Lc  gatt_service.o [1]
bt_if_gap_appearance_callback
                        0x100c6639     0x34  Code  Lc  gatt_service.o [1]
bt_if_gap_char4_appearance
                        0x20000dd8     0x10  Data  Lc  gatt_service.o [1]
bt_if_gap_char4_central_address_resolution
                        0x10094a08     0x10  Data  Lc  gatt_service.o [1]
bt_if_gap_char4_dev_name
                        0x20000dc8     0x10  Data  Lc  gatt_service.o [1]
bt_if_gap_char4_ppcp    0x100949f8     0x10  Data  Lc  gatt_service.o [1]
bt_if_gap_char4_serial_number
                        0x100949ac     0x10  Data  Lc  gatt_service.o [1]
bt_if_gap_dev_name      0x10094994      0xc  Data  Lc  gatt_service.o [1]
bt_if_gap_dev_name_callback
                        0x100c65bd     0x7c  Code  Lc  gatt_service.o [1]
bt_if_gap_dev_name_user_description
                        0x100949a0      0xc  Data  Lc  gatt_service.o [1]
bt_if_gap_ppcp          0x20000de8     0x18  Data  Lc  gatt_service.o [1]
bt_if_gap_primary_service
                        0x10094988      0xc  Data  Lc  gatt_service.o [1]
bt_if_gap_serial_number
                        0x100949bc     0x18  Data  Lc  gatt_service.o [1]
bt_if_gap_serial_number_user_description
                        0x100949d4     0x18  Data  Lc  gatt_service.o [1]
bt_if_gap_service       0x10094a18      0xc  Data  Lc  gatt_service.o [1]
bt_if_gap_service_rec   0x20000e0c     0x34  Data  Lc  gatt_service.o [1]
bt_if_gatt_service_ro   0x10094a40      0xc  Data  Lc  gatt_service.o [1]
bt_if_gpio_control      0x20000438     0x10  Data  Lc  ble_gpio_service.o [1]
bt_if_gpio_control_callback
                        0x10103845     0x66  Code  Lc  ble_gpio_service.o [1]
bt_if_gpio_control_client_config
                        0x10093e80      0xc  Data  Lc  ble_gpio_service.o [1]
bt_if_gpio_control_value
                        0x10093e74      0xc  Data  Lc  ble_gpio_service.o [1]
bt_if_gpio_primary_service
                        0x10093e68      0xc  Data  Lc  ble_gpio_service.o [1]
bt_if_gpio_service      0x10093e8c      0xc  Data  Gb  ble_gpio_service.o [1]
bt_if_gpio_service_rec  0x20000448     0x10  Data  Lc  ble_gpio_service.o [1]
bt_if_hearrate_primary_service
                        0x10093e28      0xc  Data  Lc  ble_gpio_service.o [1]
bt_if_heartrate_client_config
                        0x10093e50      0xc  Data  Lc  ble_gpio_service.o [1]
bt_if_heartrate_client_config_callback
                        0x10103793     0xb2  Code  Lc  ble_gpio_service.o [1]
bt_if_heartrate_measurement
                        0x10093e34     0x10  Data  Lc  ble_gpio_service.o [1]
bt_if_heartrate_measurement_value
                        0x10093e44      0xc  Data  Lc  ble_gpio_service.o [1]
bt_if_hr_service        0x10093e5c      0xc  Data  Gb  ble_gpio_service.o [1]
bt_if_hr_service_rec    0x20000428     0x10  Data  Lc  ble_gpio_service.o [1]
bt_init                 0x100a40ab     0x20  Code  Gb  bt_platform.o [5]
bt_is_bt_task_running   0x100a40a5      0x6  Code  Gb  bt_platform.o [5]
bt_is_connection_existing
                        0x100a8231     0x28  Code  Gb  bt_common.o [5]
bt_is_hci_cmd_connection_oriented
                        0x100a8259     0x24  Code  Gb  bt_common.o [5]
bt_l2cap_bqb_conn_param_update_proc
                        0x100b4c2f     0x28  Code  Gb  bt_l2cap_le.o [5]
bt_l2cap_check_valid_conn_update_params
                        0x100b4c01     0x2e  Code  Gb  bt_l2cap_le.o [5]
bt_l2cap_conn_param_update_req
                        0x100b4fdd     0x84  Code  Gb  bt_l2cap_le.o [5]
bt_l2cap_conn_param_update_rsp
                        0x100b5061     0x4a  Code  Gb  bt_l2cap_le.o [5]
bt_l2cap_le_cmd_send    0x100b4e81     0xde  Code  Gb  bt_l2cap_le.o [5]
bt_l2cap_le_command_reject
                        0x100b4f75     0x68  Code  Gb  bt_l2cap_le.o [5]
bt_l2cap_le_rx_proc     0x100b4d8b     0x8c  Code  Gb  bt_l2cap_le.o [5]
bt_l2cap_le_send        0x100b4e17     0x6a  Code  Gb  bt_l2cap_le.o [5]
bt_l2cap_le_signal_handle
                        0x100b4c57    0x134  Code  Gb  bt_l2cap_le.o [5]
bt_lib_version_hci      0x100a4029     0x7c  Code  Gb  bt_platform.o [5]
bt_linknode_cmp_backward
                        0x100aa185      0xe  Code  Gb  bt_linknode.o [5]
bt_linknode_cmp_type    0x100a9ccf     0x1e  Code  Gb  bt_memory.o [5]
bt_linknode_insert_node
                        0x100aa14d     0x16  Code  Gb  bt_linknode.o [5]
bt_linknode_remove_node
                        0x100aa163     0x22  Code  Gb  bt_linknode.o [5]
bt_linknode_travel_node
                        0x100aa193     0x24  Code  Gb  bt_linknode.o [5]
bt_memcmp               0x100a4151      0x4  Code  Gb  bt_platform.o [5]
bt_memcpy               0x100a414d      0x4  Code  Gb  bt_platform.o [5]
bt_memmove              0x100a4159      0x4  Code  Gb  bt_platform.o [5]
bt_memory_init_control_block
                        0x100a9c5d     0x72  Code  Gb  bt_memory.o [5]
bt_memory_init_packet   0x100a98d9     0x3e  Code  Gb  bt_memory.o [5]
bt_memset               0x100a4155      0x4  Code  Gb  bt_platform.o [5]
bt_mm_allocate_fixed_size_by_type_internal
                        0x100a9d25     0x78  Code  Gb  bt_memory.o [5]
bt_mm_allocate_packet_internal
                        0x100a99ef    0x15a  Code  Gb  bt_memory.o [5]
bt_mm_append_packet     0x100a9c15     0x3a  Code  Gb  bt_memory.o [5]
bt_mm_cb                0x200348b4     0x9c  Data  Gb  bt_memory.o [5]
bt_mm_cb_size_table     0x100aa144      0x8  Data  Lc  bt_memory.o [5]
bt_mm_check_and_merge   0x100a9917     0x5e  Code  Gb  bt_memory.o [5]
bt_mm_check_size_of_value
                        0x100a9c4f      0xe  Code  Lc  bt_memory.o [5]
bt_mm_dump_state        0x100a99af     0x40  Code  Gb  bt_memory.o [5]
bt_mm_free_fixed_size_by_type_internal
                        0x100a9d9d     0x6c  Code  Gb  bt_memory.o [5]
bt_mm_free_packet_internal
                        0x100a9b49     0xcc  Code  Gb  bt_memory.o [5]
bt_mm_init              0x10104ecf     0x3e  Code  Gb  bt_init.o [1]
bt_mm_is_allocatable_packet
                        0x100a9975     0x3a  Code  Gb  bt_memory.o [5]
bt_mm_is_fixed_size_available_by_type
                        0x100a9ced     0x30  Code  Gb  bt_memory.o [5]
bt_module_handle_notify
                        0x100a3fd3     0x1e  Code  Gb  bt_platform.o [5]
bt_module_handle_process
                        0x100a8347     0x3a  Code  Gb  bt_common.o [5]
bt_os_give_stack_mutex  0x100a3ebb      0x8  Code  Gb  bt_platform.o [5]
bt_os_layer_aes_encrypt
                        0x100b2223     0x38  Code  Gb  bt_os_layer_api.o [1]
bt_os_layer_create_mutex
                        0x100b2299      0x6  Code  Gb  bt_os_layer_api.o [1]
bt_os_layer_create_semaphore
                        0x100b22d3      0xa  Code  Gb  bt_os_layer_api.o [1]
bt_os_layer_delete_semaphore
                        0x100b22fd      0x4  Code  Gb  bt_os_layer_api.o [1]
bt_os_layer_disable_interrupt
                        0x100b2399     0x10  Code  Gb  bt_os_layer_api.o [1]
bt_os_layer_enable_interrupt
                        0x100b23a9      0x8  Code  Gb  bt_os_layer_api.o [1]
bt_os_layer_generate_random
                        0x100b2219      0xa  Code  Gb  bt_os_layer_api.o [1]
bt_os_layer_get_system_tick
                        0x100b2301      0x4  Code  Gb  bt_os_layer_api.o [1]
bt_os_layer_give_mutex  0x100b22bb     0x18  Code  Gb  bt_os_layer_api.o [1]
bt_os_layer_give_semaphore
                        0x100b22f3      0xa  Code  Gb  bt_os_layer_api.o [1]
bt_os_layer_give_semaphore_from_isr
                        0x100b22e9      0xa  Code  Gb  bt_os_layer_api.o [1]
bt_os_layer_init_timer  0x100b2267     0x28  Code  Gb  bt_os_layer_api.o [1]
bt_os_layer_is_timer_active
                        0x100b2375     0x1a  Code  Gb  bt_os_layer_api.o [1]
bt_os_layer_memcmp      0x100b23bd      0x4  Code  Gb  bt_os_layer_api.o [1]
bt_os_layer_memcpy      0x100b23b1      0xc  Code  Gb  bt_os_layer_api.o [1]
bt_os_layer_memmove     0x100b23d5      0xc  Code  Gb  bt_os_layer_api.o [1]
bt_os_layer_memset      0x100b23c1     0x14  Code  Gb  bt_os_layer_api.o [1]
bt_os_layer_register_timer_callback
                        0x100b2305      0x6  Code  Gb  bt_os_layer_api.o [1]
bt_os_layer_rtos_timer_os_expire
                        0x100b225b      0xc  Code  Lc  bt_os_layer_api.o [1]
bt_os_layer_sleep_task  0x100b228f      0xa  Code  Gb  bt_os_layer_api.o [1]
bt_os_layer_start_timer
                        0x100b230b     0x42  Code  Gb  bt_os_layer_api.o [1]
bt_os_layer_stop_timer  0x100b234d     0x28  Code  Gb  bt_os_layer_api.o [1]
bt_os_layer_take_mutex  0x100b229f     0x1c  Code  Gb  bt_os_layer_api.o [1]
bt_os_layer_take_semaphore
                        0x100b22dd      0xc  Code  Gb  bt_os_layer_api.o [1]
bt_os_stack_mutex       0x20034960      0x4  Data  Lc  bt_platform.o [5]
bt_os_take_stack_mutex  0x100a3eb3      0x8  Code  Gb  bt_platform.o [5]
bt_power_off            0x100aa681     0x52  Code  Gb  bt_gap_le.o [5]
bt_power_off_notify     0x100a3fb5     0x1e  Code  Gb  bt_platform.o [5]
bt_power_on             0x100aa28b     0xd8  Code  Gb  bt_gap_le.o [5]
bt_power_status         0x20035b44      0x1  Data  Gb  bt_gap_le.o [5]
bt_preread_local_address
                        0x10104c65    0x26a  Code  Lc  bt_init.o [1]
bt_preread_local_address::__FUNCTION__
                        0x10104fb8     0x1c  Data  Lc  bt_init.o [1]
bt_remove_link_node     0x100a8217     0x1a  Code  Gb  bt_common.o [5]
bt_reverse_key          0x100a8297     0x1a  Code  Gb  bt_common.o [5]
bt_rtos_timer           0x200040a4      0x4  Data  Lc  bt_os_layer_api.o [1]
bt_rtos_timer_cb        0x200040a8      0x4  Data  Lc  bt_os_layer_api.o [1]
bt_sm_cal_key_dist_method
                        0x100c7c65     0x7a  Code  Gb  bt_sm.o [5]
bt_sm_cal_key_gen_method
                        0x100c7825    0x118  Code  Gb  bt_sm.o [5]
bt_sm_calc_c1           0x100c6e2d     0x9a  Code  Gb  bt_sm.o [5]
bt_sm_calc_f4           0x100c6ee9    0x174  Code  Gb  bt_sm.o [5]
bt_sm_calc_f5           0x100c706d    0x170  Code  Gb  bt_sm.o [5]
bt_sm_calc_f6           0x100c7213    0x1b2  Code  Gb  bt_sm.o [5]
bt_sm_calc_g2           0x100c73f9    0x166  Code  Gb  bt_sm.o [5]
bt_sm_encrypt           0x100a3efd     0x3c  Code  Gb  bt_platform.o [5]
bt_sm_f5_salt           0x10098b9c     0x10  Data  Gb  bt_sm.o [5]
bt_sm_find_next_dist    0x100c6911     0x4c  Code  Gb  bt_sm.o [5]
bt_sm_gen_key_distribute_state
                        0x100c68b9     0x36  Code  Gb  bt_sm.o [5]
bt_sm_key_dist_receive  0x100c6b3d    0x178  Code  Gb  bt_sm.o [5]
bt_sm_key_dist_send     0x100c697d    0x152  Code  Gb  bt_sm.o [5]
bt_sm_master_pairing_proc
                        0x100c7d59   0x11c4  Code  Gb  bt_sm.o [5]
bt_sm_pairing_complete_ind
                        0x100c7a71    0x182  Code  Gb  bt_sm.o [5]
bt_sm_pairing_user_input_ind
                        0x100c79a5     0x9e  Code  Gb  bt_sm.o [5]
bt_sm_print_method      0x100c75a9     0xaa  Code  Gb  bt_sm.o [5]
bt_sm_random            0x100a3f39     0x22  Code  Gb  bt_platform.o [5]
bt_sm_reverse_and_encrypt
                        0x100c6df9     0x34  Code  Gb  bt_sm.o [5]
bt_sm_slave_pairing_proc
                        0x100c9025   0x109c  Code  Gb  bt_sm.o [5]
bt_smp_connection_destroy
                        0x100b6325     0x26  Code  Gb  bt_smp.o [5]
bt_smp_key_gen_method_table
                        0x1009801c     0x34  Data  Gb  bt_smp.o [5]
bt_smp_lesc_key_gen_method_table
                        0x10098050     0x34  Data  Gb  bt_smp.o [5]
bt_smp_pdu_size_table   0x100b664c     0x10  Data  Gb  bt_smp.o [5]
bt_smp_proc             0x100b6153    0x1d2  Code  Gb  bt_smp.o [5]
bt_smp_send             0x100b60b5     0x9e  Code  Gb  bt_smp.o [5]
bt_stack_lib_lastest_commit
                        0x100b2a13      0x6  Code  Gb  bt_stack_lib_verno.o [5]
bt_stack_lib_verno      0x100b2a0d      0x6  Code  Gb  bt_stack_lib_verno.o [5]
bt_task                 0x100b2487     0xe0  Code  Gb  bt_task.o [1]
bt_task_consume_hci_log
                        0x100b2421     0x66  Code  Gb  bt_task.o [1]
bt_task_consume_hci_log::__FUNCTION__
                        0x100b258c     0x18  Data  Lc  bt_task.o [1]
bt_task_events          0x2003495c      0x4  Data  Lc  bt_platform.o [5]
bt_task_running         0x20034958      0x1  Data  Lc  bt_platform.o [5]
bt_task_semaphore       0x200040ac      0x4  Data  Lc  bt_task.o [1]
bt_time_backward_cmp_duration
                        0x100b27f9     0x24  Code  Lc  bt_timer.o [5]
bt_time_backward_cmp_id
                        0x100b281d     0x14  Code  Lc  bt_timer.o [5]
bt_timer_cancel         0x100b26cd     0x54  Code  Gb  bt_timer.o [5]
bt_timer_cancel_and_callback
                        0x100b2721     0x3e  Code  Gb  bt_timer.o [5]
bt_timer_check_timeout_handler
                        0x100b275f     0x80  Code  Gb  bt_timer.o [5]
bt_timer_find           0x100b27df     0x1a  Code  Gb  bt_timer.o [5]
bt_timer_get_current_tick
                        0x100a3ef9      0x4  Code  Gb  bt_platform.o [5]
bt_timer_list           0x20035828      0x4  Data  Lc  bt_timer.o [5]
bt_timer_os_expire      0x100a3ed7     0x1e  Code  Lc  bt_platform.o [5]
bt_timer_start          0x100b2661     0x6c  Code  Gb  bt_timer.o [5]
bt_timer_start_timer    0x100a3ec3      0xa  Code  Gb  bt_platform.o [5]
bt_timer_stop_all_timer
                        0x100b2831     0x2c  Code  Gb  bt_timer.o [5]
bt_timer_stop_timer     0x100a3ecd      0xa  Code  Gb  bt_platform.o [5]
bt_trigger_interrupt    0x100b2567     0x1a  Code  Gb  bt_task.o [1]
bt_uuid_base            0x100a2154     0x10  Data  Lc  bt_uuid.o [5]
bt_uuid_copy            0x100a2085      0x6  Code  Gb  bt_uuid.o [5]
bt_uuid_equal           0x100a208b     0x10  Code  Gb  bt_uuid.o [5]
bt_uuid_is_uuid16       0x100a20af     0x1a  Code  Gb  bt_uuid.o [5]
bt_uuid_is_uuid32       0x100a209b     0x14  Code  Gb  bt_uuid.o [5]
bt_uuid_load            0x100a20c9     0x44  Code  Gb  bt_uuid.o [5]
bt_wakeup               0x100b31a3     0x28  Code  Gb  bt_driver.o [7]
bt_xor_16_byte          0x100a82bf     0x18  Code  Gb  bt_common.o [5]
buffer_pool_alloc       0x100838c9     0x6a  Code  Gb  syslog.o [10]
buffer_pool_init        0x100838b5     0x14  Code  Gb  syslog.o [10]
buffer_pool_release     0x10083933     0x36  Code  Gb  syslog.o [10]
build_cust_tlv_buf      0x10105ded     0x3e  Code  Gb  smt_core.o [14]
byte_snprintf           0x1007b19d     0xc4  Code  Lc  iperf_task.o [1]
cache_enable            0x10108a41     0x4c  Code  Lc  sys_init.o [1]
calculate_checksum      0x100b1315     0x30  Code  Lc  nvdm_data.o [13]
calculate_data_item_checksum
                        0x100b1345     0xc2  Code  Lc  nvdm_data.o [13]
calculate_total_avail_space
                        0x100c544b     0x4e  Code  Lc  nvdm_main.o [13]
callback_list_head      0x20034f40      0x4  Data  Gb  wifi_scan.o [15]
cancel_bonded_info      0x100a22fd     0x48  Code  Gb  connection_info.o [1]
cb                      0x200348b0      0x4  Data  Lc  cli.o [11]
ch_mutex                0x2003340c      0x4  Data  Gb  wifi_channel.o [1]
channel_list            0x20001244     0x14  Data  Gb  smt_api.o [1]
channel_times           0x20001258     0x10  Data  Gb  smt_api.o [1]
check_default_value     0x100c19c9     0xe0  Code  Lc  wifi_nvdm_config.o [1]
check_default_value::__FUNCTION__
                        0x100c1aa8     0x14  Data  Lc  wifi_nvdm_config.o [1]
check_pattern           0x100dfea5     0x1e  Code  Lc  nvdm_io.o [13]
check_raw_pkt_rssi_threshold
                        0x100d709d     0x48  Code  Gb  connsys_util.o [1]
check_raw_txd           0x100db447     0x3c  Code  Lc  wifi_inband.o [15]
check_sum               0x10105993     0x26  Code  Lc  smt_core.o [14]
chips_data              0x00100cf0    0x138  Data  Lc  spi_flash.o [1]
cipher_suite2driver     0x100e383d     0x26  Code  Gb  wpa_supplicant.o [12]
ciphersuite_definitions
                        0x100ccafc    0x1c0  Data  Lc  ssl_ciphersuites.o [1]
ciphersuite_preference  0x100cc874    0x288  Data  Lc  ssl_ciphersuites.o [1]
clear_TMR_INT_status_bit
                        0x1007f2e7     0x16  Code  Gb  timer.o [1]
clear_bonded_info       0x100a2345     0x2a  Code  Gb  connection_info.o [1]
cli_cmds_init           0x101053f3      0xe  Code  Gb  cli_cmds.o [1]
cli_def_create          0x10105405     0x54  Code  Gb  cli_def.o [1]
cli_def_task            0x10105459      0x8  Code  Gb  cli_def.o [1]
cli_init                0x10103d55      0x6  Code  Gb  cli.o [11]
cli_putln               0x10103dc7      0x4  Code  Gb  cli.o [11]
cli_puts                0x10103dad     0x1a  Code  Gb  cli.o [11]
cli_task                0x10103d5b     0x52  Code  Gb  cli.o [11]
cli_task_create         0x10105461     0x40  Code  Gb  cli_def.o [1]
cli_task_create::__FUNCTION__
                        0x101054b0     0x10  Data  Lc  cli_def.o [1]
cmdlist_resume_winbond  0x001006cc      0x4  Data  Gb  spi_flash.o [1]
cmdlist_suspend_winbond
                        0x001006c0      0x4  Data  Gb  spi_flash.o [1]
cmnCpuClkConfigureTo192M
                        0x1007f555     0x94  Code  Gb  top.o [1]
cmnCpuClkConfigureToXtal
                        0x1007f4ed     0x68  Code  Gb  top.o [1]
cmnPLL1OFF_PLL2OFF      0x1007f49d     0x50  Code  Gb  top.o [1]
cmnPLL1ON               0x1007f399     0x54  Code  Gb  top.o [1]
cmnPLL1ON_PLL2ON        0x1007f3ed     0xb0  Code  Gb  top.o [1]
cmnReadRegister32       0x1007f30d      0x4  Code  Lc  top.o [1]
cmnSerialFlashClkConfTo64M
                        0x00100ebb     0x4e  Code  Gb  top.o [1]
cmnSerialFlashClkConfToXtal
                        0x00100e95     0x26  Code  Gb  top.o [1]
cmnWriteRegister32      0x1007f309      0x4  Code  Lc  top.o [1]
cmp_era_date            0x101094bd     0x7c  Code  Lc  xgentime.o [4]
code_region_table       0x100bf798    0x1c4  Data  Gb  wifi_api.o [15]
common_check_default_value
                        0x100c1c55      0xc  Code  Lc  wifi_nvdm_config.o [1]
common_reset_to_default
                        0x100c1c61      0xc  Code  Lc  wifi_nvdm_config.o [1]
common_show_value       0x100c1c6d      0xc  Code  Lc  wifi_nvdm_config.o [1]
compare_buffer          0x100dfec3     0x20  Code  Lc  nvdm_io.o [13]
config_default_txd      0x100db431     0x16  Code  Lc  wifi_inband.o [15]
config_name             0x20002194      0x4  Data  Lc  wpa_supplicant_entry.o [12]
conn_interval           0x20002594      0x2  Data  Gb  gatt_command.o [1]
conn_update_para        0x200333f8     0x10  Data  Gb  ut_app.o [1]
conn_update_para_default
                        0x20001814     0x10  Data  Gb  ut_app.o [1]
connect_para            0x200333d8     0x1c  Data  Gb  ut_app.o [1]
connect_para_default    0x200017f4     0x1c  Data  Gb  ut_app.o [1]
connection_cb           0x200040b0     0xb0  Data  Gb  connection_info.o [1]
connection_cb_buf       0x2000355c    0x640  Data  Lc  bt_init.o [1]
connsys_abnormal_interrupt_check
                        0x100d4159     0x4e  Code  Gb  connsys_driver.o [1]
connsys_abnormal_interrupt_check::__FUNCTION__
                        0x100d4b24     0x24  Data  Lc  connsys_driver.o [1]
connsys_bus_disable_func
                        0x100d30bf     0x8a  Code  Gb  connsys_bus.o [1]
connsys_bus_disable_func::__FUNCTION__
                        0x100d36ac     0x1c  Data  Lc  connsys_bus.o [1]
connsys_bus_enable_func
                        0x100d2fd9     0xe6  Code  Gb  connsys_bus.o [1]
connsys_bus_enable_func::__FUNCTION__
                        0x100d3600     0x18  Data  Lc  connsys_bus.o [1]
connsys_bus_fn0_read_byte
                        0x100d2f6d     0x22  Code  Gb  connsys_bus.o [1]
connsys_bus_fn0_write_byte
                        0x100d2f95     0x44  Code  Gb  connsys_bus.o [1]
connsys_bus_fn0_write_byte::__FUNCTION__
                        0x100d35c8     0x1c  Data  Lc  connsys_bus.o [1]
connsys_bus_get_bus     0x100d2761      0x2  Code  Gb  connsys_bus.o [1]
connsys_bus_get_irq     0x100d3187     0xd2  Code  Gb  connsys_bus.o [1]
connsys_bus_get_irq::__FUNCTION__
                        0x100d3728     0x14  Data  Lc  connsys_bus.o [1]
connsys_bus_read_port   0x100d2835     0xd4  Code  Gb  connsys_bus.o [1]
connsys_bus_read_port::__FUNCTION__
                        0x100d32c8     0x18  Data  Lc  connsys_bus.o [1]
connsys_bus_read_port_dma
                        0x100d27cd     0x68  Code  Gb  connsys_bus.o [1]
connsys_bus_read_port_garbage
                        0x100d2909     0x78  Code  Gb  connsys_bus.o [1]
connsys_bus_read_port_pio
                        0x100d2765     0x44  Code  Gb  connsys_bus.o [1]
connsys_bus_read_port_pio_garbage
                        0x100d27a9     0x24  Code  Gb  connsys_bus.o [1]
connsys_bus_readl       0x100d2f05     0x30  Code  Gb  connsys_bus.o [1]
connsys_bus_release_bus
                        0x100d2763      0x2  Code  Gb  connsys_bus.o [1]
connsys_bus_release_irq
                        0x100d3259     0x4e  Code  Gb  connsys_bus.o [1]
connsys_bus_release_irq::__FUNCTION__
                        0x100d37ac     0x18  Data  Lc  connsys_bus.o [1]
connsys_bus_set_block_size
                        0x100d3149     0x3e  Code  Gb  connsys_bus.o [1]
connsys_bus_write_port  0x100d2b13     0xf6  Code  Gb  connsys_bus.o [1]
connsys_bus_write_port::__FUNCTION__
                        0x100d33ec     0x18  Data  Lc  connsys_bus.o [1]
connsys_bus_write_port_dma
                        0x100d2ab3     0x60  Code  Lc  connsys_bus.o [1]
connsys_bus_write_port_pio
                        0x100d2a4f     0x64  Code  Lc  connsys_bus.o [1]
connsys_bus_writel      0x100d2f35     0x38  Code  Gb  connsys_bus.o [1]
connsys_cli_clear_debug_falg
                        0x100d77b5     0x4a  Code  Gb  connsys_util.o [1]
connsys_cli_clear_debug_falg::__FUNCTION__
                        0x100d7800     0x20  Data  Lc  connsys_util.o [1]
connsys_cli_dump_pse_reg
                        0x100d7f6d     0x4c  Code  Gb  connsys_util.o [1]
connsys_cli_set_debug_falg
                        0x100d7739     0x4a  Code  Gb  connsys_util.o [1]
connsys_cli_set_debug_falg::__FUNCTION__
                        0x100d7784     0x1c  Data  Lc  connsys_util.o [1]
connsys_cli_show_current_debug_flag
                        0x100d78f5     0x4a  Code  Gb  connsys_util.o [1]
connsys_cli_show_debug_flag
                        0x100d7871     0x2e  Code  Gb  connsys_util.o [1]
connsys_cli_show_help   0x100d8005     0xf6  Code  Gb  connsys_util.o [1]
connsys_cli_show_pse    0x100d7b69    0x1f6  Code  Gb  connsys_util.o [1]
connsys_close           0x100d445d     0x96  Code  Gb  connsys_driver.o [1]
connsys_close::__FUNCTION__
                        0x100d4dac     0x10  Data  Lc  connsys_driver.o [1]
connsys_cr_read         0x100d400d     0x2c  Code  Gb  connsys_driver.o [1]
connsys_cr_write        0x100d4039     0x2c  Code  Gb  connsys_driver.o [1]
connsys_create_inband_fw_scatter_txd_rom
                        0x100d5cd9     0x14  Code  Gb  connsys_util.o [1]
connsys_deliver_inband  0x100d9275     0x12  Code  Gb  inband_queue.o [15]
connsys_disable_interrupt
                        0x100d44f9      0x6  Code  Gb  connsys_driver.o [1]
connsys_disable_whier_trx_int
                        0x100d450d     0x28  Code  Gb  connsys_driver.o [1]
connsys_dispatch        0x100d710b    0x14e  Code  Gb  connsys_util.o [1]
connsys_dispatch::__FUNCTION__
                        0x100d7344     0x14  Data  Lc  connsys_util.o [1]
connsys_download_wifi_profile
                        0x100d5615     0xae  Code  Lc  connsys_util.o [1]
connsys_download_wifi_profile::__FUNCTION__
                        0x100d56c4     0x20  Data  Lc  connsys_util.o [1]
connsys_driver_interrupt
                        0x100d40ad     0x1a  Code  Gb  connsys_driver.o [1]
connsys_dump_cmd53_info
                        0x100d2981     0xce  Code  Gb  connsys_bus.o [1]
connsys_dump_cmd53_info::__FUNCTION__
                        0x100d3314     0x18  Data  Lc  connsys_bus.o [1]
connsys_dump_cr         0x100d3a29    0x25c  Code  Gb  connsys_driver.o [1]
connsys_dump_tx_scatter_info
                        0x100d2c09     0xae  Code  Gb  connsys_bus.o [1]
connsys_dump_tx_scatter_info::__FUNCTION__
                        0x100d3474     0x20  Data  Lc  connsys_bus.o [1]
connsys_dump_whisr      0x100d3f19     0x76  Code  Gb  connsys_driver.o [1]
connsys_enable_enhance_mode
                        0x100d41c7     0xbe  Code  Gb  connsys_driver.o [1]
connsys_enable_enhance_mode::__FUNCTION__
                        0x100d4b8c     0x1c  Data  Lc  connsys_driver.o [1]
connsys_enable_interrupt
                        0x100d44ff      0xe  Code  Gb  connsys_driver.o [1]
connsys_enalbe_whier_rx_int
                        0x100d4535     0x28  Code  Gb  connsys_driver.o [1]
connsys_enalbe_whier_tx_int
                        0x100d455d     0x28  Code  Gb  connsys_driver.o [1]
connsys_fifo_read       0x100d4065     0x3a  Code  Gb  connsys_driver.o [1]
connsys_fifo_read::__FUNCTION__
                        0x100d4a8c     0x14  Data  Lc  connsys_driver.o [1]
connsys_fifo_write      0x100d409f      0xe  Code  Gb  connsys_driver.o [1]
connsys_fw_download_CmdAddressLenReq
                        0x100d5c57     0x3c  Code  Gb  connsys_util.o [1]
connsys_fw_download_CmdAddressLenReq::__FUNCTION__
                        0x100d5cb0     0x28  Data  Lc  connsys_util.o [1]
connsys_fw_download_Tx_Scatter
                        0x100d5f45     0xe0  Code  Gb  connsys_util.o [1]
connsys_fw_download_Tx_Scatter::__FUNCTION__
                        0x100d603c     0x20  Data  Lc  connsys_util.o [1]
connsys_get_headroom_offset
                        0x100d4885      0xe  Code  Gb  connsys_driver.o [1]
connsys_get_ilm_image_info_from_flash
                        0x100d526b     0xce  Code  Gb  connsys_util.o [1]
connsys_get_ilm_image_info_from_flash::__FUNCTION__
                        0x100d5338     0x28  Data  Lc  connsys_util.o [1]
connsys_get_ownership   0x100d40c7     0x92  Code  Gb  connsys_driver.o [1]
connsys_get_ownership::__FUNCTION__
                        0x100d4acc     0x18  Data  Lc  connsys_driver.o [1]
connsys_get_patch_semaphore
                        0x100d665d    0x240  Code  Gb  connsys_util.o [1]
connsys_get_patch_semaphore::__FUNCTION__
                        0x100d68ac     0x1c  Data  Lc  connsys_util.o [1]
connsys_img_direct_download
                        0x100d53e9    0x128  Code  Gb  connsys_util.o [1]
connsys_img_direct_download::__FUNCTION__
                        0x100d5510     0x1c  Data  Lc  connsys_util.o [1]
connsys_init            0x100d4a1d     0x56  Code  Gb  connsys_driver.o [1]
connsys_intr_enhance_mode_dump_struct
                        0x100d6ee9     0xaa  Code  Gb  connsys_util.o [1]
connsys_intr_enhance_mode_receive_one_data
                        0x100d7359    0x11c  Code  Gb  connsys_util.o [1]
connsys_intr_enhance_mode_receive_one_data::__FUNCTION__
                        0x100d7514     0x2c  Data  Lc  connsys_util.o [1]
connsys_intr_enhance_mode_receive_one_data::continuous_allocate_fail_cnt
                        0x20005000      0x4  Data  Lc  connsys_util.o [1]
connsys_irq_handler     0x100d41a7     0x20  Code  Gb  connsys_driver.o [1]
connsys_open            0x100d4285    0x1d8  Code  Gb  connsys_driver.o [1]
connsys_open::__FUNCTION__
                        0x100d4c04     0x10  Data  Lc  connsys_driver.o [1]
connsys_ops             0x20004b90      0x4  Data  Gb  connsys_driver.o [1]
connsys_patch_download_body
                        0x100d6a79    0x140  Code  Gb  connsys_util.o [1]
connsys_patch_download_body::__FUNCTION__
                        0x100d6bc0     0x1c  Data  Lc  connsys_util.o [1]
connsys_patch_finish    0x100d59a9    0x1ae  Code  Gb  connsys_util.o [1]
connsys_patch_finish::__FUNCTION__
                        0x100d5b58     0x18  Data  Lc  connsys_util.o [1]
connsys_pda_config      0x100d60d1    0x170  Code  Gb  connsys_util.o [1]
connsys_pda_config::__FUNCTION__
                        0x100d6250     0x14  Data  Lc  connsys_util.o [1]
connsys_print_stat      0x100d381b     0xc2  Code  Gb  connsys_driver.o [1]
connsys_raw_handler     0x20004ff4      0x4  Data  Gb  connsys_util.o [1]
connsys_set_headroom_offset
                        0x100d4893      0xe  Code  Gb  connsys_driver.o [1]
connsys_set_rxraw_handler
                        0x100d70e5      0x8  Code  Gb  connsys_util.o [1]
connsys_set_wifi_profile
                        0x100d6a6d      0x8  Code  Gb  connsys_util.o [1]
connsys_show_config_option
                        0x100d4843     0x42  Code  Gb  connsys_driver.o [1]
connsys_tx_flow_control_check_and_update_tx
                        0x100d4605     0xb8  Code  Gb  connsys_driver.o [1]
connsys_tx_flow_control_config
                        0x100d46bd     0x2e  Code  Gb  connsys_driver.o [1]
connsys_tx_flow_control_config::__FUNCTION__
                        0x100d4e30     0x20  Data  Lc  connsys_driver.o [1]
connsys_tx_flow_control_init
                        0x100d4585     0x30  Code  Gb  connsys_driver.o [1]
connsys_tx_flow_control_set_reserve_page
                        0x100d46eb     0x36  Code  Gb  connsys_driver.o [1]
connsys_tx_flow_control_set_reserve_page::__FUNCTION__
                        0x100d4e90     0x2c  Data  Lc  connsys_driver.o [1]
connsys_tx_flow_control_set_reserve_page_by_cr
                        0x100d4721     0x1c  Code  Gb  connsys_driver.o [1]
connsys_tx_flow_control_show_info
                        0x100d4741    0x102  Code  Gb  connsys_driver.o [1]
connsys_tx_flow_control_update_free_page_cnt
                        0x100d45bd     0x44  Code  Gb  connsys_driver.o [1]
connsys_tx_query_whisr  0x100d7aa5     0x32  Code  Gb  connsys_util.o [1]
connsys_util_cli_handler
                        0x100d85cd    0x1f8  Code  Gb  connsys_util.o [1]
connsys_util_cli_handler::__FUNCTION__
                        0x100d87ec     0x1c  Data  Lc  connsys_util.o [1]
connsys_util_create_inband_cmd_txd_rom
                        0x100d5c45     0x12  Code  Gb  connsys_util.o [1]
connsys_util_firmware_download
                        0x100d599d      0xc  Code  Gb  connsys_util.o [1]
connsys_util_fw_direct_download
                        0x100d5765    0x14a  Code  Gb  connsys_util.o [1]
connsys_util_fw_direct_download::__FUNCTION__
                        0x100d58b0     0x20  Data  Lc  connsys_util.o [1]
connsys_util_fw_download_CmdAddressLenReq_event_check
                        0x100d5ced     0x70  Code  Gb  connsys_util.o [1]
connsys_util_fw_download_CmdAddressLenReq_event_check::__FUNCTION__
                        0x100d5d60     0x38  Data  Lc  connsys_util.o [1]
connsys_util_fw_download_done
                        0x100d6305    0x226  Code  Gb  connsys_util.o [1]
connsys_util_fw_download_done::__FUNCTION__
                        0x100d652c     0x20  Data  Lc  connsys_util.o [1]
connsys_util_get_n9_fw_ver
                        0x100d5259     0x12  Code  Gb  connsys_util.o [1]
connsys_util_get_ncp_patch_ver
                        0x100d6d71      0xc  Code  Gb  connsys_util.o [1]
connsys_util_intr_enhance_mode_dump_last_struct
                        0x100d7071      0x6  Code  Gb  connsys_util.o [1]
connsys_util_intr_enhance_mode_receive_data
                        0x100d7541    0x156  Code  Gb  connsys_util.o [1]
connsys_util_intr_enhance_mode_receive_data::__FUNCTION__
                        0x100d76e0     0x2c  Data  Lc  connsys_util.o [1]
connsys_util_patch_download
                        0x100d6d7d     0x74  Code  Gb  connsys_util.o [1]
connsys_util_patch_download::__FUNCTION__
                        0x100d6dfc     0x1c  Data  Lc  connsys_util.o [1]
connsys_util_patch_download_get_semaphore_event_check
                        0x100d5e29     0x78  Code  Gb  connsys_util.o [1]
connsys_util_patch_download_get_semaphore_event_check::__FUNCTION__
                        0x100d5ea4     0x38  Data  Lc  connsys_util.o [1]
connsys_util_pda_download
                        0x100d62e9     0x1c  Code  Gb  connsys_util.o [1]
connsys_util_pse_get_p0_min_resv
                        0x100d7a99      0xc  Code  Gb  connsys_util.o [1]
connsys_util_tx_data    0x100d6e51     0x5a  Code  Gb  connsys_util.o [1]
connsys_util_tx_data::__FUNCTION__
                        0x100d6eb0     0x18  Data  Lc  connsys_util.o [1]
connsys_write_data      0x100d2cb7    0x24e  Code  Gb  connsys_bus.o [1]
connsys_write_data::__FUNCTION__
                        0x100d3514     0x14  Data  Lc  connsys_bus.o [1]
convert_string_to_hex_array
                        0x100e191d     0x70  Code  Gb  misc.o [1]
copy_str_to_addr        0x100a562d     0x52  Code  Gb  ut_app.o [1]
copy_str_to_byte        0x100a567f     0x58  Code  Gb  ut_app.o [1]
country_channel_list    0x20033408      0x4  Data  Gb  wifi_channel.o [1]
ctr_drbg_update_internal
                        0x100bd773     0x7c  Code  Lc  ctr_drbg.o [1]
ctrl_interface          0x200021a0      0x4  Data  Lc  wpa_supplicant_entry.o [12]
customer_flash_read_SR2_comand
                        0x10104945      0x4  Code  Gb  bsp_flash_config.o [1]
customer_flash_register
                        0x10104949      0x4  Code  Gb  bsp_flash_config.o [1]
customer_flash_suspend_bit
                        0x10104941      0x4  Code  Gb  bsp_flash_config.o [1]
data_item_header_print_info
                        0x100b1279     0x74  Code  Lc  nvdm_data.o [13]
data_item_init          0x100b1ba1     0x6e  Code  Gb  nvdm_data.o [13]
data_item_read          0x10109cfd     0x58  Code  Lc  nvdm_cli.o [1]
data_item_reset         0x10109dcd     0x4a  Code  Lc  nvdm_cli.o [1]
data_item_scan          0x100b195b    0x246  Code  Gb  nvdm_data.o [13]
data_item_show          0x10109e17     0x4a  Code  Lc  nvdm_cli.o [1]
data_item_write         0x10109d55     0x70  Code  Lc  nvdm_cli.o [1]
data_migration          0x100b1c0f     0xa4  Code  Lc  nvdm_data.o [13]
date_item_migration     0x100b1cb3    0x18a  Code  Gb  nvdm_data.o [13]
days                    0x10109000     0x58  Data  Lc  xlocale_c.o [4]
debug_print_line_by_line
                        0x100bb375     0x64  Code  Lc  debug.o [1]
debug_print_pk          0x100bb2c5     0xb0  Code  Lc  debug.o [1]
debug_send_line         0x100baf25     0x3a  Code  Lc  debug.o [1]
debug_threshold         0x20005004      0x4  Data  Lc  debug.o [1]
default_bqb_gap_io_callback
                        0x1010acb1      0x4  Code  Gb  ut_app_gap.o [1]
default_bqb_get_gatt_server
                        0x100e020d      0x4  Code  Gb  gatt_command.o [1]
default_bt_addr         0x100a2498      0x8  Data  Lc  connection_info.o [1]
default_bt_app_gattc_io_callback
                        0x100e0211      0x4  Code  Gb  gatt_command.o [1]
default_bt_app_gatts_io_callback
                        0x100e0215      0x4  Code  Gb  gatt_command.o [1]
default_bt_app_l2cap_io_callback
                        0x100a4211      0x4  Code  Gb  ut_app.o [1]
default_bt_app_sm_io_callback
                        0x100a4215      0x4  Code  Gb  ut_app.o [1]
default_bt_driver_trigger_controller_codedump
                        0x100a3eb1      0x2  Code  Gb  bt_platform.o [5]
default_bt_gap_ata_callback
                        0x100aa281      0x6  Code  Gb  bt_gap_le.o [5]
default_bt_gap_le_get_local_key
                        0x100aa287      0x4  Code  Gb  bt_gap_le.o [5]
default_bt_gap_le_is_connection_update_request_accepted
                        0x100aa1b9     0x44  Code  Gb  bt_gap_le.o [5]
default_bt_gatt_service_execute_write
                        0x100e0219      0x4  Code  Gb  gatt_command.o [1]
delay_ms                0x1007f26d     0x2a  Code  Gb  timer.o [1]
delay_time              0x1007f24b     0x1c  Code  Gb  timer.o [1]
delete_connection_info  0x100a21ed     0x3a  Code  Gb  connection_info.o [1]
des3_crypt_cbc_wrap     0x10105307     0x10  Code  Lc  cipher_wrap.o [1]
des3_crypt_ecb_wrap     0x101052ef      0x8  Code  Lc  cipher_wrap.o [1]
des3_ctx_alloc          0x1010535b     0x1c  Code  Lc  cipher_wrap.o [1]
des3_ctx_free           0x10105377     0x12  Code  Lc  cipher_wrap.o [1]
des3_set2key            0x100e062f     0x6e  Code  Lc  des.o [1]
des3_set2key_dec_wrap   0x1010531f      0x4  Code  Lc  cipher_wrap.o [1]
des3_set2key_enc_wrap   0x10105323      0x4  Code  Lc  cipher_wrap.o [1]
des3_set3key            0x100e06d7     0x72  Code  Lc  des.o [1]
des3_set3key_dec_wrap   0x10105327      0x4  Code  Lc  cipher_wrap.o [1]
des3_set3key_enc_wrap   0x1010532b      0x4  Code  Lc  cipher_wrap.o [1]
des_cbc_info            0x1009453c     0x1c  Data  Lc  cipher_wrap.o [1]
des_crypt_cbc_wrap      0x101052f7     0x10  Code  Lc  cipher_wrap.o [1]
des_crypt_ecb_wrap      0x101052e7      0x8  Code  Lc  cipher_wrap.o [1]
des_ctx_alloc           0x1010532f     0x1a  Code  Lc  cipher_wrap.o [1]
des_ctx_free            0x10105349     0x12  Code  Lc  cipher_wrap.o [1]
des_ecb_info            0x10094520     0x1c  Data  Lc  cipher_wrap.o [1]
des_ede3_cbc_info       0x100945ec     0x1c  Data  Lc  cipher_wrap.o [1]
des_ede3_ecb_info       0x100945d0     0x1c  Data  Lc  cipher_wrap.o [1]
des_ede3_info           0x100945b0     0x20  Data  Lc  cipher_wrap.o [1]
des_ede_cbc_info        0x10094594     0x1c  Data  Lc  cipher_wrap.o [1]
des_ede_ecb_info        0x10094578     0x1c  Data  Lc  cipher_wrap.o [1]
des_ede_info            0x10094558     0x20  Data  Lc  cipher_wrap.o [1]
des_info                0x10094500     0x20  Data  Lc  cipher_wrap.o [1]
des_setkey_dec_wrap     0x10105317      0x4  Code  Lc  cipher_wrap.o [1]
des_setkey_enc_wrap     0x1010531b      0x4  Code  Lc  cipher_wrap.o [1]
dhcp_arp_reply          0x1008fa59     0x30  Code  Gb  dhcp.o [1]
dhcp_bind               0x1008fbc1    0x120  Code  Lc  dhcp.o [1]
dhcp_check              0x1008f5b3     0x30  Code  Lc  dhcp.o [1]
dhcp_coarse_tmr         0x1008f6f5     0x66  Code  Gb  dhcp.o [1]
dhcp_config_init        0x100c27b7     0x36  Code  Gb  wifi_nvdm_config.o [1]
dhcp_create_msg         0x100905fd    0x1b0  Code  Lc  dhcp.o [1]
dhcp_create_msg::xid    0x2000503c      0x4  Data  Lc  dhcp.o [1]
dhcp_decline            0x1008fa89     0x7a  Code  Lc  dhcp.o [1]
dhcp_delete_msg         0x100907ad     0x64  Code  Lc  dhcp.o [1]
dhcp_discover           0x1008fb03     0xbe  Code  Lc  dhcp.o [1]
dhcp_discover_select_options
                        0x20000b7c      0x4  Data  Lc  dhcp.o [1]
dhcp_fine_tmr           0x1008f75b     0x3e  Code  Gb  dhcp.o [1]
dhcp_handle_ack         0x1008f877     0x98  Code  Lc  dhcp.o [1]
dhcp_handle_nak         0x1008f591     0x22  Code  Lc  dhcp.o [1]
dhcp_handle_offer       0x1008f5e3     0x28  Code  Lc  dhcp.o [1]
dhcp_network_changed    0x1008fa35     0x24  Code  Gb  dhcp.o [1]
dhcp_option             0x1008ffcb     0x44  Code  Lc  dhcp.o [1]
dhcp_option_byte        0x1009000f     0x30  Code  Lc  dhcp.o [1]
dhcp_option_long        0x10090081     0x62  Code  Lc  dhcp.o [1]
dhcp_option_short       0x1009003f     0x42  Code  Lc  dhcp.o [1]
dhcp_option_trailer     0x10090811     0x86  Code  Lc  dhcp.o [1]
dhcp_parse_reply        0x100900e3    0x3d2  Code  Lc  dhcp.o [1]
dhcp_rebind             0x1008fd71     0x8e  Code  Lc  dhcp.o [1]
dhcp_reboot             0x1008fdff     0xa8  Code  Lc  dhcp.o [1]
dhcp_recv               0x100904c1     0xf8  Code  Lc  dhcp.o [1]
dhcp_release            0x1008fea7     0xa0  Code  Gb  dhcp.o [1]
dhcp_renew              0x1008fce1     0x90  Code  Gb  dhcp.o [1]
dhcp_rx_options_given   0x20005008      0xc  Data  Gb  dhcp.o [1]
dhcp_rx_options_val     0x20005014     0x28  Data  Gb  dhcp.o [1]
dhcp_select             0x1008f60b     0xea  Code  Lc  dhcp.o [1]
dhcp_set_state          0x1008ffb9     0x12  Code  Lc  dhcp.o [1]
dhcp_start              0x1008f90f    0x126  Code  Gb  dhcp.o [1]
dhcp_stop               0x1008ff61     0x58  Code  Gb  dhcp.o [1]
dhcp_supplied_address   0x10090897     0x1c  Code  Gb  dhcp.o [1]
dhcp_t1_timeout         0x1008f813     0x30  Code  Lc  dhcp.o [1]
dhcp_t2_timeout         0x1008f843     0x34  Code  Lc  dhcp.o [1]
dhcp_timeout            0x1008f799     0x7a  Code  Lc  dhcp.o [1]
dhcp_timer_coarse       0x100884b7     0x14  Code  Lc  lwip_timers.o [1]
dhcp_timer_fine         0x100884cb     0x1e  Code  Lc  lwip_timers.o [1]
dhcp_timer_needed       0x100884e9     0x18  Code  Gb  lwip_timers.o [1]
dhcpd_alloc_infos_in_use
                        0x20000bc0      0x4  Data  Lc  dhcpd.o [1]
dhcpd_alloc_infos_unuse
                        0x20000bc4      0x4  Data  Lc  dhcpd.o [1]
dhcpd_alloc_new_ip      0x100c3089    0x134  Code  Gb  dhcpd.o [1]
dhcpd_alloc_new_ip::__FUNCTION__
                        0x100c3284     0x14  Data  Lc  dhcpd.o [1]
dhcpd_do_discover       0x100c3a8b     0xfa  Code  Lc  dhcpd.o [1]
dhcpd_do_discover::__FUNCTION__
                        0x100c4540     0x14  Data  Lc  dhcpd.o [1]
dhcpd_do_request        0x100c3b85    0x358  Code  Lc  dhcpd.o [1]
dhcpd_do_request::__FUNCTION__
                        0x100c4590     0x14  Data  Lc  dhcpd.o [1]
dhcpd_find_alloc_info_by_mac
                        0x100c2e65     0xb4  Code  Gb  dhcpd.o [1]
dhcpd_find_alloc_info_by_mac::__FUNCTION__
                        0x100c2f40     0x20  Data  Lc  dhcpd.o [1]
dhcpd_insert_alloc_info_into_list
                        0x100c2cc9     0x68  Code  Gb  dhcpd.o [1]
dhcpd_insert_alloc_info_into_list::__FUNCTION__
                        0x100c2d4c     0x24  Data  Lc  dhcpd.o [1]
dhcpd_ip_cmp            0x100c2fb5     0x38  Code  Gb  dhcpd.o [1]
dhcpd_ip_pool_end       0x20000b98      0x4  Data  Lc  dhcpd.o [1]
dhcpd_ip_pool_start     0x20000b94      0x4  Data  Lc  dhcpd.o [1]
dhcpd_is_ip_allocable   0x100c2fed     0x9c  Code  Gb  dhcpd.o [1]
dhcpd_last_alloc_ip     0x20000b9c      0x4  Data  Lc  dhcpd.o [1]
dhcpd_lease_address     0x100c37f9    0x156  Code  Lc  dhcpd.o [1]
dhcpd_lease_address::__FUNCTION__
                        0x100c43b4     0x14  Data  Lc  dhcpd.o [1]
dhcpd_log_ip            0x100c2c83     0x2c  Code  Lc  dhcpd.o [1]
dhcpd_log_ip::__FUNCTION__
                        0x100c2cb8     0x10  Data  Lc  dhcpd.o [1]
dhcpd_memzero_settings  0x100c33c1     0x5e  Code  Gb  dhcpd.o [1]
dhcpd_msg               0x20000bbc      0x4  Data  Lc  dhcpd.o [1]
dhcpd_mutex             0x20000bb8      0x4  Data  Lc  dhcpd.o [1]
dhcpd_mutex_lock        0x100c2c59     0x1a  Code  Lc  dhcpd.o [1]
dhcpd_mutex_new         0x100c2bfd     0x32  Code  Lc  dhcpd.o [1]
dhcpd_mutex_new::__FUNCTION__
                        0x100c2c48     0x10  Data  Lc  dhcpd.o [1]
dhcpd_mutex_unlock      0x100c2c73     0x10  Code  Lc  dhcpd.o [1]
dhcpd_opt_dns_tlv_int   0x100c32a1     0xac  Code  Lc  dhcpd.o [1]
dhcpd_opt_dns_tlv_int::__FUNCTION__
                        0x100c3378     0x18  Data  Lc  dhcpd.o [1]
dhcpd_opt_tlv_int       0x100c3a4b     0x40  Code  Lc  dhcpd.o [1]
dhcpd_opt_tlv_int::__FUNCTION__
                        0x100c4510     0x14  Data  Lc  dhcpd.o [1]
dhcpd_prepare           0x100c4001    0x1d2  Code  Lc  dhcpd.o [1]
dhcpd_prepare::__FUNCTION__
                        0x100c4714     0x10  Data  Lc  dhcpd.o [1]
dhcpd_primary_dns       0x20000bc8      0x4  Data  Lc  dhcpd.o [1]
dhcpd_release_alloc_info_lists
                        0x100c3391     0x30  Code  Gb  dhcpd.o [1]
dhcpd_remove_alloc_info_from_list
                        0x100c2d71     0x6e  Code  Gb  dhcpd.o [1]
dhcpd_remove_alloc_info_from_list::__FUNCTION__
                        0x100c2e40     0x24  Data  Lc  dhcpd.o [1]
dhcpd_running           0x20000bb0      0x4  Data  Lc  dhcpd.o [1]
dhcpd_secondary_dns     0x20000bcc      0x4  Data  Lc  dhcpd.o [1]
dhcpd_send_ack          0x20000b80      0x1  Data  Lc  dhcpd.o [1]
dhcpd_send_response     0x100c3955     0xf6  Code  Lc  dhcpd.o [1]
dhcpd_send_response::__FUNCTION__
                        0x100c4490     0x14  Data  Lc  dhcpd.o [1]
dhcpd_server_address    0x20000ba0      0x4  Data  Lc  dhcpd.o [1]
dhcpd_server_gw         0x20000ba8      0x4  Data  Lc  dhcpd.o [1]
dhcpd_server_netmask    0x20000ba4      0x4  Data  Lc  dhcpd.o [1]
dhcpd_set_ip_pool       0x100c2959     0x48  Code  Lc  wifi_nvdm_config.o [1]
dhcpd_set_settings      0x100c341f     0x72  Code  Gb  dhcpd.o [1]
dhcpd_set_settings::__FUNCTION__
                        0x100c34c8     0x14  Data  Lc  dhcpd.o [1]
dhcpd_settings_init     0x100c29a1     0x6a  Code  Gb  wifi_nvdm_config.o [1]
dhcpd_socket            0x20000bb4      0x4  Data  Lc  dhcpd.o [1]
dhcpd_start             0x100c34dd    0x272  Code  Gb  dhcpd.o [1]
dhcpd_start::__FUNCTION__
                        0x100948dc      0xc  Data  Lc  dhcpd.o [1]
dhcpd_stop              0x100c4289     0x96  Code  Gb  dhcpd.o [1]
dhcpd_stop::__FUNCTION__
                        0x100c47c4      0xc  Data  Lc  dhcpd.o [1]
dhcpd_task_handle       0x20000bac      0x4  Data  Lc  dhcpd.o [1]
dhcpd_task_loop         0x100c3edd    0x124  Code  Lc  dhcpd.o [1]
dhcpd_task_loop::__FUNCTION__
                        0x100c4678     0x10  Data  Lc  dhcpd.o [1]
dhcpd_wifi_api_rx_event_handler
                        0x100c374f     0xaa  Code  Lc  dhcpd.o [1]
dhcpd_wifi_api_rx_event_handler::__FUNCTION__
                        0x100c4354     0x20  Data  Lc  dhcpd.o [1]
digits                  0x1007f7ac     0x28  Data  Lc  xstoul.o [4]
disconnect_para         0x200333f4      0x4  Data  Gb  ut_app.o [1]
disconnect_para_default
                        0x20001810      0x4  Data  Gb  ut_app.o [1]
disconnect_reason_recoverable
                        0x100f3601     0x14  Code  Lc  events.o [12]
dl_list_add             0x100e6863      0xe  Code  Lc  eloop.o [12]
dl_list_add             0x100e6f4d      0xe  Code  Lc  bss.o [12]
dl_list_add_tail        0x100e6871      0x4  Code  Lc  eloop.o [12]
dl_list_add_tail        0x100e6f5b      0x4  Code  Lc  bss.o [12]
dl_list_del             0x100e6875     0x14  Code  Lc  eloop.o [12]
dl_list_del             0x100e6f5f     0x14  Code  Lc  bss.o [12]
dl_list_empty           0x100e6889      0xe  Code  Lc  eloop.o [12]
dl_list_empty           0x100e6f73      0xe  Code  Lc  bss.o [12]
dl_list_init            0x100e685d      0x6  Code  Lc  eloop.o [12]
dl_list_init            0x100e6f47      0x6  Code  Lc  bss.o [12]
dl_list_init            0x100e2a6b      0x6  Code  Lc  wpa_supplicant.o [12]
dl_list_init            0x100ebe21      0x6  Code  Lc  wpa.o [12]
dmul                    0x10089dc1     0x5a  Code  Lc  xdtento.o [16]
dns_alloc_pcb           0x1008e50b     0x60  Code  Lc  dns.o [1]
dns_alloc_random_port   0x1008e4bb     0x50  Code  Lc  dns.o [1]
dns_call_found          0x1008e56b     0xae  Code  Lc  dns.o [1]
dns_check_entries       0x1008e759     0x14  Code  Lc  dns.o [1]
dns_check_entry         0x1008e649     0xda  Code  Lc  dns.o [1]
dns_check_table_empty   0x1008e723     0x36  Code  Lc  dns.o [1]
dns_compare_name        0x1008e2e9     0x5a  Code  Lc  dns.o [1]
dns_create_txid         0x1008e619     0x2e  Code  Lc  dns.o [1]
dns_enqueue             0x1008e8db    0x170  Code  Lc  dns.o [1]
dns_gethostbyname       0x1008ea4b     0x76  Code  Gb  dns.o [1]
dns_gethostbyname_addrtype
                        0x1008eae5      0x2  Code  Gb  dns.o [1]
dns_init                0x1008e251     0x16  Code  Gb  dns.o [1]
dns_last_pcb_idx        0x20005048      0x1  Data  Lc  dns.o [1]
dns_lookup              0x1008e2a5     0x44  Code  Lc  dns.o [1]
dns_parse_name          0x1008e343     0x3c  Code  Lc  dns.o [1]
dns_pcbs                0x2000504c     0x10  Data  Lc  dns.o [1]
dns_recv                0x1008e76d    0x16e  Code  Lc  dns.o [1]
dns_requests            0x2000549c     0x30  Data  Lc  dns.o [1]
dns_send                0x1008e37f    0x13c  Code  Lc  dns.o [1]
dns_seqno               0x20035b35      0x1  Data  Lc  dns.o [1]
dns_servers             0x20005040      0x8  Data  Lc  dns.o [1]
dns_setserver           0x1008e267     0x20  Code  Gb  dns.o [1]
dns_stricmp             0x1008e221     0x30  Code  Lc  dns.o [1]
dns_table               0x2000505c    0x440  Data  Lc  dns.o [1]
dns_timer               0x10088501     0x1e  Code  Lc  lwip_timers.o [1]
dns_timer_needed        0x1008851f     0x18  Code  Gb  lwip_timers.o [1]
dns_tmr                 0x1008e287     0x1e  Code  Gb  dns.o [1]
do_aes_decrypt          0x10106955     0x60  Code  Lc  hal_aes.o [1]
do_aes_decrypt::__FUNCTION__
                        0x10106b44     0x10  Data  Lc  hal_aes.o [1]
do_process_drv_event    0x100ea87d    0x168  Code  Lc  driver_inband.o [12]
driver_inband_update_proto_cipher_from_N9
                        0x100ea855     0x28  Code  Lc  driver_inband.o [12]
driver_msg_recv         0x100e92c1     0x6e  Code  Lc  driver_inband.o [12]
drvGPIO_IDX_0_LISR      0x100d1ef9      0xa  Code  Gb  hal_gpio_7687.o [1]
drvGPIO_IDX_1_LISR      0x100d1f03      0xa  Code  Gb  hal_gpio_7687.o [1]
drvGPIO_IDX_35_LISR     0x100d1f3f      0xa  Code  Gb  hal_gpio_7687.o [1]
drvGPIO_IDX_37_LISR     0x100d1f49      0xa  Code  Gb  hal_gpio_7687.o [1]
drvGPIO_IDX_38_LISR     0x100d1f53      0xa  Code  Gb  hal_gpio_7687.o [1]
drvGPIO_IDX_39_LISR     0x100d1f5d      0xa  Code  Gb  hal_gpio_7687.o [1]
drvGPIO_IDX_3_LISR      0x100d1f0d      0xa  Code  Gb  hal_gpio_7687.o [1]
drvGPIO_IDX_4_LISR      0x100d1f17      0xa  Code  Gb  hal_gpio_7687.o [1]
drvGPIO_IDX_5_LISR      0x100d1f21      0xa  Code  Gb  hal_gpio_7687.o [1]
drvGPIO_IDX_6_LISR      0x100d1f2b      0xa  Code  Gb  hal_gpio_7687.o [1]
drvGPIO_IDX_7_LISR      0x100d1f35      0xa  Code  Gb  hal_gpio_7687.o [1]
drvGPT2Init             0x1007f2df      0x4  Code  Gb  timer.o [1]
drvGPT4Init             0x1007f2e3      0x4  Code  Gb  timer.o [1]
drvTMR_init             0x1007f297     0x40  Code  Gb  timer.o [1]
drv_event_eapol_rx      0x100e8f5d     0x2a  Code  Lc  driver_inband.o [12]
dump_bonded_info_list   0x100a236f     0x3a  Code  Gb  connection_info.o [1]
dump_connection_info_list
                        0x100a21a9     0x44  Code  Gb  connection_info.o [1]
dump_module_buffer      0x10083eff     0x1a  Code  Gb  syslog.o [10]
dump_scan_param         0x1010e853     0xf2  Code  Lc  wifi_ex_config.o [1]
eTaskGetState           0x1007d6ef     0x64  Code  Gb  tasks.o [1]
eap_copy_buf            0x100ff1a7     0x2a  Code  Lc  eap_server.o [12]
eap_copy_data           0x100ff1d1     0x3e  Code  Lc  eap_server.o [12]
eap_get_id              0x10101beb     0x1a  Code  Gb  eap_common.o [12]
eap_get_interface       0x101002b3      0x4  Code  Gb  eap_server.o [12]
eap_get_type            0x10101c05     0x1a  Code  Gb  eap_common.o [12]
eap_hdr_validate        0x10101ae9     0x96  Code  Gb  eap_common.o [12]
eap_identity_buildReq   0x100f9daf     0x62  Code  Lc  eap_server_identity.o [12]
eap_identity_check      0x100f9e11     0x18  Code  Lc  eap_server_identity.o [12]
eap_identity_init       0x100f9d83     0x16  Code  Lc  eap_server_identity.o [12]
eap_identity_initPickUp
                        0x100f9d99     0x10  Code  Lc  eap_server_identity.o [12]
eap_identity_isDone     0x100f9ea9      0xc  Code  Lc  eap_server_identity.o [12]
eap_identity_isSuccess  0x100f9eb5      0xe  Code  Lc  eap_server_identity.o [12]
eap_identity_process    0x100f9e29     0x80  Code  Lc  eap_server_identity.o [12]
eap_identity_reset      0x100f9da9      0x6  Code  Lc  eap_server_identity.o [12]
eap_methods             0x20035a2c      0x4  Data  Lc  eap_server_methods.o [12]
eap_msg_alloc           0x10101b7f     0x6c  Code  Gb  eap_common.o [12]
eap_peer_unregister_methods
                        0x100e2a69      0x2  Code  Lc  wpa_supplicant.o [12]
eap_register_methods    0x100f45e1      0x4  Code  Gb  eap_register.o [12]
eap_server_clear_identity
                        0x101002b7     0x14  Code  Gb  eap_server.o [12]
eap_server_get_eap_method
                        0x100f45e5     0x20  Code  Gb  eap_server_methods.o [12]
eap_server_get_name     0x100f46a5     0x2e  Code  Gb  eap_server_methods.o [12]
eap_server_identity_register
                        0x100f9ec3     0x4e  Code  Gb  eap_server_identity.o [12]
eap_server_method_alloc
                        0x100f4605     0x22  Code  Gb  eap_server_methods.o [12]
eap_server_method_free  0x100f4627      0x4  Code  Gb  eap_server_methods.o [12]
eap_server_method_register
                        0x100f462b     0x5a  Code  Gb  eap_server_methods.o [12]
eap_server_sm_deinit    0x10100227     0x82  Code  Gb  eap_server.o [12]
eap_server_sm_init      0x10100153     0xd4  Code  Gb  eap_server.o [12]
eap_server_sm_step      0x10100113     0x24  Code  Gb  eap_server.o [12]
eap_server_unregister_methods
                        0x100f4685     0x20  Code  Gb  eap_server_methods.o [12]
eap_sm_Policy_doPickUp  0x10100107      0xc  Code  Lc  eap_server.o [12]
eap_sm_Policy_getDecision
                        0x10100001    0x106  Code  Lc  eap_server.o [12]
eap_sm_Policy_getNextMethod
                        0x100fffa1     0x60  Code  Lc  eap_server.o [12]
eap_sm_Policy_update    0x100fff7f     0x22  Code  Lc  eap_server.o [12]
eap_sm_buildFailure     0x100ffe99     0x28  Code  Lc  eap_server.o [12]
eap_sm_buildSuccess     0x100ffe71     0x28  Code  Lc  eap_server.o [12]
eap_sm_calculateTimeout
                        0x100ffda5     0x1c  Code  Lc  eap_server.o [12]
eap_sm_getId            0x100ffe53     0x1e  Code  Lc  eap_server.o [12]
eap_sm_nextId           0x100ffec1     0x1c  Code  Lc  eap_server.o [12]
eap_sm_notify_cached    0x101002a9      0xa  Code  Gb  eap_server.o [12]
eap_sm_parseEapResp     0x100ffdc1     0x92  Code  Lc  eap_server.o [12]
eap_sm_process_nak      0x100ffedd     0xa2  Code  Gb  eap_server.o [12]
eap_user_free           0x10100137     0x1c  Code  Lc  eap_server.o [12]
eap_user_get            0x100ff20f     0x72  Code  Gb  eap_server.o [12]
eapol_auth_alloc        0x100fec09    0x150  Code  Gb  eapol_auth_sm.o [12]
eapol_auth_conf_clone   0x100fef9d     0xfa  Code  Lc  eapol_auth_sm.o [12]
eapol_auth_conf_free    0x100ff097     0x2e  Code  Lc  eapol_auth_sm.o [12]
eapol_auth_deinit       0x100ff129     0x1e  Code  Gb  eapol_auth_sm.o [12]
eapol_auth_free         0x100fed59     0x34  Code  Gb  eapol_auth_sm.o [12]
eapol_auth_init         0x100ff0c5     0x64  Code  Gb  eapol_auth_sm.o [12]
eapol_auth_initialize   0x100fef2d     0x3e  Code  Lc  eapol_auth_sm.o [12]
eapol_auth_logger       0x100fdf8b      0xe  Code  Lc  eapol_auth_sm.o [12]
eapol_auth_step         0x100fef17     0x12  Code  Gb  eapol_auth_sm.o [12]
eapol_auth_tx_canned_eap
                        0x100fdfe3     0x7a  Code  Lc  eapol_auth_sm.o [12]
eapol_auth_tx_req       0x100fe09d     0x9c  Code  Lc  eapol_auth_sm.o [12]
eapol_auth_vlogger      0x100fdf99     0x4a  Code  Lc  eapol_auth_sm.o [12]
eapol_cb                0x200022b8      0x8  Data  Lc  eapol_auth_sm.o [12]
eapol_port_timers_tick  0x100fe1a5     0x5c  Code  Lc  eapol_auth_sm.o [12]
eapol_sm_deinit         0x100e2a59      0x2  Code  Lc  wpa_supplicant.o [12]
eapol_sm_get_eap_req_id_text
                        0x100fef8d     0x10  Code  Lc  eapol_auth_sm.o [12]
eapol_sm_get_eap_user   0x100fef79     0x14  Code  Lc  eapol_auth_sm.o [12]
eapol_sm_get_key        0x100ebe01      0x6  Code  Lc  wpa.o [12]
eapol_sm_invalidate_cached_session
                        0x100e2a67      0x2  Code  Lc  wpa_supplicant.o [12]
eapol_sm_invalidate_cached_session
                        0x100f1647      0x2  Code  Lc  events.o [12]
eapol_sm_notify_cached  0x100ebe07      0x2  Code  Lc  wpa.o [12]
eapol_sm_notify_config  0x100e2a65      0x2  Code  Lc  wpa_supplicant.o [12]
eapol_sm_notify_eap_success
                        0x100e2a63      0x2  Code  Lc  wpa_supplicant.o [12]
eapol_sm_notify_eap_success
                        0x100ebdff      0x2  Code  Lc  wpa.o [12]
eapol_sm_notify_eap_success
                        0x100f1645      0x2  Code  Lc  events.o [12]
eapol_sm_notify_lower_layer_success
                        0x100ebe09      0x2  Code  Lc  wpa.o [12]
eapol_sm_notify_portEnabled
                        0x100e2a5f      0x2  Code  Lc  wpa_supplicant.o [12]
eapol_sm_notify_portEnabled
                        0x100f1641      0x2  Code  Lc  events.o [12]
eapol_sm_notify_portValid
                        0x100e2a61      0x2  Code  Lc  wpa_supplicant.o [12]
eapol_sm_notify_portValid
                        0x100ebdfd      0x2  Code  Lc  wpa.o [12]
eapol_sm_notify_portValid
                        0x100f1643      0x2  Code  Lc  events.o [12]
eapol_sm_notify_tx_eapol_key
                        0x100ebdfb      0x2  Code  Lc  wpa.o [12]
eapol_sm_rx_eapol       0x100e2a5b      0x4  Code  Lc  wpa_supplicant.o [12]
eapol_sm_sta_entry_alive
                        0x100fed8d      0x8  Code  Lc  eapol_auth_sm.o [12]
eapol_sm_step_cb        0x100fef15      0x2  Code  Lc  eapol_auth_sm.o [12]
eapol_sm_step_run       0x100fed95    0x180  Code  Lc  eapol_auth_sm.o [12]
eapp_input              0x10105a5b     0x2e  Code  Lc  smt_core.o [14]
ebuf                    0x20035a30     0x50  Data  Lc  xfiles.o [4]
efsm                    0x20034964    0x114  Data  Lc  smt_core.o [14]
efsm_cleanup            0x1010570f     0x20  Code  Lc  elian.o [1]
efsm_init               0x101056b1     0x5e  Code  Lc  elian.o [1]
efsm_init::__FUNCTION__
                        0x10105840      0xc  Data  Lc  elian.o [1]
efunc_tbl               0x1010587c     0x10  Data  Gb  elian.o [1]
eint_gpio_table         0x100b117c     0x18  Data  Lc  hal_eint.o [1]
eint_irq_handle         0x100a2ec1     0x76  Code  Gb  mcs.o [1]
eint_irq_handle::btn_down_count
                        0x20001058      0x4  Data  Lc  mcs.o [1]
eint_irq_handle::btn_up_count
                        0x2000105c      0x4  Data  Lc  mcs.o [1]
eint_irq_handle::press_step
                        0x20001060      0x4  Data  Lc  mcs.o [1]
elian_aes_decrypt       0x1010568d     0x24  Code  Lc  elian.o [1]
elian_get               0x10105d83     0x62  Code  Gb  smt_core.o [14]
elian_get_info          0x101054e9     0xfe  Code  Lc  elian.o [1]
elian_get_info::__FUNCTION__
                        0x1010573c     0x10  Data  Lc  elian.o [1]
elian_init              0x10105cfd     0x86  Code  Gb  smt_core.o [14]
elian_input             0x10105a89    0x274  Code  Gb  smt_core.o [14]
elian_proto_ops         0x10094918     0x10  Data  Gb  elian.o [1]
elian_report_env        0x101055f5     0x50  Code  Lc  elian.o [1]
elian_report_env::__FUNCTION__
                        0x101057a8     0x14  Data  Lc  elian.o [1]
elian_reset             0x10105de5      0x4  Code  Gb  smt_core.o [14]
elian_rst_timer         0x20000c98      0x4  Data  Lc  elian.o [1]
elian_start_timer       0x10105645     0x30  Code  Lc  elian.o [1]
elian_stop_timer        0x10105675     0x18  Code  Lc  elian.o [1]
elian_timeout           0x101054d5     0x14  Code  Lc  elian.o [1]
eloop                   0x20035938     0x4c  Data  Lc  eloop.o [12]
eloop_cancel_timeout    0x100e6c09     0x54  Code  Gb  eloop.o [12]
eloop_destroy           0x100e6e8d     0x42  Code  Gb  eloop.o [12]
eloop_get_sock_table    0x100e6a69     0x22  Code  Lc  eloop.o [12]
eloop_init              0x100e6897     0x1c  Code  Gb  eloop.o [12]
eloop_is_timeout_registered
                        0x100e6c5d     0x32  Code  Gb  eloop.o [12]
eloop_process_pending_signals
                        0x100e6c8f     0x44  Code  Lc  eloop.o [12]
eloop_register_read_sock
                        0x100e6a55     0x10  Code  Gb  eloop.o [12]
eloop_register_sock     0x100e6a8b     0x20  Code  Gb  eloop.o [12]
eloop_register_timeout  0x100e6abd    0x13a  Code  Gb  eloop.o [12]
eloop_remove_timeout    0x100e6bf7     0x12  Code  Lc  eloop.o [12]
eloop_run               0x100e6cd3    0x1b2  Code  Gb  eloop.o [12]
eloop_sock_table_add_sock
                        0x100e68b3     0x78  Code  Lc  eloop.o [12]
eloop_sock_table_destroy
                        0x100e6a37     0x1e  Code  Lc  eloop.o [12]
eloop_sock_table_dispatch
                        0x100e69d1     0x66  Code  Lc  eloop.o [12]
eloop_sock_table_remove_sock
                        0x100e692b     0x5c  Code  Lc  eloop.o [12]
eloop_sock_table_set_fds
                        0x100e6987     0x4a  Code  Lc  eloop.o [12]
eloop_terminate         0x100e6e85      0x8  Code  Gb  eloop.o [12]
eloop_unregister_read_sock
                        0x100e6a65      0x4  Code  Gb  eloop.o [12]
eloop_unregister_sock   0x100e6aab     0x12  Code  Gb  eloop.o [12]
end_count               0x20000fb8      0x4  Data  Lc  iperf_task.o [1]
enqueue_bottom_half_from_isr
                        0x100bea7f     0x10  Code  Gb  ethernetif.o [1]
entropy_gather_internal
                        0x100bdaaf     0x7e  Code  Lc  entropy.o [1]
entropy_update          0x100bda6b     0x44  Code  Lc  entropy.o [1]
era                     0x10109058      0x1  Data  Lc  xlocale_c.o [4]
err_tcp                 0x10086e35    0x126  Code  Lc  api_msg.o [1]
err_to_errno_table      0x1007cfc0     0x44  Data  Lc  sockets.o [1]
eth_bc_addr             0x10105ef8      0x8  Data  Lc  smt_core.o [14]
etharp_arp_input        0x10088ae3    0x18c  Code  Lc  etharp.o [1]
etharp_cached_entry     0x20035b37      0x1  Data  Lc  etharp.o [1]
etharp_find_entry       0x10088831    0x1b4  Code  Lc  etharp.o [1]
etharp_free_entry       0x100887ad     0x22  Code  Lc  etharp.o [1]
etharp_output           0x10088cdf    0x166  Code  Gb  etharp.o [1]
etharp_output_to_arp_index
                        0x10088c6f     0x70  Code  Lc  etharp.o [1]
etharp_query            0x10088e45    0x1c6  Code  Gb  etharp.o [1]
etharp_raw              0x1008900b    0x110  Code  Lc  etharp.o [1]
etharp_request          0x1008913f      0x6  Code  Gb  etharp.o [1]
etharp_request_dst      0x1008911b     0x24  Code  Lc  etharp.o [1]
etharp_send_ip          0x100889e5     0x5a  Code  Lc  etharp.o [1]
etharp_tmr              0x100887cf     0x62  Code  Gb  etharp.o [1]
etharp_update_arp_entry
                        0x10088a3f     0xa4  Code  Lc  etharp.o [1]
ethbroadcast            0x10089470      0x8  Data  Gb  etharp.o [1]
ethernet_input          0x10089145     0xa8  Code  Gb  etharp.o [1]
ethernet_raw_pkt_sender
                        0x100be7e7     0x56  Code  Gb  ethernetif.o [1]
ethernet_raw_pkt_sender::__FUNCTION__
                        0x100bef10     0x18  Data  Lc  ethernetif.o [1]
ethernetif_free_pkt     0x100bea7b      0x4  Code  Gb  ethernetif.o [1]
ethernetif_init         0x100bea8f     0xda  Code  Gb  ethernetif.o [1]
ethernetif_init1        0x100be6d3     0x8a  Code  Gb  ethernetif.o [1]
ethernetif_init1::__FUNCTION__
                        0x100bee40     0x14  Data  Lc  ethernetif.o [1]
ethernetif_init2        0x100be75d     0x8a  Code  Gb  ethernetif.o [1]
ethernetif_init2::__FUNCTION__
                        0x100beefc     0x14  Data  Lc  ethernetif.o [1]
ethernetif_init::__FUNCTION__
                        0x100bf07c     0x10  Data  Lc  ethernetif.o [1]
ethernetif_init_callback
                        0x100be6bd     0x16  Code  Gb  ethernetif.o [1]
ethernetif_intr_enhance_mode_allocate_pkt_callback
                        0x100be83d     0x26  Code  Gb  ethernetif.o [1]
ethernetif_intr_enhance_mode_dispatch
                        0x100be863    0x1b8  Code  Gb  ethernetif.o [1]
ethernetif_intr_enhance_mode_dispatch::__FUNCTION__
                        0x100bef40     0x28  Data  Lc  ethernetif.o [1]
ethzero                 0x10089478      0x8  Data  Gb  etharp.o [1]
event_callback          0x1007ca25    0x178  Code  Lc  sockets.o [1]
event_to_string         0x100f7bb9    0x168  Code  Gb  driver_common.o [12]
exception_config        0x20034d90     0x34  Data  Lc  exception_handler.o [10]
exception_init          0x10093b09     0x52  Code  Gb  exception_handler.o [10]
exception_reboot        0x10081bdb      0x2  Code  Wk  exception_handler.o [10]
exception_register_callbacks
                        0x10081a31     0x78  Code  Gb  exception_handler.o [10]
exit                    0x10112511      0x4  Code  Gb  exit.o [4]
fclose                  0x100fa0f9     0x7a  Code  Gb  fclose.o [4]
fflush                  0x10101f27     0x34  Code  Gb  fflush.o [4]
fflushOne               0x10101eb1     0x76  Code  Lc  fflush.o [4]
fgetc                   0x10111331     0x5a  Code  Gb  fgetc.o [4]
fgets                   0x100fa02b     0xce  Code  Gb  fgets.o [4]
find_bonded_info_by_handle
                        0x100a22ed     0x10  Code  Gb  connection_info.o [1]
find_bonded_info_by_index
                        0x100a22c1     0x2c  Code  Gb  connection_info.o [1]
find_conneciton_info_by_handle
                        0x100a2227     0x2a  Code  Gb  connection_info.o [1]
find_empty_data_item    0x100b12ed     0x28  Code  Lc  nvdm_data.o [13]
find_free_peb           0x100c5397     0x78  Code  Lc  nvdm_main.o [13]
find_next_char          0x100dfb91     0x26  Code  Lc  get_profile_string.o [1]
flags                   0x20033334      0x1  Data  Lc  tcp_in.o [1]
flash_check_device      0x001006d1    0x138  Code  Gb  spi_flash.o [1]
flash_check_device::__FUNCTION__
                        0x00100c64     0x14  Data  Lc  spi_flash.o [1]
flash_erase_page        0x00100a69     0x72  Code  Gb  spi_flash.o [1]
flash_erase_sector      0x0010097f     0x72  Code  Gb  spi_flash.o [1]
flash_erase_sector_32k  0x001009f1     0x72  Code  Gb  spi_flash.o [1]
flash_read_jedec_id     0x00100859     0x16  Code  Gb  spi_flash.o [1]
flash_read_sr           0x0010088f     0x22  Code  Gb  spi_flash.o [1]
flash_read_sr2          0x001008b1     0x70  Code  Gb  spi_flash.o [1]
flash_read_sr2::__FUNCTION__
                        0x00100cbc     0x10  Data  Lc  spi_flash.o [1]
flash_resume_Winbond    0x001006c5      0x8  Code  Gb  spi_flash.o [1]
flash_sfc_config        0x0010008d     0x1c  Code  Gb  flash_sfc.o [1]
flash_sfc_erase         0x001000a9     0x6a  Code  Gb  flash_sfc.o [1]
flash_sfc_write         0x100e1e01     0x32  Code  Gb  flash_sfc.o [1]
flash_suspend_Winbond   0x001006b9      0x8  Code  Gb  spi_flash.o [1]
flash_unprotect         0x00100921     0x32  Code  Gb  spi_flash.o [1]
flash_wait_ready        0x00100809     0x50  Code  Gb  spi_flash.o [1]
flash_write             0x00100adb    0x126  Code  Gb  spi_flash.o [1]
flash_write_disable     0x00100969     0x16  Code  Gb  spi_flash.o [1]
flash_write_enable      0x00100953     0x16  Code  Gb  spi_flash.o [1]
flash_write_sr          0x0010086f     0x20  Code  Lc  spi_flash.o [1]
fmts                    0x1010905c     0x30  Data  Lc  xlocale_c.o [4]
fopen                   0x100fa001     0x2a  Code  Gb  fopen.o [4]
fprintf                 0x100c6885     0x34  Code  Gb  fprintf.o [4]
fputc                   0x1010760d     0x1e  Code  Gb  io_def.o [1]
fputs                   0x10100871     0x98  Code  Gb  fputs.o [4]
free_etharp_q           0x1008874d     0x60  Code  Lc  etharp.o [1]
free_hw_features        0x100e302d     0x3c  Code  Lc  wpa_supplicant.o [12]
free_sf_lock            0x100e1da9     0x2e  Code  Gb  flash_sfc.o [1]
free_socket             0x1007baff     0x38  Code  Lc  sockets.o [1]
freq_allowed            0x100f1fa9     0x1e  Code  Lc  events.o [12]
freq_cmp                0x100e7e11     0x1a  Code  Lc  scan.o [12]
fseek                   0x1010359d     0x22  Code  Gb  fseek.o [4]
gCpuFrequency           0x200333b0      0x4  Data  Lc  top.o [1]
gSFC_max_data_size      0x200013e4      0x4  Data  Gb  spi_flash.o [1]
gSysBootTick            0x20032d24      0x4  Data  Lc  os_util.o [1]
gUartClkFreq            0x200333b4      0x4  Data  Gb  uart.o [1]
gXtalFreq               0x200333ac      0x4  Data  Lc  top.o [1]
g_aes_op_done           0x20035b3b      0x1  Data  Lc  hal_aes.o [1]
g_ap_data_item_array    0x100c204c    0x1d0  Data  Lc  wifi_nvdm_config.o [1]
g_ap_list               0x20033440    0x1d0  Data  Lc  wifi_private_cli.o [1]
g_beacon                0x20002fe0    0x280  Data  Gb  wifi_scan.o [15]
g_ble_scan_data         0x20001558    0x200  Data  Gb  ut_app.o [1]
g_bt_conn_handle        0x20035b26      0x2  Data  Gb  bt_gattc_handle_op.o [1]
g_bt_hci_log_enable     0x20001549      0x1  Data  Lc  ut_app.o [1]
g_btn_queue             0x2000104c      0x4  Data  Gb  mcs.o [1]
g_cache_con             0x20005654      0x4  Data  Gb  hal_cache_internal.o [1]
g_cache_entry           0x2000565c     0x80  Data  Gb  hal_cache_internal.o [1]
g_cache_region_en       0x20005658      0x4  Data  Gb  hal_cache_internal.o [1]
g_cache_status          0x20035b3c      0x1  Data  Gb  hal_cache.o [1]
g_cmd_buf               0x20001130     0x34  Data  Gb  mcs.o [1]
g_common_data_item_array
                        0x100c1c78    0x170  Data  Lc  wifi_nvdm_config.o [1]
g_configure_free_callback
                        0x20034f44      0x8  Data  Gb  wifi_scan.o [15]
g_connsys_debug_feature
                        0x20004bdc      0x4  Data  Gb  connsys_driver.o [1]
g_connsys_func          0x20004a20     0x88  Data  Gb  connsys_driver.o [1]
g_connsys_stat          0x20004b94     0x48  Data  Gb  connsys_driver.o [1]
g_crypt_lock            0x20035b3a      0x1  Data  Gb  hal_aes.o [1]
g_data_item_headers     0x20002214      0x4  Data  Lc  nvdm_data.o [13]
g_device_id             0x2000107c     0x14  Data  Gb  mcs.o [1]
g_device_key            0x20001090     0x14  Data  Gb  mcs.o [1]
g_dhcp_timer_active     0x20035b34      0x1  Data  Gb  dhcp.o [1]
g_dns_timer_active      0x20035b36      0x1  Data  Gb  dns.o [1]
g_eint_callback_context
                        0x200056dc     0x84  Data  Lc  hal_eint.o [1]
g_gattc_ctx             0x200032d4    0x1c0  Data  Gb  bt_gattc_srv.o [1]
g_gpt_context           0x2000578c     0x50  Data  Lc  hal_gpt.o [1]
g_hif_tx_flow_control_stat
                        0x20004b1c     0x74  Data  Gb  connsys_driver.o [1]
g_hif_tx_flow_ctrl_en   0x20035b31      0x1  Data  Gb  connsys_driver.o [1]
g_host                  0x200010a4     0x14  Data  Gb  mcs.o [1]
g_hr_app                0x20003270      0xc  Data  Gb  ble_gpio_service.o [1]
g_hr_char_uuid          0x20000420      0x8  Data  Gb  ble_gpio_client.o [1]
g_hr_srv_uuid           0x20000410     0x10  Data  Gb  ble_gpio_client.o [1]
g_hrcp_cntx             0x2000326c      0x4  Data  Gb  ble_gpio_client.o [1]
g_hrcp_gatt_cb          0x20000400     0x10  Data  Gb  ble_gpio_client.o [1]
g_id_ble_scan_tab       0x2000111c     0x14  Data  Gb  mcs.o [1]
g_id_ctrl_ble           0x200010e0     0x14  Data  Gb  mcs.o [1]
g_id_ctrl_led           0x200010b8     0x14  Data  Gb  mcs.o [1]
g_id_ctrl_scan          0x20001108     0x14  Data  Gb  mcs.o [1]
g_id_status_ble         0x200010f4     0x14  Data  Gb  mcs.o [1]
g_id_status_led         0x200010cc     0x14  Data  Gb  mcs.o [1]
g_iface_change_locker   0x200021b0      0x4  Data  Gb  wpa_supplicant_entry.o [12]
g_inband_debug_feature  0x20002174      0x4  Data  Gb  inband_queue.o [15]
g_inband_evt_table      0x100d9748     0x50  Data  Lc  inband_queue.o [15]
g_io_buffer             0x20035988     0x80  Data  Lc  nvdm_io.o [13]
g_ip_ready              0x20033434      0x1  Data  Gb  wifi_lwip_helper.o [1]
g_ip_reass_timer_active
                        0x20019c90      0x1  Data  Gb  ip_frag.o [1]
g_iperf_context         0x20000f40     0x5c  Data  Gb  iperf_task.o [1]
g_iperf_is_tradeoff_test_client
                        0x20000fac      0x4  Data  Gb  iperf_task.o [1]
g_iperf_is_tradeoff_test_server
                        0x20000fb0      0x4  Data  Gb  iperf_task.o [1]
g_last_enhance_mode_data_struct
                        0x20004aac     0x70  Data  Gb  connsys_driver.o [1]
g_log_queue             0x20034894      0x4  Data  Lc  syslog.o [10]
g_log_uart_port         0x20035b41      0x1  Data  Lc  syslog.o [10]
g_lwip_eapol_rx_socket  0x20000c9c      0x4  Data  Lc  ethernetif.o [1]
g_lwip_eapol_rx_socket_second
                        0x20000ca0      0x4  Data  Lc  ethernetif.o [1]
g_max_data_item_name_size
                        0x20002220      0x4  Data  Gb  nvdm_data.o [13]
g_max_data_item_size    0x20002218      0x4  Data  Gb  nvdm_data.o [13]
g_max_group_name_size   0x2000221c      0x4  Data  Gb  nvdm_data.o [13]
g_mcs_status_xQueue     0x20001064      0x4  Data  Gb  mcs.o [1]
g_mode_change           0x20035b49      0x1  Data  Gb  driver_inband.o [12]
g_nvdm_mutex            0x20032d20      0x4  Data  Lc  nvdm_port.o [1]
g_nvdm_peb_count        0x200355e0      0x4  Data  Gb  nvdm_main.o [13]
g_nvdm_peb_size         0x200355dc      0x4  Data  Gb  nvdm_main.o [13]
g_patch_info            0x20004ffc      0x4  Data  Gb  connsys_util.o [1]
g_pebs_info             0x200355d0      0x4  Data  Lc  nvdm_main.o [13]
g_ping_arg              0x200011f8     0x1c  Data  Gb  ping.o [1]
g_rx_filter_mask        0x200020c4      0x4  Data  Lc  wifi_api.o [15]
g_rx_vfifo              0x20019be8     0x80  Data  Lc  io_def.o [1]
g_scan_array            0x200025a0    0xa40  Data  Gb  wifi_scan.o [15]
g_scan_bssid            0x20002118      0x8  Data  Gb  wifi_scan.o [15]
g_scan_bssid_list       0x20034ebc      0x4  Data  Gb  wifi_scan.o [15]
g_scan_by_app           0x200020eb      0x1  Data  Gb  wifi_scan.o [15]
g_scan_by_supplicant    0x20035b46      0x1  Data  Gb  wifi_scan.o [15]
g_scan_done_flag        0x200020ec      0x1  Data  Gb  wifi_scan.o [15]
g_scan_inited           0x200020ee      0x1  Data  Gb  wifi_scan.o [15]
g_scan_list             0x200020f4      0x4  Data  Gb  wifi_scan.o [15]
g_scan_list_size        0x200020ed      0x1  Data  Gb  wifi_scan.o [15]
g_scan_pbc_ap           0x20003260      0x1  Data  Gb  wifi_scan.o [15]
g_scan_preferred_ssid   0x20002120     0x20  Data  Gb  wifi_scan.o [15]
g_scan_sequence         0x200020e8      0x1  Data  Lc  wifi_scan.o [15]
g_scan_ssid             0x200020f8     0x20  Data  Gb  wifi_scan.o [15]
g_scan_ssid_len         0x200020f0      0x4  Data  Gb  wifi_scan.o [15]
g_scan_table_size       0x200020e9      0x1  Data  Gb  wifi_scan.o [15]
g_scanning              0x200020ea      0x1  Data  Gb  wifi_scan.o [15]
g_semaphore             0x20019b64      0x4  Data  Lc  io_def.o [1]
g_sfc_security_enable   0x20032d74      0x4  Data  Gb  sfc.o [1]
g_socket_id             0x20001054      0x4  Data  Gb  mcs.o [1]
g_sta_data_item_array   0x100c1e08    0x220  Data  Lc  wifi_nvdm_config.o [1]
g_sum_data_item_headers
                        0x2000220c      0x4  Data  Lc  nvdm_data.o [13]
g_supp_task_handle      0x200356dc      0x4  Data  Lc  wpa_supplicant_task.o [12]
g_supplicant_ready      0x20002190      0x4  Data  Gb  wpa_supplicant_entry.o [12]
g_total_avail_space     0x200355d8      0x4  Data  Lc  nvdm_main.o [13]
g_total_data_item_count
                        0x20002224      0x4  Data  Gb  nvdm_data.o [13]
g_tx_buf                0x20004be4    0x410  Data  Gb  connsys_util.o [1]
g_tx_vfifo              0x20019b68     0x80  Data  Lc  io_def.o [1]
g_uart_context_table    0x20005aec     0x60  Data  Lc  hal_uart.o [1]
g_uart_frist_send_complete_interrupt
                        0x20035b28      0x2  Data  Lc  hal_uart.o [1]
g_uart_port_to_irq_num  0x10095a68      0x2  Data  Gb  uart.o [1]
g_uart_send_lock_status
                        0x20035b2a      0x2  Data  Lc  hal_uart.o [1]
g_uart_sleep_handler    0x20035b2c      0x2  Data  Lc  hal_uart.o [1]
g_uart_sleep_handler_name
                        0x10095a60      0x8  Data  Gb  uart.o [1]
g_valid_data_size       0x200355d4      0x4  Data  Lc  nvdm_main.o [13]
g_whisr_val             0x20004aa8      0x4  Data  Lc  connsys_driver.o [1]
g_wifi_config           0x200355e8     0xd4  Data  Gb  wpa_supplicant_task.o [12]
g_wifi_config_ext       0x200356bc     0x20  Data  Gb  wpa_supplicant_task.o [12]
g_wifi_profile          0x20004be0      0x4  Data  Gb  connsys_util.o [1]
g_working_buffer        0x2000222c     0x80  Data  Gb  nvdm_data.o [13]
g_write_sequence_number
                        0x20002210      0x4  Data  Lc  nvdm_data.o [13]
gap_appearance          0x20002596      0x2  Data  Gb  gatt_service.o [1]
garbage_collection_peb  0x100c50fb    0x29c  Code  Lc  nvdm_main.o [13]
garbage_reclaim_pebs    0x100c5063     0x98  Code  Lc  nvdm_main.o [13]
gas_query_deinit        0x100e2c89      0x2  Code  Lc  wpa_supplicant.o [12]
gas_query_init          0x100e2c85      0x4  Code  Lc  wpa_supplicant.o [12]
gatt_char4_service_changed
                        0x10094a30     0x10  Data  Lc  gatt_service.o [1]
gatt_primary_service    0x10094a24      0xc  Data  Lc  gatt_service.o [1]
gatt_service_changed    0x20000e40      0xc  Data  Lc  gatt_service.o [1]
gatt_service_rec        0x20000e4c      0xc  Data  Lc  gatt_service.o [1]
gattc_connect_cb        0x100a0cbd     0x5c  Code  Gb  bt_gattc_connect.o [1]
gattc_convert_array_to_uuid16
                        0x1009eaa7     0x26  Code  Gb  bt_gattc_srv.o [1]
gattc_create_conn       0x100a0e29     0x40  Code  Lc  bt_gattc_connect.o [1]
gattc_decode_char_data  0x1009ea21     0x86  Code  Gb  bt_gattc_srv.o [1]
gattc_deregister        0x1009e91b     0x20  Code  Gb  bt_gattc_srv.o [1]
gattc_disconnect_cb     0x100a0c71     0x4c  Code  Gb  bt_gattc_connect.o [1]
gattc_init_user_context
                        0x1009ea15      0xc  Code  Lc  bt_gattc_srv.o [1]
gattc_notify_conn_info_to_all_user
                        0x1009e975     0x6e  Code  Gb  bt_gattc_srv.o [1]
gattc_notify_scan_info_to_all_user
                        0x1009e93b     0x3a  Code  Gb  bt_gattc_srv.o [1]
gattc_register          0x1009e89d     0x7e  Code  Gb  bt_gattc_srv.o [1]
gattc_service_alloc_user
                        0x1009e9e3     0x2e  Code  Lc  bt_gattc_srv.o [1]
gattc_service_init      0x100a0d19     0x22  Code  Gb  bt_gattc_connect.o [1]
gatts_device_name       0x20000cc8    0x100  Data  Gb  gatt_service.o [1]
gd_write_sr2_1          0x200013ec      0x4  Data  Gb  spi_flash.o [1]
getInitialTCPIP         0x100a24ff    0x10e  Code  Gb  mcs.o [1]
getInitialTCPIP::__FUNCTION__
                        0x100a2630     0x10  Data  Lc  mcs.o [1]
get_bonded_info         0x100a2251     0x70  Code  Gb  connection_info.o [1]
get_bss_freqs_in_ess    0x100e5d67     0x76  Code  Lc  wpa_supplicant.o [12]
get_cent_ch_by_htinfo   0x100dd7c7     0x32  Code  Gb  wifi_scan.o [15]
get_current_count       0x1007f245      0x6  Code  Gb  timer.o [1]
get_current_gpt4_count  0x1007f267      0x6  Code  Gb  timer.o [1]
get_current_irq         0x100836c9      0xc  Code  Lc  hal_nvic.o [1]
get_current_time_in_ms  0x10083969     0x26  Code  Lc  syslog.o [10]
get_etimer              0x10105e2b      0x4  Code  Gb  smt_core.o [14]
get_event_type          0x100a42a9     0x32  Code  Lc  ut_app.o [1]
get_gpio33_led          0x100a2b55     0x78  Code  Gb  mcs.o [1]
get_gpio33_led::__FUNCTION__
                        0x100a2bd4     0x10  Data  Lc  mcs.o [1]
get_index_from_gpio_pin
                        0x100b0ead     0x24  Code  Lc  hal_eint.o [1]
get_max_2g_5g_channel_list_triplet
                        0x100bf9db     0x68  Code  Lc  wifi_api.o [15]
get_no_padding          0x100cc671     0x12  Code  Lc  cipher.o [1]
get_pending_irq         0x100836bf      0xa  Code  Lc  hal_nvic.o [1]
get_rx_vector           0x100d707d     0x20  Code  Gb  connsys_util.o [1]
get_sf_lock             0x100e1d69     0x40  Code  Gb  flash_sfc.o [1]
get_socket              0x1007ba49     0x32  Code  Lc  sockets.o [1]
getchar                 0x10111325      0x6  Code  Gb  getchar.o [4]
getera                  0x10109539     0x90  Code  Lc  xgentime.o [4]
getint                  0x10109b9f     0x2c  Code  Lc  xgetdst.o [4]
getval                  0x1010935d     0x60  Code  Lc  xgentime.o [4]
global_entry            0x200021ac      0x4  Data  Gb  wpa_supplicant_entry.o [12]
goto_state              0x101059b9     0x24  Code  Lc  smt_core.o [14]
gpio_PullDisable        0x100be2ab     0x1a  Code  Gb  low_hal_gpio.o [1]
gpio_PullDown           0x100be297     0x14  Code  Gb  low_hal_gpio.o [1]
gpio_PullUp             0x100be283     0x14  Code  Gb  low_hal_gpio.o [1]
gpio_cli_cmds           0x20000e70     0x70  Data  Gb  gpio_cli.o [1]
gpio_direction          0x100be22d      0x4  Code  Gb  low_hal_gpio.o [1]
gpio_get                0x10107311     0xa2  Code  Lc  gpio_cli.o [1]
gpio_get_status         0x100be24f     0x34  Code  Gb  low_hal_gpio.o [1]
gpio_ies_init           0x101049a1     0xae  Code  Gb  bsp_gpio_ept_config.o [1]
gpio_int                0x100be235     0x1a  Code  Gb  low_hal_gpio.o [1]
gpio_mode_init          0x1010494d     0x2c  Code  Gb  bsp_gpio_ept_config.o [1]
gpio_oe_init            0x10104979     0x28  Code  Gb  bsp_gpio_ept_config.o [1]
gpio_output_init        0x10104ad5     0x28  Code  Gb  bsp_gpio_ept_config.o [1]
gpio_pull_down_init     0x10104aad     0x28  Code  Gb  bsp_gpio_ept_config.o [1]
gpio_pull_up_init       0x10104a4f     0x5e  Code  Gb  bsp_gpio_ept_config.o [1]
gpio_set                0x10107237     0xda  Code  Lc  gpio_cli.o [1]
gpio_set_dir            0x10107167     0x66  Code  Lc  gpio_cli.o [1]
gpio_set_mode           0x101071cd     0x6a  Code  Lc  gpio_cli.o [1]
gpio_set_od             0x10107101     0x66  Code  Lc  gpio_cli.o [1]
gpio_set_pull           0x10107075     0x8c  Code  Lc  gpio_cli.o [1]
gpio_started            0x20035b24      0x1  Data  Gb  bt_gattc_handle_op.o [1]
gpio_write              0x100be231      0x4  Code  Gb  low_hal_gpio.o [1]
gpt_get_current_time    0x00100049     0x24  Code  Gb  flash_sfc.o [1]
gucFlashSFCMode         0x20000cc0      0x4  Data  Gb  flash_sfc.o [1]
guery_config_ssid       0x100de169     0x3e  Code  Gb  wifi_scan.o [15]
halGPIO_ConfDirection   0x100d18c3    0x192  Code  Gb  hal_gpio_7687.o [1]
halGPIO_PullDown_RESET  0x100d1dc5     0xd0  Code  Gb  hal_gpio_7687.o [1]
halGPIO_PullDown_SET    0x100d1ce1     0xe4  Code  Gb  hal_gpio_7687.o [1]
halGPIO_PullUp_RESET    0x100d1c11     0xd0  Code  Gb  hal_gpio_7687.o [1]
halGPIO_PullUp_SET      0x100d1b2d     0xe4  Code  Gb  hal_gpio_7687.o [1]
halGPO_Write            0x100d1a55     0x42  Code  Gb  hal_gpio_7687.o [1]
halPinmuxTopOnPadFunc   0x100d156d    0x310  Code  Gb  hal_pinmux.o [1]
halRTCEnterMode         0x10107523     0x1e  Code  Gb  low_hal_rtc.o [1]
halRTCInit              0x101074d5     0x4e  Code  Gb  low_hal_rtc.o [1]
halRTCUnlock            0x10107499     0x3c  Code  Gb  low_hal_rtc.o [1]
halRegGPInterrupt       0x100d1f95    0x780  Code  Gb  hal_gpio_7687.o [1]
halSecAES               0x10106ecd     0x4c  Code  Gb  hal_sec.o [9]
halSecAESConfig         0x10106dd5     0xf8  Code  Gb  hal_sec.o [9]
halSecCryptoKick        0x10106dc9      0xc  Code  Gb  hal_sec.o [9]
halUART_Get_VFIFO_Length
                        0x10091af3     0x38  Code  Gb  uart.o [1]
halUART_HWInit          0x100919ad     0x3c  Code  Gb  uart.o [1]
halUART_Read_VFIFO_Data
                        0x10091b2b     0x26  Code  Gb  uart.o [1]
halUART_Rx_VFIFO_Initialize
                        0x10091b93     0x3e  Code  Gb  uart.o [1]
halUART_SetFormat       0x100919e9    0x10a  Code  Gb  uart.o [1]
halUART_Tx_VFIFO_Initialize
                        0x10091b51     0x42  Code  Gb  uart.o [1]
halUART_VDMA_Rx_Register_Callback
                        0x10091bd1     0x16  Code  Gb  uart.o [1]
halUART_VDMA_Rx_Register_TO_Callback
                        0x10091be7     0x16  Code  Gb  uart.o [1]
halWDTCRWrite           0x100e28cf     0x12  Code  Gb  low_hal_wdt.o [1]
halWDTConfig            0x100e290f     0x98  Code  Gb  low_hal_wdt.o [1]
halWDTSoftwareReset     0x100e29a7      0x8  Code  Gb  low_hal_wdt.o [1]
hal_aes_decrypt         0x101069b5    0x12a  Code  Gb  hal_aes.o [1]
hal_aes_decrypt::__FUNCTION__
                        0x10106b7c     0x10  Data  Lc  hal_aes.o [1]
hal_aes_ecb_decrypt     0x10106b09     0x26  Code  Gb  hal_aes.o [1]
hal_cache_deinit        0x100e1aa9     0x60  Code  Gb  hal_cache.o [1]
hal_cache_disable       0x100e1b2d     0x3a  Code  Gb  hal_cache.o [1]
hal_cache_enable        0x100e1b09     0x24  Code  Gb  hal_cache.o [1]
hal_cache_init          0x100e1a25     0x84  Code  Gb  hal_cache.o [1]
hal_cache_invalidate_all_cache_lines
                        0x100e1c8b     0x30  Code  Gb  hal_cache.o [1]
hal_cache_region_config
                        0x100e1c05     0x86  Code  Gb  hal_cache.o [1]
hal_cache_region_disable
                        0x100e1b9d     0x38  Code  Gb  hal_cache.o [1]
hal_cache_region_enable
                        0x100e1b67     0x36  Code  Gb  hal_cache.o [1]
hal_cache_set_size      0x100e1bd5     0x30  Code  Gb  hal_cache.o [1]
hal_crypt_lock_give     0x1010692d      0xa  Code  Gb  hal_aes.o [1]
hal_crypt_lock_take     0x10106907     0x26  Code  Gb  hal_aes.o [1]
hal_efuse_read          0x100dfb07     0x7c  Code  Gb  hal_efuse.o [8]
hal_eint_apply_config   0x100b0f89     0xa8  Code  Lc  hal_eint.o [1]
hal_eint_apply_config::__FUNCTION__
                        0x100b10dc     0x18  Data  Lc  hal_eint.o [1]
hal_eint_calc_debounce_parameters
                        0x100b0eff     0x64  Code  Lc  hal_eint.o [1]
hal_eint_convert_for_gpio
                        0x100b0ed1     0x2e  Code  Lc  hal_eint.o [1]
hal_eint_init           0x100b1031     0x62  Code  Gb  hal_eint.o [1]
hal_eint_init::__FUNCTION__
                        0x100b1118     0x10  Data  Lc  hal_eint.o [1]
hal_eint_isr            0x100b0f63     0x26  Code  Lc  hal_eint.o [1]
hal_eint_register_callback
                        0x100b1093     0x42  Code  Gb  hal_eint.o [1]
hal_eint_register_callback::__FUNCTION__
                        0x100b1160     0x1c  Data  Lc  hal_eint.o [1]
hal_ex_lp_gpt_isr       0x101082e1      0x2  Code  Gb  lp_ex_sleep.o [1]
hal_flash_direct_read   0x100e1de5     0x1c  Code  Gb  flash_sfc.o [1]
hal_flash_erase         0x100dfe67     0x14  Code  Gb  hal_flash.o [1]
hal_flash_init          0x100dfe51     0x16  Code  Gb  hal_flash.o [1]
hal_flash_read          0x100dfe7b      0xe  Code  Gb  hal_flash.o [1]
hal_flash_write         0x100dfe89     0x1a  Code  Gb  hal_flash.o [1]
hal_gpio_deinit         0x100af647      0x4  Code  Gb  hal_gpio.o [1]
hal_gpio_disable_pull   0x100af777     0x1e  Code  Gb  hal_gpio.o [1]
hal_gpio_get_direction  0x100af6e5     0x32  Code  Gb  hal_gpio.o [1]
hal_gpio_get_input      0x100af64b     0x28  Code  Gb  hal_gpio.o [1]
hal_gpio_get_output     0x100af691     0x2a  Code  Gb  hal_gpio.o [1]
hal_gpio_init           0x100af643      0x4  Code  Gb  hal_gpio.o [1]
hal_gpio_pull_down      0x100af747     0x30  Code  Gb  hal_gpio.o [1]
hal_gpio_pull_up        0x100af717     0x30  Code  Gb  hal_gpio.o [1]
hal_gpio_set_direction  0x100af6bb     0x2a  Code  Gb  hal_gpio.o [1]
hal_gpio_set_output     0x100af673     0x1e  Code  Gb  hal_gpio.o [1]
hal_gpio_translate_direction
                        0x100af619      0x2  Code  Lc  hal_gpio.o [1]
hal_gpt_get_duration_count
                        0x1007b995     0x12  Code  Gb  hal_gpt.o [1]
hal_gpt_get_free_run_count
                        0x1007b909     0x8c  Code  Gb  hal_gpt.o [1]
hal_gpt_get_free_run_count::__FUNCTION__
                        0x1007b9b0     0x1c  Data  Lc  hal_gpt.o [1]
hal_iot_gpio_get_pinmux
                        0x10106ff1     0x26  Code  Gb  gpio_cli.o [1]
hal_iot_gpio_get_pull   0x10107017     0x54  Code  Gb  gpio_cli.o [1]
hal_lp_cm4_hclk_switch  0x100e16cd     0x28  Code  Lc  hal_lp.o [1]
hal_lp_connsys_get_own_enable_int
                        0x100e16f5     0x10  Code  Gb  hal_lp.o [1]
hal_lp_connsys_give_n9_own
                        0x100e1705     0x10  Code  Gb  hal_lp.o [1]
hal_lp_get_wic_status   0x100e178f      0xa  Code  Gb  hal_lp.o [1]
hal_lp_get_wic_wakeup   0x100e1789      0x6  Code  Gb  hal_lp.o [1]
hal_lp_handle_intr      0x100e176f     0x1a  Code  Gb  hal_lp.o [1]
hal_lp_legacy_sleep     0x100e172d     0x36  Code  Gb  hal_lp.o [1]
hal_lp_legacy_sleep_set_rgu
                        0x100e1715     0x18  Code  Gb  hal_lp.o [1]
hal_lp_wic_isr          0x100e1763      0xc  Code  Lc  hal_lp.o [1]
hal_lp_wic_wakeup       0x20035b3d      0x1  Data  Lc  hal_lp.o [1]
hal_nvic_register_isr_handler
                        0x100836d5     0x3a  Code  Gb  hal_nvic.o [1]
hal_nvic_restore_interrupt_mask
                        0x1008372b      0xa  Code  Gb  hal_nvic.o [1]
hal_nvic_save_and_set_interrupt_mask
                        0x1008371d      0xe  Code  Gb  hal_nvic.o [1]
hal_pinmux_set_function
                        0x100af61b     0x28  Code  Gb  hal_gpio.o [1]
hal_rtc_init            0x10107461     0x14  Code  Gb  hal_rtc.o [1]
hal_rtc_sleep           0x10107475     0x20  Code  Gb  hal_rtc.o [1]
hal_sleep_manager_get_lock_status
                        0x10091d99      0x4  Code  Gb  hal_sleep_manager.o [8]
hal_sleep_manager_lock_sleep
                        0x10091d7b      0xa  Code  Gb  hal_sleep_manager.o [8]
hal_sleep_manager_release_sleep_handle
                        0x10091d8f      0xa  Code  Gb  hal_sleep_manager.o [8]
hal_sleep_manager_set_sleep_handle
                        0x10091d65     0x16  Code  Gb  hal_sleep_manager.o [8]
hal_sleep_manager_unlock_sleep
                        0x10091d85      0xa  Code  Gb  hal_sleep_manager.o [8]
hal_sys_reboot          0x100e1d25     0x32  Code  Gb  hal_sys.o [1]
hal_trng_deinit         0x10105249      0x4  Code  Gb  hal_trng.o [1]
hal_trng_get_generated_random_number
                        0x1010524d     0x4c  Code  Gb  hal_trng.o [1]
hal_trng_init           0x10105245      0x4  Code  Gb  hal_trng.o [1]
hal_uart_check_irq_disable
                        0x1008a5f3     0x5c  Code  Lc  hal_uart.o [1]
hal_uart_get_available_receive_bytes
                        0x1008a5c9     0x2a  Code  Gb  hal_uart.o [1]
hal_uart_init           0x1008a479     0xa0  Code  Gb  hal_uart.o [1]
hal_uart_is_config_valid
                        0x1008a30d     0x30  Code  Lc  hal_uart.o [1]
hal_uart_is_dma_config_valid
                        0x1008a33d     0x48  Code  Lc  hal_uart.o [1]
hal_uart_is_port_valid  0x1008a301      0xc  Code  Lc  hal_uart.o [1]
hal_uart_map_receive_callback
                        0x1008a6fd      0xa  Code  Lc  hal_uart.o [1]
hal_uart_map_receive_callback::func_tbl
                        0x1008a900      0x8  Data  Lc  hal_uart.o [1]
hal_uart_put_char       0x1008a519     0x1c  Code  Gb  hal_uart.o [1]
hal_uart_receive_callback0
                        0x1008a64f     0x2e  Code  Lc  hal_uart.o [1]
hal_uart_receive_callback1
                        0x1008a67d     0x34  Code  Lc  hal_uart.o [1]
hal_uart_receive_dma    0x1008a56f     0x5a  Code  Gb  hal_uart.o [1]
hal_uart_register_callback
                        0x1008a707     0xa6  Code  Gb  hal_uart.o [1]
hal_uart_send_callback0
                        0x1008a6b1     0x24  Code  Lc  hal_uart.o [1]
hal_uart_send_callback1
                        0x1008a6d5     0x28  Code  Lc  hal_uart.o [1]
hal_uart_send_polling   0x1008a535     0x3a  Code  Gb  hal_uart.o [1]
hal_uart_set_dma        0x1008a811     0x78  Code  Gb  hal_uart.o [1]
hal_uart_set_format     0x1008a7ad     0x64  Code  Gb  hal_uart.o [1]
hal_uart_translate_baudrate
                        0x1008a393     0x1c  Code  Lc  hal_uart.o [1]
hal_uart_translate_parity
                        0x1008a3c7     0x16  Code  Lc  hal_uart.o [1]
hal_uart_translate_port
                        0x1008a385      0xe  Code  Lc  hal_uart.o [1]
hal_uart_translate_stopbit
                        0x1008a3dd     0x18  Code  Lc  hal_uart.o [1]
hal_uart_translate_timeout
                        0x1008a3f5     0x14  Code  Lc  hal_uart.o [1]
hal_uart_translate_word_length
                        0x1008a3af     0x18  Code  Lc  hal_uart.o [1]
halgetGPIO_DIN          0x100d1ac9     0x32  Code  Gb  hal_gpio_7687.o [1]
halgetGPIO_DOUT         0x100d1a97     0x32  Code  Gb  hal_gpio_7687.o [1]
halgetGPIO_OutEnable    0x100d1afb     0x32  Code  Gb  hal_gpio_7687.o [1]
handle                  0x200011b4      0x4  Data  Lc  open.o [1]
handle_eap              0x100f69e5     0x3e  Code  Lc  ieee802_1x.o [12]
handle_eap_response     0x100f6955     0x8c  Code  Lc  ieee802_1x.o [12]
handle_read             0x100ea3d5      0x6  Code  Lc  driver_inband.o [12]
hci_log                 0x100c5edd     0x66  Code  Lc  hci_log.o [1]
hci_log_acl_in          0x100c5f5b      0x8  Code  Gb  hci_log.o [1]
hci_log_acl_out         0x100c5f53      0x8  Code  Gb  hci_log.o [1]
hci_log_cmd             0x100c5f43      0x8  Code  Gb  hci_log.o [1]
hci_log_event           0x100c5f4b      0x8  Code  Gb  hci_log.o [1]
hci_log_util_info       0x100a3ff1     0x38  Code  Gb  bt_platform.o [5]
heart_rate_callback_init
                        0x1009e1cf     0x14  Code  Lc  ble_gpio_client.o [1]
heart_rate_connect_cb   0x1009e0d1     0x42  Code  Lc  ble_gpio_client.o [1]
heart_rate_deinit       0x1009e075     0x10  Code  Gb  ble_gpio_client.o [1]
heart_rate_get_cntx     0x1009e1e3      0x4  Code  Lc  ble_gpio_client.o [1]
heart_rate_init         0x1009e025     0x50  Code  Gb  ble_gpio_client.o [1]
heart_rate_scan_cb      0x1009e085     0x4c  Code  Lc  ble_gpio_client.o [1]
heart_rate_search_complete_cb
                        0x1009e113     0x80  Code  Lc  ble_gpio_client.o [1]
heart_rate_update_notify_cb
                        0x1009e1e9     0x52  Code  Lc  ble_gpio_client.o [1]
heart_rate_write_descr  0x1009e193     0x3c  Code  Lc  ble_gpio_client.o [1]
heartbeat_timer         0x20001050      0x4  Data  Gb  mcs.o [1]
hex2byte                0x100f0f3f     0x2a  Code  Gb  common.o [12]
hex2num                 0x100f0f15     0x2a  Code  Lc  common.o [12]
hex_dump                0x100e198d     0x54  Code  Gb  misc.o [1]
hex_dump_data           0x10083a77     0x5a  Code  Gb  syslog.o [10]
hexstr2bin              0x100f0fad     0x2c  Code  Gb  common.o [12]
hmac_md5                0x100fdf61     0x18  Code  Gb  md5.o [12]
hmac_md5_vector         0x100fde85     0xdc  Code  Gb  md5.o [12]
hmac_sha1               0x001024f1     0x18  Code  Gb  sha1.o [12]
hmac_sha1_vector        0x00102415     0xdc  Code  Gb  sha1.o [12]
hostapd_acl_deinit      0x100fadd5     0x16  Code  Gb  ieee802_11_auth.o [12]
hostapd_acl_init        0x100fadd1      0x4  Code  Gb  ieee802_11_auth.o [12]
hostapd_acl_query_free  0x100fadb9     0x18  Code  Lc  ieee802_11_auth.o [12]
hostapd_alloc_bss_data  0x100f5c59     0x4a  Code  Gb  hostapd.o [12]
hostapd_broadcast_key_clear_iface
                        0x100f5029     0x30  Code  Lc  hostapd.o [12]
hostapd_broadcast_wep_clear
                        0x100f5059      0xc  Code  Lc  hostapd.o [12]
hostapd_broadcast_wep_set
                        0x100f5065     0xa6  Code  Lc  hostapd.o [12]
hostapd_build_ap_extra_ies
                        0x100fa201    0x158  Code  Gb  ap_drv_ops.o [12]
hostapd_check_ht_capab  0x100f5007      0x4  Code  Lc  hostapd.o [12]
hostapd_cleanup         0x100f5115     0x68  Code  Lc  hostapd.o [12]
hostapd_cleanup_iface   0x100f517f     0x52  Code  Lc  hostapd.o [12]
hostapd_cleanup_iface_pre
                        0x100f517d      0x2  Code  Lc  hostapd.o [12]
hostapd_config_defaults
                        0x100f47cb    0x112  Code  Gb  ap_config.o [12]
hostapd_config_defaults_bss
                        0x100f4721     0xaa  Code  Gb  ap_config.o [12]
hostapd_config_free     0x100f4d1d     0x3c  Code  Gb  ap_config.o [12]
hostapd_config_free_bss
                        0x100f4bf9    0x124  Code  Lc  ap_config.o [12]
hostapd_config_free_eap_user
                        0x100f4bc1     0x1a  Code  Lc  ap_config.o [12]
hostapd_config_free_radius
                        0x100f4b9b     0x26  Code  Lc  ap_config.o [12]
hostapd_config_free_vlan
                        0x100f4703     0x1e  Code  Lc  ap_config.o [12]
hostapd_config_free_wep
                        0x100f4bdb     0x1e  Code  Lc  ap_config.o [12]
hostapd_config_read_wpa_psk
                        0x100f48f9    0x1d0  Code  Lc  ap_config.o [12]
hostapd_deinit_wpa      0x100fac71     0x3c  Code  Gb  wpa_auth_glue.o [12]
hostapd_deinit_wps      0x100f4fed      0x2  Code  Lc  hostapd.o [12]
hostapd_derive_psk      0x100f4ac9     0x84  Code  Lc  ap_config.o [12]
hostapd_driver_commit   0x100fa667     0x1a  Code  Gb  ap_drv_ops.o [12]
hostapd_drv_get_inact_sec
                        0x100f8045     0x1a  Code  Lc  sta_info.o [12]
hostapd_drv_hapd_send_eapol
                        0x100f6333     0x2e  Code  Lc  ieee802_1x.o [12]
hostapd_drv_hapd_send_eapol
                        0x100fa78b     0x2e  Code  Lc  wpa_auth_glue.o [12]
hostapd_drv_none        0x100fa681     0x20  Code  Gb  ap_drv_ops.o [12]
hostapd_drv_poll_client
                        0x100f8079     0x1a  Code  Lc  sta_info.o [12]
hostapd_drv_set_ap      0x100fae0f     0x1a  Code  Lc  beacon.o [12]
hostapd_drv_set_authmode
                        0x100f500f     0x1a  Code  Lc  hostapd.o [12]
hostapd_drv_set_countermeasures
                        0x100f9b8d     0x1a  Code  Lc  tkip_countermeasures.o [12]
hostapd_drv_set_key     0x100fa6a1     0x38  Code  Gb  ap_drv_ops.o [12]
hostapd_drv_sta_deauth  0x100fa6d9     0x26  Code  Gb  ap_drv_ops.o [12]
hostapd_drv_sta_disassoc
                        0x100fa6ff     0x26  Code  Gb  ap_drv_ops.o [12]
hostapd_drv_sta_remove  0x100f805f     0x1a  Code  Lc  sta_info.o [12]
hostapd_drv_sta_remove  0x100f9ba7     0x1a  Code  Lc  tkip_countermeasures.o [12]
hostapd_eid_adv_proto   0x10102017      0x4  Code  Gb  ieee802_11_shared.o [12]
hostapd_eid_ext_capab   0x10101f8b     0x88  Code  Gb  ieee802_11_shared.o [12]
hostapd_eid_interworking
                        0x10102013      0x4  Code  Gb  ieee802_11_shared.o [12]
hostapd_eid_roaming_consortium
                        0x1010201b      0x4  Code  Gb  ieee802_11_shared.o [12]
hostapd_eid_time_adv    0x1010201f     0x5c  Code  Gb  ieee802_11_shared.o [12]
hostapd_eid_time_zone   0x1010207b     0x3a  Code  Gb  ieee802_11_shared.o [12]
hostapd_event_sta_low_ack
                        0x100f9a4f     0x4c  Code  Gb  drv_callbacks.o [12]
hostapd_flush           0x100fa56b     0x1a  Code  Gb  ap_drv_ops.o [12]
hostapd_flush_old_stations
                        0x100f526f     0x6c  Code  Lc  hostapd.o [12]
hostapd_free_ap_extra_ies
                        0x100fa359     0x1c  Code  Gb  ap_drv_ops.o [12]
hostapd_free_hw_features
                        0x100f4ff3      0x2  Code  Lc  hostapd.o [12]
hostapd_free_stas       0x100f834b     0x2a  Code  Gb  sta_info.o [12]
hostapd_get_eap_user    0x100f4dbd     0x72  Code  Gb  ap_config.o [12]
hostapd_get_hw_features
                        0x100f4ff5      0x6  Code  Lc  hostapd.o [12]
hostapd_get_psk         0x100f4d75     0x48  Code  Gb  ap_config.o [12]
hostapd_get_seqnum      0x100fa549     0x22  Code  Gb  ap_drv_ops.o [12]
hostapd_get_ssid        0x100fa489     0x24  Code  Gb  ap_drv_ops.o [12]
hostapd_get_vlan_id_ifname
                        0x100f4d59     0x1c  Code  Gb  ap_config.o [12]
hostapd_hw_get_freq     0x100f5001      0x6  Code  Lc  hostapd.o [12]
hostapd_if_add          0x100fa4d1     0x38  Code  Gb  ap_drv_ops.o [12]
hostapd_if_remove       0x100fa509     0x26  Code  Gb  ap_drv_ops.o [12]
hostapd_init_wps        0x100f4fe9      0x4  Code  Lc  hostapd.o [12]
hostapd_init_wps_complete
                        0x100f4fef      0x4  Code  Lc  hostapd.o [12]
hostapd_interface_deinit
                        0x100f5ca3     0x30  Code  Gb  hostapd.o [12]
hostapd_interface_free  0x100f5cd3     0x24  Code  Gb  hostapd.o [12]
hostapd_logger          0x100ebaef     0x74  Code  Gb  wpa_debug.o [12]
hostapd_logger_cb       0x200021d0      0x4  Data  Lc  wpa_debug.o [12]
hostapd_mac_comp        0x100f48dd      0x6  Code  Gb  ap_config.o [12]
hostapd_mac_comp_empty  0x100f48e3     0x16  Code  Gb  ap_config.o [12]
hostapd_new_assoc_sta   0x100f5cf9     0x8e  Code  Gb  hostapd.o [12]
hostapd_notif_assoc     0x100f97e3    0x200  Code  Gb  drv_callbacks.o [12]
hostapd_notif_disassoc  0x100f99f5     0x5a  Code  Gb  drv_callbacks.o [12]
hostapd_prepare_rates   0x100f500b      0x4  Code  Lc  hostapd.o [12]
hostapd_probe_req_rx    0x100f9a9b     0x6e  Code  Gb  drv_callbacks.o [12]
hostapd_prune_associations
                        0x100f62f5     0x1c  Code  Gb  utils.o [12]
hostapd_register_probereq_cb
                        0x100f6289     0x34  Code  Gb  utils.o [12]
hostapd_select_hw_mode  0x100f4ffb      0x6  Code  Lc  hostapd.o [12]
hostapd_set_authorized  0x100fa375     0x40  Code  Gb  ap_drv_ops.o [12]
hostapd_set_country     0x100fa627     0x18  Code  Gb  ap_drv_ops.o [12]
hostapd_set_drv_ieee8021x
                        0x100fa3b5     0x56  Code  Gb  ap_drv_ops.o [12]
hostapd_set_frag        0x100fa5eb     0x1a  Code  Gb  ap_drv_ops.o [12]
hostapd_set_freq        0x100fa585     0x4c  Code  Gb  ap_drv_ops.o [12]
hostapd_set_generic_elem
                        0x100fa465     0x24  Code  Gb  ap_drv_ops.o [12]
hostapd_set_ieee8021x   0x100fa52f     0x1a  Code  Gb  ap_drv_ops.o [12]
hostapd_set_privacy     0x100fa44b     0x1a  Code  Gb  ap_drv_ops.o [12]
hostapd_set_rts         0x100fa5d1     0x1a  Code  Gb  ap_drv_ops.o [12]
hostapd_set_ssid        0x100fa4ad     0x24  Code  Gb  ap_drv_ops.o [12]
hostapd_set_tx_queue_params
                        0x100fa63f     0x28  Code  Gb  ap_drv_ops.o [12]
hostapd_set_wds_sta     0x100fa40b     0x40  Code  Gb  ap_drv_ops.o [12]
hostapd_setup_bss       0x100f5507    0x3e2  Code  Lc  hostapd.o [12]
hostapd_setup_encryption
                        0x100f51d1     0x9e  Code  Lc  hostapd.o [12]
hostapd_setup_interface
                        0x100f5c15     0x3c  Code  Gb  hostapd.o [12]
hostapd_setup_interface_complete
                        0x100f5a29    0x1ec  Code  Gb  hostapd.o [12]
hostapd_setup_wpa       0x100fab45    0x12c  Code  Gb  wpa_auth_glue.o [12]
hostapd_setup_wpa_psk   0x100f4b5d     0x3e  Code  Gb  ap_config.o [12]
hostapd_sta_flags_to_drv
                        0x100fa1dd     0x24  Code  Gb  ap_drv_ops.o [12]
hostapd_sta_set_flags   0x100fa605     0x22  Code  Gb  ap_drv_ops.o [12]
hostapd_tx_queue_params
                        0x100f5911     0x30  Code  Lc  hostapd.o [12]
hostapd_update_time_adv
                        0x101020b5     0xa6  Code  Gb  ieee802_11_shared.o [12]
hostapd_validate_bssid_configuration
                        0x100f52db    0x1fa  Code  Lc  hostapd.o [12]
hostapd_wpa_auth_conf   0x100fa7b9     0x5a  Code  Lc  wpa_auth_glue.o [12]
hostapd_wpa_auth_disconnect
                        0x100fa839      0xa  Code  Lc  wpa_auth_glue.o [12]
hostapd_wpa_auth_for_each_auth
                        0x100faa6f     0x28  Code  Lc  wpa_auth_glue.o [12]
hostapd_wpa_auth_for_each_sta
                        0x100faa15     0x28  Code  Lc  wpa_auth_glue.o [12]
hostapd_wpa_auth_get_eapol
                        0x100fa8f1     0x30  Code  Lc  wpa_auth_glue.o [12]
hostapd_wpa_auth_get_msk
                        0x100fa949     0x3c  Code  Lc  wpa_auth_glue.o [12]
hostapd_wpa_auth_get_psk
                        0x100fa921     0x28  Code  Lc  wpa_auth_glue.o [12]
hostapd_wpa_auth_get_seqnum
                        0x100fa9cb     0x12  Code  Lc  wpa_auth_glue.o [12]
hostapd_wpa_auth_logger
                        0x100fa813     0x26  Code  Lc  wpa_auth_glue.o [12]
hostapd_wpa_auth_mic_failure_report
                        0x100fa843      0x6  Code  Lc  wpa_auth_glue.o [12]
hostapd_wpa_auth_send_eapol
                        0x100fa9dd     0x38  Code  Lc  wpa_auth_glue.o [12]
hostapd_wpa_auth_send_ether
                        0x100faa9d     0xa8  Code  Lc  wpa_auth_glue.o [12]
hostapd_wpa_auth_set_eapol
                        0x100fa849     0xa8  Code  Lc  wpa_auth_glue.o [12]
hostapd_wpa_auth_set_key
                        0x100fa985     0x46  Code  Lc  wpa_auth_glue.o [12]
ht_supported            0x100f1fc7     0x1a  Code  Lc  events.o [12]
httpclient_base64enc    0x100ad151     0x7a  Code  Lc  httpclient.o [1]
httpclient_close        0x100ae6f3     0x3c  Code  Gb  httpclient.o [1]
httpclient_close::__FUNCTION__
                        0x100aee80     0x14  Data  Lc  httpclient.o [1]
httpclient_common       0x100ae739     0x3e  Code  Lc  httpclient.o [1]
httpclient_conn         0x100ad211     0xa2  Code  Lc  httpclient.o [1]
httpclient_conn::__FUNCTION__
                        0x100ad2f8     0x10  Data  Lc  httpclient.o [1]
httpclient_connect      0x100ae4cf    0x112  Code  Gb  httpclient.o [1]
httpclient_connect::__FUNCTION__
                        0x100aed08     0x14  Data  Lc  httpclient.o [1]
httpclient_debug        0x100aee95     0x20  Code  Lc  httpclient.o [1]
httpclient_debug::__FUNCTION__
                        0x100aeeb8     0x14  Data  Lc  httpclient.o [1]
httpclient_get          0x100ae777      0x6  Code  Gb  httpclient.o [1]
httpclient_get_info     0x100ad55d     0x8a  Code  Gb  httpclient.o [1]
httpclient_get_info::__FUNCTION__
                        0x100ad610     0x14  Data  Lc  httpclient.o [1]
httpclient_get_response_code
                        0x100ae735      0x4  Code  Gb  httpclient.o [1]
httpclient_parse_url    0x100ad309    0x15c  Code  Lc  httpclient.o [1]
httpclient_parse_url::__FUNCTION__
                        0x100ad544     0x18  Data  Lc  httpclient.o [1]
httpclient_recv         0x100adccd    0x1aa  Code  Lc  httpclient.o [1]
httpclient_recv::__FUNCTION__
                        0x100ae7e4     0x10  Data  Lc  httpclient.o [1]
httpclient_recv_response
                        0x100ae63d     0xb6  Code  Gb  httpclient.o [1]
httpclient_recv_response::__FUNCTION__
                        0x100aee38     0x1c  Data  Lc  httpclient.o [1]
httpclient_response_parse
                        0x100ae269    0x266  Code  Lc  httpclient.o [1]
httpclient_response_parse::__FUNCTION__
                        0x100aeb38     0x1c  Data  Lc  httpclient.o [1]
httpclient_retrieve_content
                        0x100ade7d    0x3e8  Code  Lc  httpclient.o [1]
httpclient_retrieve_content::__FUNCTION__
                        0x100ae970     0x1c  Data  Lc  httpclient.o [1]
httpclient_send_auth    0x100ad629     0x9c  Code  Gb  httpclient.o [1]
httpclient_send_auth::__FUNCTION__
                        0x100ad6ec     0x18  Data  Lc  httpclient.o [1]
httpclient_send_header  0x100ad769    0x27c  Code  Gb  httpclient.o [1]
httpclient_send_header::__FUNCTION__
                        0x100ada78     0x18  Data  Lc  httpclient.o [1]
httpclient_send_request
                        0x100ae5e5     0x54  Code  Gb  httpclient.o [1]
httpclient_send_request::__FUNCTION__
                        0x100aedc0     0x18  Data  Lc  httpclient.o [1]
httpclient_send_userdata
                        0x100adb19     0xbe  Code  Gb  httpclient.o [1]
httpclient_send_userdata::__FUNCTION__
                        0x100adbdc     0x1c  Data  Lc  httpclient.o [1]
httpclient_set_custom_header
                        0x100ad625      0x4  Code  Gb  httpclient.o [1]
httpclient_ssl_close    0x100af2f5     0x6c  Code  Lc  httpclient.o [1]
httpclient_ssl_conn     0x100aeeff    0x38a  Code  Lc  httpclient.o [1]
httpclient_ssl_conn::__FUNCTION__
                        0x100af2e0     0x14  Data  Lc  httpclient.o [1]
httpclient_ssl_nonblock_recv
                        0x100ae77d     0x5c  Code  Lc  httpclient.o [1]
httpclient_ssl_send_all
                        0x100aeecd     0x32  Code  Lc  httpclient.o [1]
httpclient_tcp_send_all
                        0x100ad735     0x34  Code  Lc  httpclient.o [1]
hwaddr_aton             0x100f0f69     0x44  Code  Gb  common.o [12]
iapp_deinit             0x100f4fe1      0x2  Code  Lc  hostapd.o [12]
iapp_init               0x100f4fdd      0x4  Code  Lc  hostapd.o [12]
iapp_new_station        0x100f4fdb      0x2  Code  Lc  hostapd.o [12]
icmp_dest_unreach       0x1009108b      0x6  Code  Gb  icmp.o [1]
icmp_input              0x10090e95    0x1f6  Code  Gb  icmp.o [1]
icmp_send_response      0x10091095     0x8c  Code  Lc  icmp.o [1]
icmp_time_exceeded      0x10091091      0x4  Code  Gb  icmp.o [1]
ieee80211_tkip_countermeasures_deinit
                        0x100f9c6b      0xa  Code  Gb  tkip_countermeasures.o [12]
ieee80211_tkip_countermeasures_start
                        0x100f9be9     0x82  Code  Lc  tkip_countermeasures.o [12]
ieee80211_tkip_countermeasures_stop
                        0x100f9bc1     0x28  Code  Lc  tkip_countermeasures.o [12]
ieee80211w_kde_add      0x100fcfe5      0x4  Code  Lc  wpa_auth.o [12]
ieee80211w_kde_len      0x100fcfe1      0x4  Code  Lc  wpa_auth.o [12]
ieee80211w_set_keys     0x100ed2f1      0x4  Code  Lc  wpa.o [12]
ieee802_11_parse_elems  0x100f8dd9    0x1f6  Code  Gb  ieee802_11_common.o [12]
ieee802_11_parse_vendor_specific
                        0x100f8d29     0xb0  Code  Lc  ieee802_11_common.o [12]
ieee802_11_set_beacon   0x100fae29    0x172  Code  Gb  beacon.o [12]
ieee802_11_set_beacons  0x100fafa5     0x1c  Code  Gb  beacon.o [12]
ieee802_1x_aaa_send     0x100f6f81      0x2  Code  Lc  ieee802_1x.o [12]
ieee802_1x_abort_auth   0x100f6daf     0x72  Code  Gb  ieee802_1x.o [12]
ieee802_1x_alloc_eapol_sm
                        0x100f6a23     0x46  Code  Lc  ieee802_1x.o [12]
ieee802_1x_deinit       0x100f71cf     0x3c  Code  Gb  ieee802_1x.o [12]
ieee802_1x_eapol_event  0x100f704f     0x1e  Code  Lc  ieee802_1x.o [12]
ieee802_1x_eapol_send   0x100f6f73      0xe  Code  Lc  ieee802_1x.o [12]
ieee802_1x_finished     0x100f7289     0x64  Code  Lc  ieee802_1x.o [12]
ieee802_1x_free_station
                        0x100f6d7d     0x32  Code  Gb  ieee802_1x.o [12]
ieee802_1x_get_eap_user
                        0x100f6f8d     0x70  Code  Lc  ieee802_1x.o [12]
ieee802_1x_get_key      0x100f7241     0x1c  Code  Gb  ieee802_1x.o [12]
ieee802_1x_init         0x100f706d    0x162  Code  Gb  ieee802_1x.o [12]
ieee802_1x_logger       0x100f7015     0x26  Code  Lc  ieee802_1x.o [12]
ieee802_1x_new_station  0x100f6c6f    0x10e  Code  Gb  ieee802_1x.o [12]
ieee802_1x_notify_port_enabled
                        0x100f725d     0x18  Code  Gb  ieee802_1x.o [12]
ieee802_1x_notify_port_valid
                        0x100f7275     0x14  Code  Gb  ieee802_1x.o [12]
ieee802_1x_receive      0x100f6a69    0x206  Code  Gb  ieee802_1x.o [12]
ieee802_1x_rekey        0x100f6eaf     0xc4  Code  Lc  ieee802_1x.o [12]
ieee802_1x_rekey_broadcast
                        0x100f6e21     0x72  Code  Lc  ieee802_1x.o [12]
ieee802_1x_send         0x100f6361     0xba  Code  Lc  ieee802_1x.o [12]
ieee802_1x_set_port_authorized
                        0x100f7045      0x4  Code  Lc  ieee802_1x.o [12]
ieee802_1x_set_sta_authorized
                        0x100f645d     0xaa  Code  Gb  ieee802_1x.o [12]
ieee802_1x_sta_entry_alive
                        0x100f6ffd     0x18  Code  Lc  ieee802_1x.o [12]
ieee802_1x_sta_key_available
                        0x100f6e93     0x1c  Code  Lc  ieee802_1x.o [12]
ieee802_1x_tx_key       0x100f67c5    0x10c  Code  Gb  ieee802_1x.o [12]
ieee802_1x_tx_key_one   0x100f658d    0x1a6  Code  Lc  ieee802_1x.o [12]
inband_add_pmkid        0x100eb2bd      0x4  Code  Lc  driver_inband.o [12]
inband_add_to_wait_list
                        0x100d8c97     0x1c  Code  Lc  inband_queue.o [15]
inband_cmds             0x100969c4     0x40  Data  Gb  wifi_inband_cli.o [1]
inband_create_iface     0x100eb2d5      0xa  Code  Lc  driver_inband.o [12]
inband_default_rsp_handler
                        0x100d8bcf     0xc8  Code  Lc  inband_queue.o [15]
inband_disable_11b_rates
                        0x100eb2d1      0x4  Code  Lc  driver_inband.o [12]
inband_driver_init      0x100ea511    0x1c0  Code  Lc  driver_inband.o [12]
inband_driver_send_eapol
                        0x100ea6d1      0x6  Code  Lc  driver_inband.o [12]
inband_driver_send_ether
                        0x100ea3db      0x4  Code  Lc  driver_inband.o [12]
inband_enqueue_cmd_config
                        0x100d8df7    0x22e  Code  Lc  inband_queue.o [15]
inband_evt_get_handler  0x100d8a9b     0x1c  Code  Lc  inband_queue.o [15]
inband_flush_pmkid      0x100eb2c5      0x4  Code  Lc  driver_inband.o [12]
inband_get_mq_spaces    0x100d9259      0xa  Code  Gb  inband_queue.o [15]
inband_handle_func      0x100bea69     0x12  Code  Gb  ethernetif.o [1]
inband_job_add          0x100d8ad5     0x3e  Code  Lc  inband_queue.o [15]
inband_malloc           0x100d8b13     0x56  Code  Lc  inband_queue.o [15]
inband_mfree            0x100d8b69     0x64  Code  Lc  inband_queue.o [15]
inband_query_tx_frame   0x100d912b     0x2e  Code  Gb  inband_queue.o [15]
inband_queue_evt_handler
                        0x100d9159     0xcc  Code  Gb  inband_queue.o [15]
inband_queue_exec       0x100d90f7     0x34  Code  Gb  inband_queue.o [15]
inband_queue_handler    0x100d922f     0x2a  Code  Gb  inband_queue.o [15]
inband_queue_init       0x100d9025     0xa0  Code  Gb  inband_queue.o [15]
inband_queue_query      0x100d90c5     0x32  Code  Gb  inband_queue.o [15]
inband_queue_register_callback
                        0x100d9225      0xa  Code  Gb  inband_queue.o [15]
inband_queue_task       0x100d8ab7     0x1e  Code  Lc  inband_queue.o [15]
inband_register_supplicant_set_api
                        0x100ea469     0xa8  Code  Lc  driver_inband.o [12]
inband_remove_pmkid     0x100eb2c1      0x4  Code  Lc  driver_inband.o [12]
inband_send_cmd         0x100d8cb3    0x144  Code  Lc  inband_queue.o [15]
inband_send_frame       0x100eb37d      0xa  Code  Lc  driver_inband.o [12]
inband_send_frame_cmd   0x100eb2e9      0x4  Code  Lc  driver_inband.o [12]
inband_set_p2p_powersave
                        0x100eb393      0xa  Code  Lc  driver_inband.o [12]
inband_set_power_save   0x100eb38f      0x4  Code  Lc  driver_inband.o [12]
inband_show_wifi_event_format
                        0x100d8bcd      0x2  Code  Lc  inband_queue.o [15]
inband_tx_buf_lock      0x100d8a0f     0x60  Code  Lc  inband_queue.o [15]
inband_tx_buf_unlock    0x100d8a6f     0x2c  Code  Lc  inband_queue.o [15]
inc_byte_array          0x100f0fd9     0x18  Code  Gb  common.o [12]
inet_chksum             0x10090e2f      0xc  Code  Gb  inet_chksum.o [1]
inet_chksum_pbuf        0x10090e3b     0x5a  Code  Gb  inet_chksum.o [1]
inet_chksum_pseudo      0x10090df9     0x28  Code  Gb  inet_chksum.o [1]
inet_cksum_pseudo_base  0x10090d77     0x82  Code  Lc  inet_chksum.o [1]
inseg                   0x20033338     0x10  Data  Lc  tcp_in.o [1]
insert_list_by_rssi     0x100de015    0x154  Code  Gb  wifi_scan.o [15]
int_array_concat        0x100e7dc7     0x4a  Code  Lc  scan.o [12]
int_array_len           0x100e7db1     0x16  Code  Lc  scan.o [12]
int_array_sort_unique   0x100e7e2b     0x48  Code  Lc  scan.o [12]
intro_sort              0x100f7839    0x33c  Code  Lc  qsort.o [4]
io_def_uart_init        0x101075c5     0x3a  Code  Gb  io_def.o [1]
ip4_addr_isbroadcast_u32
                        0x1007e381     0x34  Code  Gb  ip4_addr.o [1]
ip4_addr_netmask_valid  0x1007e3b5     0x2a  Code  Gb  ip4_addr.o [1]
ip4_frag                0x1008f1f3    0x1a0  Code  Gb  ip_frag.o [1]
ip4_input               0x100894f1    0x232  Code  Gb  ip4.o [1]
ip4_output              0x1008986f     0x58  Code  Gb  ip4.o [1]
ip4_output_if           0x10089723     0x28  Code  Gb  ip4.o [1]
ip4_output_if_src       0x1008974b    0x124  Code  Gb  ip4.o [1]
ip4_reass               0x1008efef    0x1ac  Code  Gb  ip_frag.o [1]
ip4_route               0x10089481     0x6e  Code  Gb  ip4.o [1]
ip4addr_aton            0x1007e3f5    0x142  Code  Gb  ip4_addr.o [1]
ip4addr_ntoa            0x1007e539      0xc  Code  Gb  ip4_addr.o [1]
ip4addr_ntoa::str       0x20019c80     0x10  Data  Lc  ip4_addr.o [1]
ip4addr_ntoa_r          0x1007e545     0x88  Code  Gb  ip4_addr.o [1]
ip_addr_any             0x10094ad4      0x4  Data  Gb  ip4_addr.o [1]
ip_addr_broadcast       0x10094ad8      0x4  Data  Gb  ip4_addr.o [1]
ip_chksum_pseudo        0x10090e21      0xe  Code  Gb  inet_chksum.o [1]
ip_data                 0x20019c68     0x18  Data  Gb  ip4.o [1]
ip_frag_alloc_pbuf_custom_ref
                        0x1008f19b      0x8  Code  Lc  ip_frag.o [1]
ip_frag_free_pbuf_custom_ref
                        0x1008f1a3     0x24  Code  Lc  ip_frag.o [1]
ip_id                   0x20035b2e      0x2  Data  Lc  ip4.o [1]
ip_input                0x100894ef      0x2  Code  Gb  ip4.o [1]
ip_number_to_big_endian
                        0x100c2905     0x22  Code  Lc  wifi_nvdm_config.o [1]
ip_number_to_string     0x100c2927     0x26  Code  Lc  wifi_nvdm_config.o [1]
ip_ready                0x2003343c      0x4  Data  Lc  wifi_lwip_helper.o [1]
ip_ready_callback       0x100af795     0xc2  Code  Lc  wifi_lwip_helper.o [1]
ip_ready_callback::__FUNCTION__
                        0x100afb14     0x14  Data  Lc  wifi_lwip_helper.o [1]
ip_reass_chain_frag_into_datagram_and_validate
                        0x1008ee27    0x1c8  Code  Lc  ip_frag.o [1]
ip_reass_dequeue_datagram
                        0x1008edeb     0x3c  Code  Lc  ip_frag.o [1]
ip_reass_enqueue_new_datagram
                        0x1008ed83     0x68  Code  Lc  ip_frag.o [1]
ip_reass_free_complete_datagram
                        0x1008ec07     0xf2  Code  Lc  ip_frag.o [1]
ip_reass_pbufcount      0x20019c92      0x2  Data  Lc  ip_frag.o [1]
ip_reass_remove_oldest_datagram
                        0x1008ecf9     0x8a  Code  Lc  ip_frag.o [1]
ip_reass_timer          0x1008846d     0x1e  Code  Lc  lwip_timers.o [1]
ip_reass_timer_needed   0x1008848b     0x18  Code  Gb  lwip_timers.o [1]
ip_reass_tmr            0x1008ebcd     0x3a  Code  Gb  ip_frag.o [1]
ipaddr_addr             0x1007e3df     0x16  Code  Gb  ip4_addr.o [1]
iperf_calculate_result  0x1007b05d     0x22  Code  Lc  iperf_task.o [1]
iperf_cli               0x20000f00     0x40  Data  Gb  iperf_cli.o [1]
iperf_copy_count        0x1007b371      0xe  Code  Lc  iperf_task.o [1]
iperf_diff_count        0x1007b37f     0x44  Code  Lc  iperf_task.o [1]
iperf_diff_count::__FUNCTION__
                        0x1007b83c     0x14  Data  Lc  iperf_task.o [1]
iperf_display_report    0x1007b261    0x102  Code  Lc  iperf_task.o [1]
iperf_display_report::__FUNCTION__
                        0x1007b7cc     0x18  Data  Lc  iperf_task.o [1]
iperf_format_transform  0x1007b435     0x9a  Code  Gb  iperf_task.o [1]
iperf_ftoa              0x1007b07f    0x114  Code  Lc  iperf_task.o [1]
iperf_get_current_time  0x1007b3c3     0x72  Code  Lc  iperf_task.o [1]
iperf_get_current_time::__FUNCTION__
                        0x1007b878     0x18  Data  Lc  iperf_task.o [1]
iperf_pattern           0x1007b4cf     0x1c  Code  Lc  iperf_task.o [1]
iperf_reset_count       0x1007b363      0xe  Code  Lc  iperf_task.o [1]
iperf_tcp_run_client    0x1007a169    0x50a  Code  Gb  iperf_task.o [1]
iperf_tcp_run_client::__FUNCTION__
                        0x1007a680     0x18  Data  Lc  iperf_task.o [1]
iperf_tcp_run_server    0x10079b51    0x462  Code  Gb  iperf_task.o [1]
iperf_tcp_run_server::__FUNCTION__
                        0x10079fd0     0x18  Data  Lc  iperf_task.o [1]
iperf_udp_run_client    0x1007a7c1    0x7a4  Code  Gb  iperf_task.o [1]
iperf_udp_run_client::__FUNCTION__
                        0x1007af74     0x18  Data  Lc  iperf_task.o [1]
iperf_udp_run_server    0x100792c1    0x68e  Code  Gb  iperf_task.o [1]
iperf_udp_run_server::__FUNCTION__
                        0x10079950     0x18  Data  Lc  iperf_task.o [1]
ipfrag_free_pbuf_custom
                        0x1008f1c7     0x2c  Code  Lc  ip_frag.o [1]
iq_tcb                  0x20002170      0x4  Data  Lc  inband_queue.o [15]
is_broadcast_ether_addr
                        0x100e8f3b     0x22  Code  Lc  driver_inband.o [12]
is_broadcast_ether_addr
                        0x100f1089     0x22  Code  Lc  wpas_glue.o [12]
is_cli_bqb_mode         0x20035b30      0x1  Data  Gb  bt_cli.o [1]
is_lwip_net_ready       0x100afa57      0x6  Code  Gb  wifi_lwip_helper.o [1]
is_ping_ongoing         0x20001228      0x4  Data  Lc  ping.o [1]
is_zero_ether_addr      0x100e8f1d     0x1e  Code  Lc  driver_inband.o [12]
is_zero_ether_addr      0x100e29e5     0x1e  Code  Lc  wpa_supplicant.o [12]
is_zero_ether_addr      0x100ebda5     0x1e  Code  Lc  wpa.o [12]
is_zero_ether_addr      0x100f15bd     0x1e  Code  Lc  events.o [12]
is_zero_ether_addr      0x100f46e5     0x1e  Code  Lc  ap_config.o [12]
is_zero_ether_addr      0x100fadf1     0x1e  Code  Lc  beacon.o [12]
isalpha                 0x1007eb0f     0x14  Code  Gb  isxxx.o [4]
isdst                   0x1010908c      0x1  Data  Lc  xlocale_c.o [4]
isleapyr                0x101093bd     0x44  Code  Lc  xgentime.o [4]
isprint                 0x100f8fd9     0x28  Code  Gb  isprint.o [4]
ispunct                 0x1007eb23     0x14  Code  Gb  isxxx.o [4]
isrC_main               0x00100389     0x4c  Code  Gb  hal_nvic.o [1]
isrC_main::__FUNCTION__
                        0x001003d8      0xc  Data  Lc  hal_nvic.o [1]
isspace                 0x1007eb37     0x14  Code  Gb  isxxx.o [4]
isupper                 0x1007eb4b     0x14  Code  Gb  isxxx.o [4]
kConversion             0x1007b8c8     0x20  Data  Gb  iperf_task.o [1]
kConversionForBits      0x1007b8e8     0x20  Data  Gb  iperf_task.o [1]
kLabel_Byte             0x20000fbc     0x10  Data  Gb  iperf_task.o [1]
kLabel_bit              0x20000fcc     0x10  Data  Gb  iperf_task.o [1]
key_mgmt2driver         0x100e3863     0x52  Code  Gb  wpa_supplicant.o [12]
l2_packet_deinit        0x100ef9d5     0x1c  Code  Gb  l2_packet_freertos.o [12]
l2_packet_init          0x100ef88d    0x12a  Code  Gb  l2_packet_freertos.o [12]
l2_packet_notify_auth_start
                        0x100ef9f1      0x2  Code  Gb  l2_packet_freertos.o [12]
l2_packet_receive       0x100ea3df     0x5e  Code  Gb  driver_inband.o [12]
l2_packet_send          0x100ef7a1     0xec  Code  Gb  l2_packet_freertos.o [12]
lfree                   0x20019ca8      0x4  Data  Lc  mem.o [1]
list_updating           0x20001547      0x1  Data  Gb  ut_app.o [1]
lmos                    0x10108f6c     0x18  Data  Lc  xttotm.o [4]
local_config            0x20001538      0x8  Data  Lc  ut_app.o [1]
local_key_req           0x20001760     0x3c  Data  Gb  ut_app.o [1]
local_key_req_default   0x2000179c     0x3c  Data  Gb  ut_app.o [1]
local_memcpy            0x001023e5     0x1a  Code  Gb  sha1.o [12]
local_memset            0x001023ff     0x16  Code  Gb  sha1.o [12]
local_public_addr       0x2000409c      0x8  Data  Gb  bt_init.o [1]
localeconv              0x100918a3     0x16  Code  Gb  localeconv.o [4]
locks                   0x20033414     0x20  Data  Gb  wifi_init.o [1]
log_control_block_BLE_SMTCN
                        0x20000458     0x10  Data  Gb  ble_smtcn.o [1]
log_control_block_BT    0x2000047c     0x10  Data  Gb  bt_debug.o [1]
log_control_block_BTHCI
                        0x2000049c     0x10  Data  Gb  bt_debug.o [1]
log_control_block_BTIF  0x200004dc     0x10  Data  Gb  bt_debug.o [1]
log_control_block_BTL2CAP
                        0x200004ac     0x10  Data  Gb  bt_debug.o [1]
log_control_block_BTMM  0x2000048c     0x10  Data  Gb  bt_debug.o [1]
log_control_block_BTRFCOMM
                        0x200004bc     0x10  Data  Gb  bt_debug.o [1]
log_control_block_BTSPP
                        0x200004cc     0x10  Data  Gb  bt_debug.o [1]
log_control_block_MCS   0x2000103c     0x10  Data  Gb  mcs.o [1]
log_control_block_common
                        0x200020a0     0x10  Data  Gb  syslog.o [10]
log_control_block_connsys
                        0x20000b6c     0x10  Data  Gb  connsys_bus.o [1]
log_control_block_dhcpd
                        0x20000b84     0x10  Data  Gb  dhcpd.o [1]
log_control_block_elian
                        0x20000c88     0x10  Data  Gb  elian.o [1]
log_control_block_hal   0x20000ee0     0x10  Data  Gb  hal_log.o [1]
log_control_block_httpclient
                        0x20000ef0     0x10  Data  Gb  httpclient.o [1]
log_control_block_inband
                        0x20002160     0x10  Data  Gb  inband_queue.o [15]
log_control_block_iperf
                        0x20000f9c     0x10  Data  Gb  iperf_task.o [1]
log_control_block_lwip  0x2000102c     0x10  Data  Gb  lwip_log.o [1]
log_control_block_main  0x200013f0     0x10  Data  Gb  sys_init.o [1]
log_control_block_minisupp
                        0x200021b4     0x10  Data  Gb  wpa_debug.o [12]
log_control_block_n9log
                        0x20002088     0x10  Data  Gb  wifi_private_cli.o [1]
log_control_block_ping  0x20001214     0x10  Data  Gb  ping.o [1]
log_control_block_smnt  0x20001268     0x10  Data  Gb  smt_api.o [1]
log_control_block_wifi  0x20002078     0x10  Data  Gb  wifi_init.o [1]
log_hal_dump_internal   0x1007f645     0x1c  Code  Gb  hal_log.o [1]
log_hal_error_internal  0x1007f60d     0x1c  Code  Gb  hal_log.o [1]
log_hal_info_internal   0x1007f629     0x1c  Code  Gb  hal_log.o [1]
log_init                0x10083bbb     0xae  Code  Gb  syslog.o [10]
log_queue_create        0x1008398f     0x26  Code  Gb  syslog.o [10]
log_queue_receive       0x10083a13     0x22  Code  Gb  syslog.o [10]
log_queue_send          0x100839b5     0x5e  Code  Gb  syslog.o [10]
log_switch_table        0x200020b0      0x8  Data  Lc  syslog.o [10]
log_switch_to_str       0x100841ad     0x2c  Code  Gb  syslog.o [10]
log_uart_init           0x100837c1     0x3c  Code  Gb  syslog.o [10]
loop_netif              0x20032cdc     0x44  Data  Lc  netif.o [1]
low_level_init1         0x100be375      0xe  Code  Lc  ethernetif.o [1]
low_level_init2         0x100be383      0xe  Code  Lc  ethernetif.o [1]
low_level_output_scatter
                        0x100be391    0x324  Code  Lc  ethernetif.o [1]
low_level_output_scatter::__FUNCTION__
                        0x100bed10     0x1c  Data  Lc  ethernetif.o [1]
low_level_output_scatter::tx_sequence
                        0x200055bc      0x4  Data  Lc  ethernetif.o [1]
low_level_set_mac_addr  0x100be363      0xc  Code  Gb  ethernetif.o [1]
lp_cli                  0x20000fdc     0x50  Data  Gb  lp_ex_sleep.o [1]
lp_connsys_get_own_enable_int
                        0x100d48a1     0xaa  Code  Gb  connsys_driver.o [1]
lp_connsys_get_own_enable_int::__FUNCTION__
                        0x100d5150     0x20  Data  Lc  connsys_driver.o [1]
lp_connsys_give_n9_own  0x100d494d     0x94  Code  Gb  connsys_driver.o [1]
lp_connsys_give_n9_own::__FUNCTION__
                        0x100d51dc     0x18  Data  Lc  connsys_driver.o [1]
lt_addr                 0x20001530      0x8  Data  Gb  ut_app.o [1]
lwip_accept             0x1007bb37    0x1e0  Code  Gb  sockets.o [1]
lwip_advance_pkt_hdr    0x100be6b5      0x8  Code  Gb  ethernetif.o [1]
lwip_bind               0x1007bd81     0x84  Code  Gb  sockets.o [1]
lwip_close              0x1007be21     0x74  Code  Gb  sockets.o [1]
lwip_connect            0x1007bead     0x90  Code  Gb  sockets.o [1]
lwip_connsys_ops        0x20000ca4     0x18  Data  Gb  ethernetif.o [1]
lwip_deliver_tcpip      0x100bea1b     0x4c  Code  Gb  ethernetif.o [1]
lwip_deliver_tcpip::__FUNCTION__
                        0x100bf058     0x14  Data  Lc  ethernetif.o [1]
lwip_fcntl              0x1007ce4d     0x7a  Code  Gb  sockets.o [1]
lwip_freeaddrinfo       0x100b66a5     0x12  Code  Gb  netdb.o [1]
lwip_get_netif_name     0x100beba7     0x8c  Code  Lc  ethernetif.o [1]
lwip_getaddrinfo        0x100b66b7    0x164  Code  Gb  netdb.o [1]
lwip_htonl              0x1007e2d9     0x18  Code  Gb  def.o [1]
lwip_htons              0x1007e2cb      0xc  Code  Gb  def.o [1]
lwip_init               0x1008999d     0x26  Code  Gb  init.o [1]
lwip_ip_cli             0x101086a9     0x78  Code  Gb  lwip_cli.o [1]
lwip_listen             0x1007bf5d     0x76  Code  Gb  sockets.o [1]
lwip_net_ready          0x100afa5d     0x2e  Code  Gb  wifi_lwip_helper.o [1]
lwip_net_start          0x100af96b     0x9e  Code  Gb  wifi_lwip_helper.o [1]
lwip_net_start::__FUNCTION__
                        0x100afc1c     0x10  Data  Lc  wifi_lwip_helper.o [1]
lwip_net_stop           0x100afa09     0x4e  Code  Gb  wifi_lwip_helper.o [1]
lwip_netconn_do_bind    0x10087817     0x7e  Code  Gb  api_msg.o [1]
lwip_netconn_do_close   0x10088079     0xbe  Code  Gb  api_msg.o [1]
lwip_netconn_do_close_internal
                        0x10087415    0x258  Code  Lc  api_msg.o [1]
lwip_netconn_do_connect
                        0x1008797f     0xf2  Code  Gb  api_msg.o [1]
lwip_netconn_do_connected
                        0x10087895     0xea  Code  Lc  api_msg.o [1]
lwip_netconn_do_delconn
                        0x100876e9    0x12e  Code  Gb  api_msg.o [1]
lwip_netconn_do_disconnect
                        0x10087a71     0x4c  Code  Gb  api_msg.o [1]
lwip_netconn_do_dns_found
                        0x10088137     0x1e  Code  Lc  api_msg.o [1]
lwip_netconn_do_getaddr
                        0x10087f95     0xe4  Code  Gb  api_msg.o [1]
lwip_netconn_do_gethostbyname
                        0x10088155     0x32  Code  Gb  api_msg.o [1]
lwip_netconn_do_listen  0x10087abd     0xe0  Code  Gb  api_msg.o [1]
lwip_netconn_do_newconn
                        0x10087129     0x40  Code  Gb  api_msg.o [1]
lwip_netconn_do_recv    0x10087c55     0x66  Code  Gb  api_msg.o [1]
lwip_netconn_do_send    0x10087bb9     0x9c  Code  Gb  api_msg.o [1]
lwip_netconn_do_write   0x10087edb     0xba  Code  Gb  api_msg.o [1]
lwip_netconn_do_writemore
                        0x10087cbb    0x220  Code  Lc  api_msg.o [1]
lwip_network_init       0x100af90b     0x60  Code  Gb  wifi_lwip_helper.o [1]
lwip_network_init::__FUNCTION__
                        0x100afbd8     0x14  Data  Lc  wifi_lwip_helper.o [1]
lwip_ntohl              0x1007e2f1      0x2  Code  Gb  def.o [1]
lwip_ntohs              0x1007e2d7      0x2  Code  Gb  def.o [1]
lwip_read               0x1007c289     0x10  Code  Gb  sockets.o [1]
lwip_recv               0x1007c299      0xe  Code  Gb  sockets.o [1]
lwip_recvfrom           0x1007bfd3    0x2b6  Code  Gb  sockets.o [1]
lwip_select             0x1007c6b9    0x34c  Code  Gb  sockets.o [1]
lwip_selscan            0x1007c517    0x180  Code  Lc  sockets.o [1]
lwip_send               0x1007c2a7     0x9a  Code  Gb  sockets.o [1]
lwip_sendto             0x1007c341     0xf0  Code  Gb  sockets.o [1]
lwip_setsockopt         0x1007cc41     0x7e  Code  Gb  sockets.o [1]
lwip_setsockopt_callback
                        0x1007ccc1     0x38  Code  Lc  sockets.o [1]
lwip_setsockopt_impl    0x1007ccf9    0x14a  Code  Lc  sockets.o [1]
lwip_shutdown           0x1007cba5     0x9c  Code  Gb  sockets.o [1]
lwip_socket             0x1007c475     0x9e  Code  Gb  sockets.o [1]
lwip_standard_chksum    0x10090d19     0x5e  Code  Gb  inet_chksum.o [1]
lwip_stats              0x200330cc     0xd0  Data  Gb  stats.o [1]
lwip_tcpip_init         0x100beb69     0x3e  Code  Gb  ethernetif.o [1]
lwip_write              0x1007c513      0x4  Code  Gb  sockets.o [1]
mac_in_conf             0x100f54d5     0x32  Code  Lc  hostapd.o [12]
main                    0x101088b1    0x144  Code  Gb  main.o [1]
main::__FUNCTION__      0x101089fc      0x8  Data  Lc  main.o [1]
mbedtls_aes_crypt_cbc   0x1009bd4b     0xae  Code  Gb  aes.o [1]
mbedtls_aes_crypt_ecb   0x1009bd31     0x1a  Code  Gb  aes.o [1]
mbedtls_aes_decrypt     0x1009a959    0x3d2  Code  Gb  aes.o [1]
mbedtls_aes_encrypt     0x10099575    0x3d0  Code  Gb  aes.o [1]
mbedtls_aes_free        0x100992b5      0xc  Code  Gb  aes.o [1]
mbedtls_aes_init        0x100992ab      0xa  Code  Gb  aes.o [1]
mbedtls_aes_setkey_dec  0x100994a9     0xcc  Code  Gb  aes.o [1]
mbedtls_aes_setkey_enc  0x100992c1    0x1c0  Code  Gb  aes.o [1]
mbedtls_arc4_crypt      0x1009be6d     0x52  Code  Gb  arc4.o [1]
mbedtls_arc4_free       0x1009be15      0xc  Code  Gb  arc4.o [1]
mbedtls_arc4_init       0x1009be0b      0xa  Code  Gb  arc4.o [1]
mbedtls_arc4_setup      0x1009be21     0x4c  Code  Gb  arc4.o [1]
mbedtls_asn1_get_alg    0x1009c16f     0x8c  Code  Gb  asn1parse.o [1]
mbedtls_asn1_get_bitstring
                        0x1009c06d     0x50  Code  Gb  asn1parse.o [1]
mbedtls_asn1_get_bitstring_null
                        0x1009c0bd     0x30  Code  Gb  asn1parse.o [1]
mbedtls_asn1_get_bool   0x1009bfc5     0x36  Code  Gb  asn1parse.o [1]
mbedtls_asn1_get_int    0x1009bffb     0x4c  Code  Gb  asn1parse.o [1]
mbedtls_asn1_get_len    0x1009bed5     0xc8  Code  Gb  asn1parse.o [1]
mbedtls_asn1_get_mpi    0x1009c047     0x26  Code  Gb  asn1parse.o [1]
mbedtls_asn1_get_sequence_of
                        0x1009c0ed     0x82  Code  Gb  asn1parse.o [1]
mbedtls_asn1_get_tag    0x1009bf9d     0x28  Code  Gb  asn1parse.o [1]
mbedtls_base64_decode   0x1009de85    0x120  Code  Gb  base64.o [1]
mbedtls_cipher_crypt    0x100cc7b1     0x4c  Code  Gb  cipher.o [1]
mbedtls_cipher_definitions
                        0x10094644     0x70  Data  Gb  cipher_wrap.o [1]
mbedtls_cipher_finish   0x100cc683     0xee  Code  Gb  cipher.o [1]
mbedtls_cipher_free     0x100cc39f     0x20  Code  Gb  cipher.o [1]
mbedtls_cipher_get_block_size
                        0x100cc339     0x12  Code  Lc  cipher.o [1]
mbedtls_cipher_get_cipher_mode
                        0x100b68e1     0x12  Code  Lc  ssl_tls.o [1]
mbedtls_cipher_get_iv_size
                        0x100cc34b     0x18  Code  Lc  cipher.o [1]
mbedtls_cipher_info_from_type
                        0x100cc375     0x22  Code  Gb  cipher.o [1]
mbedtls_cipher_init     0x100cc397      0x8  Code  Gb  cipher.o [1]
mbedtls_cipher_reset    0x100cc48d     0x16  Code  Gb  cipher.o [1]
mbedtls_cipher_set_iv   0x100cc453     0x3a  Code  Gb  cipher.o [1]
mbedtls_cipher_set_padding_mode
                        0x100cc771     0x24  Code  Gb  cipher.o [1]
mbedtls_cipher_setkey   0x100cc3f9     0x5a  Code  Gb  cipher.o [1]
mbedtls_cipher_setup    0x100cc3bf     0x3a  Code  Gb  cipher.o [1]
mbedtls_cipher_update   0x100cc4a3    0x1ce  Code  Gb  cipher.o [1]
mbedtls_ctr_drbg_free   0x100bd62b     0x2a  Code  Gb  ctr_drbg.o [1]
mbedtls_ctr_drbg_init   0x100bd5a3     0x20  Code  Gb  ctr_drbg.o [1]
mbedtls_ctr_drbg_random
                        0x100bd939     0x4c  Code  Gb  ctr_drbg.o [1]
mbedtls_ctr_drbg_random_with_add
                        0x100bd86d     0xcc  Code  Gb  ctr_drbg.o [1]
mbedtls_ctr_drbg_reseed
                        0x100bd7ef     0x7e  Code  Gb  ctr_drbg.o [1]
mbedtls_ctr_drbg_seed   0x100bd61b     0x10  Code  Gb  ctr_drbg.o [1]
mbedtls_ctr_drbg_seed_entropy_len
                        0x100bd5c3     0x58  Code  Gb  ctr_drbg.o [1]
mbedtls_debug_print_buf
                        0x100bb011    0x13a  Code  Gb  debug.o [1]
mbedtls_debug_print_crt
                        0x100bb3d9     0xae  Code  Gb  debug.o [1]
mbedtls_debug_print_mpi
                        0x100bb14b    0x176  Code  Gb  debug.o [1]
mbedtls_debug_print_msg
                        0x100baf5f     0x5a  Code  Gb  debug.o [1]
mbedtls_debug_print_ret
                        0x100bafb9     0x58  Code  Gb  debug.o [1]
mbedtls_debug_set_threshold
                        0x100baf1d      0x8  Code  Gb  debug.o [1]
mbedtls_des3_crypt_cbc  0x100e1505     0x9c  Code  Gb  des.o [1]
mbedtls_des3_crypt_ecb  0x100e0a11    0x3ee  Code  Gb  des.o [1]
mbedtls_des3_free       0x100e024f      0xc  Code  Gb  des.o [1]
mbedtls_des3_init       0x100e0245      0xa  Code  Gb  des.o [1]
mbedtls_des3_set2key_dec
                        0x100e06b9     0x1e  Code  Gb  des.o [1]
mbedtls_des3_set2key_enc
                        0x100e069d     0x1c  Code  Gb  des.o [1]
mbedtls_des3_set3key_dec
                        0x100e0765     0x1e  Code  Gb  des.o [1]
mbedtls_des3_set3key_enc
                        0x100e0749     0x1c  Code  Gb  des.o [1]
mbedtls_des_crypt_cbc   0x100e0975     0x9c  Code  Gb  des.o [1]
mbedtls_des_crypt_ecb   0x100e0783    0x1f2  Code  Gb  des.o [1]
mbedtls_des_free        0x100e023b      0xa  Code  Gb  des.o [1]
mbedtls_des_init        0x100e0233      0x8  Code  Gb  des.o [1]
mbedtls_des_setkey      0x100e025b    0x314  Code  Gb  des.o [1]
mbedtls_des_setkey_dec  0x100e05fb     0x34  Code  Gb  des.o [1]
mbedtls_des_setkey_enc  0x100e05f1      0xa  Code  Gb  des.o [1]
mbedtls_entropy_add_source
                        0x100bd9ff     0x6c  Code  Gb  entropy.o [1]
mbedtls_entropy_free    0x100bd9e1     0x1e  Code  Gb  entropy.o [1]
mbedtls_entropy_func    0x100bdb2d     0xf6  Code  Gb  entropy.o [1]
mbedtls_entropy_init    0x100bd9a7     0x3a  Code  Gb  entropy.o [1]
mbedtls_get_current_count
                        0x10106f29     0x34  Code  Lc  entropy_poll.o [1]
mbedtls_get_current_count::__FUNCTION__
                        0x10106f88     0x1c  Data  Lc  entropy_poll.o [1]
mbedtls_hardware_poll   0x10106f5d     0x2a  Code  Gb  entropy_poll.o [1]
mbedtls_md              0x100cc17b     0x1a  Code  Gb  md.o [1]
mbedtls_md5             0x100cabdd     0x32  Code  Gb  md5.o [1]
mbedtls_md5_clone       0x100ca255      0x6  Code  Gb  md5.o [1]
mbedtls_md5_finish      0x100cab25     0xb8  Code  Gb  md5.o [1]
mbedtls_md5_free        0x100ca24b      0xa  Code  Gb  md5.o [1]
mbedtls_md5_info        0x10094be0     0x30  Data  Gb  md_wrap.o [1]
mbedtls_md5_init        0x100ca243      0x8  Code  Gb  md5.o [1]
mbedtls_md5_process     0x100ca27b    0x836  Code  Gb  md5.o [1]
mbedtls_md5_starts      0x100ca25b     0x20  Code  Gb  md5.o [1]
mbedtls_md5_update      0x100caab1     0x74  Code  Gb  md5.o [1]
mbedtls_md_finish       0x100cc161     0x1a  Code  Gb  md.o [1]
mbedtls_md_free         0x100cc0b1     0x38  Code  Gb  md.o [1]
mbedtls_md_get_size     0x100cc31d      0xe  Code  Gb  md.o [1]
mbedtls_md_get_type     0x100cc32b      0xc  Code  Gb  md.o [1]
mbedtls_md_hmac_finish  0x100cc25d     0x58  Code  Gb  md.o [1]
mbedtls_md_hmac_reset   0x100cc2b5     0x2c  Code  Gb  md.o [1]
mbedtls_md_hmac_starts  0x100cc195     0xa8  Code  Gb  md.o [1]
mbedtls_md_hmac_update  0x100cc23d     0x20  Code  Gb  md.o [1]
mbedtls_md_info_from_type
                        0x100cc07d     0x2c  Code  Gb  md.o [1]
mbedtls_md_init         0x100cc0a9      0x8  Code  Gb  md.o [1]
mbedtls_md_process      0x100cc2e1     0x1a  Code  Gb  md.o [1]
mbedtls_md_setup        0x100cc0e9     0x44  Code  Gb  md.o [1]
mbedtls_md_starts       0x100cc12d     0x1a  Code  Gb  md.o [1]
mbedtls_md_update       0x100cc147     0x1a  Code  Gb  md.o [1]
mbedtls_mpi_add_abs     0x1009c6e9     0xa8  Code  Gb  bignum.o [1]
mbedtls_mpi_add_mpi     0x1009c84b     0x52  Code  Gb  bignum.o [1]
mbedtls_mpi_bitlen      0x1009c383     0x42  Code  Gb  bignum.o [1]
mbedtls_mpi_cmp_abs     0x1009c5b1     0x74  Code  Gb  bignum.o [1]
mbedtls_mpi_cmp_int     0x1009c6b9     0x30  Code  Gb  bignum.o [1]
mbedtls_mpi_cmp_mpi     0x1009c625     0x94  Code  Gb  bignum.o [1]
mbedtls_mpi_copy        0x1009c2b5     0x60  Code  Gb  bignum.o [1]
mbedtls_mpi_div_mpi     0x1009d1dd    0x3b2  Code  Gb  bignum.o [1]
mbedtls_mpi_exp_mod     0x1009d6eb    0x3cc  Code  Gb  bignum.o [1]
mbedtls_mpi_fill_random
                        0x1009dbc1     0x34  Code  Gb  bignum.o [1]
mbedtls_mpi_free        0x1009c225     0x2c  Code  Gb  bignum.o [1]
mbedtls_mpi_gcd         0x1009dab7    0x10a  Code  Gb  bignum.o [1]
mbedtls_mpi_grow        0x1009c251     0x64  Code  Gb  bignum.o [1]
mbedtls_mpi_init        0x1009c20f     0x16  Code  Gb  bignum.o [1]
mbedtls_mpi_inv_mod     0x1009dbf5    0x28e  Code  Gb  bignum.o [1]
mbedtls_mpi_lsb         0x1009c351     0x32  Code  Gb  bignum.o [1]
mbedtls_mpi_lset        0x1009c315     0x3c  Code  Gb  bignum.o [1]
mbedtls_mpi_mod_mpi     0x1009d58f     0x64  Code  Gb  bignum.o [1]
mbedtls_mpi_mul_int     0x1009d1c3     0x1a  Code  Gb  bignum.o [1]
mbedtls_mpi_mul_mpi     0x1009d0e3     0xe0  Code  Gb  bignum.o [1]
mbedtls_mpi_read_binary
                        0x1009c3d1     0x6a  Code  Gb  bignum.o [1]
mbedtls_mpi_shift_l     0x1009c483     0xa2  Code  Gb  bignum.o [1]
mbedtls_mpi_shift_r     0x1009c525     0x8c  Code  Gb  bignum.o [1]
mbedtls_mpi_size        0x1009c3c5      0xc  Code  Gb  bignum.o [1]
mbedtls_mpi_sub_abs     0x1009c7d7     0x74  Code  Gb  bignum.o [1]
mbedtls_mpi_sub_int     0x1009c8ef     0x30  Code  Gb  bignum.o [1]
mbedtls_mpi_sub_mpi     0x1009c89d     0x52  Code  Gb  bignum.o [1]
mbedtls_mpi_write_binary
                        0x1009c43b     0x48  Code  Gb  bignum.o [1]
mbedtls_mutex_free      0x20001518      0x4  Data  Gb  threading.o [1]
mbedtls_mutex_init      0x20001514      0x4  Data  Gb  threading.o [1]
mbedtls_mutex_lock      0x2000151c      0x4  Data  Gb  threading.o [1]
mbedtls_mutex_unlock    0x20001520      0x4  Data  Gb  threading.o [1]
mbedtls_net_connect     0x100bb561     0xa0  Code  Gb  net.o [1]
mbedtls_net_free        0x100bb6d9     0x20  Code  Gb  net.o [1]
mbedtls_net_init        0x100bb559      0x8  Code  Gb  net.o [1]
mbedtls_net_recv        0x100bb627     0x54  Code  Gb  net.o [1]
mbedtls_net_send        0x100bb67b     0x54  Code  Gb  net.o [1]
mbedtls_oid_get_attr_short_name
                        0x100cfd7f     0x1a  Code  Gb  oid.o [1]
mbedtls_oid_get_extended_key_usage
                        0x100cfe17     0x1a  Code  Gb  oid.o [1]
mbedtls_oid_get_md_alg  0x100cff6b     0x1a  Code  Gb  oid.o [1]
mbedtls_oid_get_oid_by_md
                        0x100cff85     0x2a  Code  Gb  oid.o [1]
mbedtls_oid_get_pk_alg  0x100cfecd     0x1a  Code  Gb  oid.o [1]
mbedtls_oid_get_sig_alg
                        0x100cfe7b     0x20  Code  Gb  oid.o [1]
mbedtls_oid_get_sig_alg_desc
                        0x100cfe61     0x1a  Code  Gb  oid.o [1]
mbedtls_oid_get_x509_ext_type
                        0x100cfdcb     0x1a  Code  Gb  oid.o [1]
mbedtls_pem_free        0x100d08c9     0x1a  Code  Gb  pem.o [1]
mbedtls_pem_init        0x100d0433      0x8  Code  Gb  pem.o [1]
mbedtls_pem_read_buffer
                        0x100d0635    0x270  Code  Gb  pem.o [1]
mbedtls_pk_can_do       0x100bd3d9     0x14  Code  Gb  pk.o [1]
mbedtls_pk_debug        0x100bd53b     0x22  Code  Gb  pk.o [1]
mbedtls_pk_encrypt      0x100bd4f3     0x34  Code  Gb  pk.o [1]
mbedtls_pk_free         0x100bd383     0x1e  Code  Gb  pk.o [1]
mbedtls_pk_get_bitlen   0x100bd527     0x14  Code  Gb  pk.o [1]
mbedtls_pk_get_name     0x100bd571     0x14  Code  Gb  pk.o [1]
mbedtls_pk_info_from_type
                        0x100bd3a1      0xc  Code  Gb  pk.o [1]
mbedtls_pk_init         0x100bd377      0xc  Code  Gb  pk.o [1]
mbedtls_pk_parse_key    0x100bdf75    0x14c  Code  Gb  pkparse.o [1]
mbedtls_pk_parse_subpubkey
                        0x100bdd09     0xba  Code  Gb  pkparse.o [1]
mbedtls_pk_rsa          0x100bdc39      0x4  Code  Lc  pkparse.o [1]
mbedtls_pk_setup        0x100bd3ad     0x2c  Code  Gb  pk.o [1]
mbedtls_pk_sign         0x100bd4a5     0x4e  Code  Gb  pk.o [1]
mbedtls_pk_verify       0x100bd413     0x42  Code  Gb  pk.o [1]
mbedtls_pk_verify_ext   0x100bd455     0x50  Code  Gb  pk.o [1]
mbedtls_rsa_check_privkey
                        0x100d0a17    0x200  Code  Gb  rsa.o [1]
mbedtls_rsa_check_pub_priv
                        0x100d0c17     0x42  Code  Gb  rsa.o [1]
mbedtls_rsa_check_pubkey
                        0x100d09bb     0x5c  Code  Gb  rsa.o [1]
mbedtls_rsa_free        0x100d14c9     0x7c  Code  Gb  rsa.o [1]
mbedtls_rsa_info        0x100957c8     0x30  Data  Gb  pk_wrap.o [1]
mbedtls_rsa_init        0x100d0981     0x2e  Code  Gb  rsa.o [1]
mbedtls_rsa_pkcs1_decrypt
                        0x100d1175     0x28  Code  Gb  rsa.o [1]
mbedtls_rsa_pkcs1_encrypt
                        0x100d1053     0x26  Code  Gb  rsa.o [1]
mbedtls_rsa_pkcs1_sign  0x100d12b7     0x28  Code  Gb  rsa.o [1]
mbedtls_rsa_pkcs1_verify
                        0x100d14a1     0x28  Code  Gb  rsa.o [1]
mbedtls_rsa_private     0x100d0dc9    0x1b0  Code  Gb  rsa.o [1]
mbedtls_rsa_public      0x100d0c59     0xaa  Code  Gb  rsa.o [1]
mbedtls_rsa_rsaes_pkcs1_v15_decrypt
                        0x100d1079     0xfc  Code  Gb  rsa.o [1]
mbedtls_rsa_rsaes_pkcs1_v15_encrypt
                        0x100d0f79     0xda  Code  Gb  rsa.o [1]
mbedtls_rsa_rsassa_pkcs1_v15_sign
                        0x100d119d    0x11a  Code  Gb  rsa.o [1]
mbedtls_rsa_rsassa_pkcs1_v15_verify
                        0x100d12df    0x1c2  Code  Gb  rsa.o [1]
mbedtls_rsa_set_padding
                        0x100d09af      0xc  Code  Gb  rsa.o [1]
mbedtls_sha1            0x100cbfe9     0x32  Code  Gb  sha1.o [1]
mbedtls_sha1_clone      0x100cad85      0x6  Code  Gb  sha1.o [1]
mbedtls_sha1_finish     0x100cbf1d     0xcc  Code  Gb  sha1.o [1]
mbedtls_sha1_free       0x100cad7b      0xa  Code  Gb  sha1.o [1]
mbedtls_sha1_info       0x10094c10     0x30  Data  Gb  md_wrap.o [1]
mbedtls_sha1_init       0x100cad73      0x8  Code  Gb  sha1.o [1]
mbedtls_sha1_process    0x100cadbd   0x10e8  Code  Gb  sha1.o [1]
mbedtls_sha1_starts     0x100cad8b     0x1c  Code  Gb  sha1.o [1]
mbedtls_sha1_update     0x100cbea9     0x74  Code  Gb  sha1.o [1]
mbedtls_sha224_info     0x10094c40     0x30  Data  Gb  md_wrap.o [1]
mbedtls_sha256          0x100cd6e1     0x36  Code  Gb  sha256.o [1]
mbedtls_sha256_clone    0x100ccce1      0x6  Code  Gb  sha256.o [1]
mbedtls_sha256_finish   0x100cd5cd    0x114  Code  Gb  sha256.o [1]
mbedtls_sha256_free     0x100cccd7      0xa  Code  Gb  sha256.o [1]
mbedtls_sha256_info     0x10094c70     0x30  Data  Gb  md_wrap.o [1]
mbedtls_sha256_init     0x100ccccf      0x8  Code  Gb  sha256.o [1]
mbedtls_sha256_process  0x100ccd57    0x802  Code  Gb  sha256.o [1]
mbedtls_sha256_starts   0x100ccce7     0x70  Code  Gb  sha256.o [1]
mbedtls_sha256_update   0x100cd559     0x74  Code  Gb  sha256.o [1]
mbedtls_sha384_info     0x10094ca0     0x30  Data  Gb  md_wrap.o [1]
mbedtls_sha512          0x10093a4b     0x36  Code  Gb  sha512.o [1]
mbedtls_sha512_clone    0x1009252d      0x6  Code  Gb  sha512.o [1]
mbedtls_sha512_finish   0x10093795    0x2b6  Code  Gb  sha512.o [1]
mbedtls_sha512_free     0x10092523      0xa  Code  Gb  sha512.o [1]
mbedtls_sha512_info     0x10094cd0     0x30  Data  Gb  md_wrap.o [1]
mbedtls_sha512_init     0x1009251b      0x8  Code  Gb  sha512.o [1]
mbedtls_sha512_process  0x1009264d    0xe36  Code  Gb  sha512.o [1]
mbedtls_sha512_starts   0x10092533     0x98  Code  Gb  sha512.o [1]
mbedtls_sha512_update   0x10093709     0x8c  Code  Gb  sha512.o [1]
mbedtls_ssl_check_cert_usage
                        0x100bac73      0x4  Code  Gb  ssl_tls.o [1]
mbedtls_ssl_ciphersuite_from_id
                        0x100cc83d     0x1a  Code  Gb  ssl_ciphersuites.o [1]
mbedtls_ssl_close_notify
                        0x100ba965     0x80  Code  Gb  ssl_tls.o [1]
mbedtls_ssl_conf_authmode
                        0x100ba5c9      0xa  Code  Gb  ssl_tls.o [1]
mbedtls_ssl_conf_ca_chain
                        0x100ba62d      0x6  Code  Gb  ssl_tls.o [1]
mbedtls_ssl_conf_cert_profile
                        0x100ba5eb      0x4  Code  Gb  ssl_tls.o [1]
mbedtls_ssl_conf_dbg    0x100ba5d9      0x6  Code  Gb  ssl_tls.o [1]
mbedtls_ssl_conf_endpoint
                        0x100ba5b5      0xa  Code  Gb  ssl_tls.o [1]
mbedtls_ssl_conf_own_cert
                        0x100ba629      0x4  Code  Gb  ssl_tls.o [1]
mbedtls_ssl_conf_rng    0x100ba5d3      0x6  Code  Gb  ssl_tls.o [1]
mbedtls_ssl_conf_transport
                        0x100ba5bf      0xa  Code  Gb  ssl_tls.o [1]
mbedtls_ssl_config_defaults
                        0x100bab8b     0x72  Code  Gb  ssl_tls.o [1]
mbedtls_ssl_config_free
                        0x100bac25     0x3c  Code  Gb  ssl_tls.o [1]
mbedtls_ssl_config_init
                        0x100bab83      0x8  Code  Gb  ssl_tls.o [1]
mbedtls_ssl_derive_keys
                        0x100b6db5    0x5c6  Code  Gb  ssl_tls.o [1]
mbedtls_ssl_fetch_input
                        0x100b83d1    0x12e  Code  Gb  ssl_tls.o [1]
mbedtls_ssl_flush_output
                        0x100b8575    0x140  Code  Gb  ssl_tls.o [1]
mbedtls_ssl_free        0x100baaaf     0xd4  Code  Gb  ssl_tls.o [1]
mbedtls_ssl_get_ciphersuite_name
                        0x100cc857     0x14  Code  Gb  ssl_ciphersuites.o [1]
mbedtls_ssl_get_verify_result
                        0x100ba633     0x1a  Code  Gb  ssl_tls.o [1]
mbedtls_ssl_handshake   0x100ba673     0x58  Code  Gb  ssl_tls.o [1]
mbedtls_ssl_handshake_client_step
                        0x100cf175    0x11a  Code  Gb  ssl_cli.o [1]
mbedtls_ssl_handshake_free
                        0x100baa2f     0x5c  Code  Gb  ssl_tls.o [1]
mbedtls_ssl_handshake_step
                        0x100ba64d     0x26  Code  Gb  ssl_tls.o [1]
mbedtls_ssl_handshake_wrapup
                        0x100b9fe1     0x8e  Code  Gb  ssl_tls.o [1]
mbedtls_ssl_hdr_len     0x100b690f      0x4  Code  Lc  ssl_tls.o [1]
mbedtls_ssl_hs_hdr_len  0x100cd8d1      0x4  Code  Lc  ssl_cli.o [1]
mbedtls_ssl_hs_hdr_len  0x100b6913      0x4  Code  Lc  ssl_tls.o [1]
mbedtls_ssl_init        0x100ba4f9      0x8  Code  Gb  ssl_tls.o [1]
mbedtls_ssl_list_ciphersuites
                        0x100cc7fd     0x3c  Code  Gb  ssl_ciphersuites.o [1]
mbedtls_ssl_optimize_checksum
                        0x100b9919     0x2c  Code  Gb  ssl_tls.o [1]
mbedtls_ssl_own_cert    0x100cd8b5     0x1c  Code  Lc  ssl_cli.o [1]
mbedtls_ssl_own_cert    0x100b68f3     0x1c  Code  Lc  ssl_tls.o [1]
mbedtls_ssl_own_key     0x100cd899     0x1c  Code  Lc  ssl_cli.o [1]
mbedtls_ssl_parse_certificate
                        0x100b9339    0x2da  Code  Gb  ssl_tls.o [1]
mbedtls_ssl_parse_change_cipher_spec
                        0x100b97a5     0xe6  Code  Gb  ssl_tls.o [1]
mbedtls_ssl_parse_finished
                        0x100ba219    0x122  Code  Gb  ssl_tls.o [1]
mbedtls_ssl_psk_derive_premaster
                        0x100b7835     0x80  Code  Gb  ssl_tls.o [1]
mbedtls_ssl_read        0x100ba6cb    0x19e  Code  Gb  ssl_tls.o [1]
mbedtls_ssl_read_record
                        0x100b8de9    0x170  Code  Gb  ssl_tls.o [1]
mbedtls_ssl_read_version
                        0x100bac7d      0xa  Code  Gb  ssl_tls.o [1]
mbedtls_ssl_safer_memcmp
                        0x100b6917     0x1e  Code  Lc  ssl_tls.o [1]
mbedtls_ssl_send_alert_message
                        0x100b9023     0x7e  Code  Gb  ssl_tls.o [1]
mbedtls_ssl_send_fatal_handshake_failure
                        0x100b9011     0x12  Code  Gb  ssl_tls.o [1]
mbedtls_ssl_session_free
                        0x100baa8b     0x24  Code  Gb  ssl_tls.o [1]
mbedtls_ssl_session_init
                        0x100ba419      0x8  Code  Gb  ssl_tls.o [1]
mbedtls_ssl_set_bio     0x100ba5df      0xc  Code  Gb  ssl_tls.o [1]
mbedtls_ssl_setup       0x100ba501     0x98  Code  Gb  ssl_tls.o [1]
mbedtls_ssl_sig_from_pk
                        0x100bac61     0x12  Code  Gb  ssl_tls.o [1]
mbedtls_ssl_transform_free
                        0x100ba9e9     0x34  Code  Gb  ssl_tls.o [1]
mbedtls_ssl_write       0x100ba8d7     0x86  Code  Gb  ssl_tls.o [1]
mbedtls_ssl_write_certificate
                        0x100b90dd    0x1ba  Code  Gb  ssl_tls.o [1]
mbedtls_ssl_write_change_cipher_spec
                        0x100b96f5     0x6e  Code  Gb  ssl_tls.o [1]
mbedtls_ssl_write_finished
                        0x100ba0b9     0xee  Code  Gb  ssl_tls.o [1]
mbedtls_ssl_write_record
                        0x100b876d    0x170  Code  Gb  ssl_tls.o [1]
mbedtls_ssl_write_version
                        0x100bac77      0x6  Code  Gb  ssl_tls.o [1]
mbedtls_x509_crt_free   0x100bd287     0xce  Code  Gb  x509_crt.o [1]
mbedtls_x509_crt_info   0x100bc44d    0x3b4  Code  Gb  x509_crt.o [1]
mbedtls_x509_crt_init   0x100bd27d      0xa  Code  Gb  x509_crt.o [1]
mbedtls_x509_crt_parse  0x100bbec1    0x100  Code  Gb  x509_crt.o [1]
mbedtls_x509_crt_parse_der
                        0x100bbe39     0x88  Code  Gb  x509_crt.o [1]
mbedtls_x509_crt_profile_default
                        0x100bd354     0x10  Data  Gb  x509_crt.o [1]
mbedtls_x509_crt_profile_suiteb
                        0x10097190     0x10  Data  Gb  x509_crt.o [1]
mbedtls_x509_crt_verify_info
                        0x100bc9b5     0x6e  Code  Gb  x509_crt.o [1]
mbedtls_x509_crt_verify_with_profile
                        0x100bd085    0x1e8  Code  Gb  x509_crt.o [1]
mbedtls_x509_dn_gets    0x100cfafd     0xf8  Code  Gb  x509.o [1]
mbedtls_x509_get_alg    0x100cf75f     0x14  Code  Gb  x509.o [1]
mbedtls_x509_get_ext    0x100cfaa3     0x5a  Code  Gb  x509.o [1]
mbedtls_x509_get_name   0x100cf81d     0x6c  Code  Gb  x509.o [1]
mbedtls_x509_get_serial
                        0x100cf711     0x4e  Code  Gb  x509.o [1]
mbedtls_x509_get_sig    0x100cfa27     0x3e  Code  Gb  x509.o [1]
mbedtls_x509_get_sig_alg
                        0x100cfa65     0x3e  Code  Gb  x509.o [1]
mbedtls_x509_get_time   0x100cf8c7    0x160  Code  Gb  x509.o [1]
mbedtls_x509_key_size_helper
                        0x100cfcb7     0x1e  Code  Gb  x509.o [1]
mbedtls_x509_serial_gets
                        0x100cfbf5     0x88  Code  Gb  x509.o [1]
mbedtls_x509_sig_alg_gets
                        0x100cfc7d     0x3a  Code  Gb  x509.o [1]
mbedtls_x509_time_is_future
                        0x100cfcd9      0x4  Code  Gb  x509.o [1]
mbedtls_x509_time_is_past
                        0x100cfcd5      0x4  Code  Gb  x509.o [1]
mbedtls_zeroize         0x10099299     0x12  Code  Lc  aes.o [1]
mbedtls_zeroize         0x1009bdf9     0x12  Code  Lc  arc4.o [1]
mbedtls_zeroize         0x1009bec1     0x12  Code  Lc  asn1parse.o [1]
mbedtls_zeroize         0x1009c1fd     0x12  Code  Lc  bignum.o [1]
mbedtls_zeroize         0x100cc363     0x12  Code  Lc  cipher.o [1]
mbedtls_zeroize         0x100bd591     0x12  Code  Lc  ctr_drbg.o [1]
mbedtls_zeroize         0x100e0221     0x12  Code  Lc  des.o [1]
mbedtls_zeroize         0x100bd995     0x12  Code  Lc  entropy.o [1]
mbedtls_zeroize         0x100cc069     0x12  Code  Lc  md.o [1]
mbedtls_zeroize         0x100ca231     0x12  Code  Lc  md5.o [1]
mbedtls_zeroize         0x100d0421     0x12  Code  Lc  pem.o [1]
mbedtls_zeroize         0x100bd365     0x12  Code  Lc  pk.o [1]
mbedtls_zeroize         0x100cad61     0x12  Code  Lc  sha1.o [1]
mbedtls_zeroize         0x100cccbd     0x12  Code  Lc  sha256.o [1]
mbedtls_zeroize         0x10092509     0x12  Code  Lc  sha512.o [1]
mbedtls_zeroize         0x100b6935     0x12  Code  Lc  ssl_tls.o [1]
mbedtls_zeroize         0x100bb6f9     0x12  Code  Lc  x509_crt.o [1]
mbox                    0x20033370      0x4  Data  Lc  tcpip.o [1]
mcs_get_gpio33_led      0x100a2e1f      0x2  Code  Gb  mcs.o [1]
mcs_init                0x100a39f3     0x2c  Code  Gb  mcs.o [1]
mcs_initial_task        0x100a36e9     0x30  Code  Gb  mcs.o [1]
mcs_initial_task::__FUNCTION__
                        0x100a3ae8     0x14  Data  Lc  mcs.o [1]
mcs_nvdm_initial        0x100a371d    0x2d6  Code  Gb  mcs.o [1]
mcs_nvdm_initial::__FUNCTION__
                        0x100a3b20     0x14  Data  Lc  mcs.o [1]
mcs_set_gpio33_led      0x100a2e1d      0x2  Code  Gb  mcs.o [1]
mcs_setting_print       0x100a34dd    0x104  Code  Gb  mcs.o [1]
mcs_setting_print::__FUNCTION__
                        0x100a3ad4     0x14  Data  Lc  mcs.o [1]
mcs_split               0x100a24a9     0x22  Code  Gb  mcs.o [1]
mcs_splitn              0x100a24cb     0x34  Code  Gb  mcs.o [1]
mcs_status_updata_init  0x100a3a6f     0x32  Code  Gb  mcs.o [1]
mcs_tcp_callback        0x100a3125    0x27e  Code  Gb  mcs.o [1]
mcs_tcp_callback::__FUNCTION__
                        0x100a3488     0x14  Data  Lc  mcs.o [1]
mcs_tcp_init            0x100a2919    0x18e  Code  Gb  mcs.o [1]
mcs_tcp_init::__FUNCTION__
                        0x100a2b00     0x10  Data  Lc  mcs.o [1]
mcs_update              0x100a2e21     0xa0  Code  Gb  mcs.o [1]
mcs_update_task         0x100a3a1f     0x50  Code  Gb  mcs.o [1]
mcs_update_task::__FUNCTION__
                        0x100a3e1c     0x10  Data  Lc  mcs.o [1]
mcs_upload_datapoint    0x100a2641    0x184  Code  Gb  mcs.o [1]
mcs_upload_datapoint::__FUNCTION__
                        0x100a2834     0x18  Data  Lc  mcs.o [1]
md5_clone_wrap          0x10112605      0x4  Code  Lc  md_wrap.o [1]
md5_ctx_alloc           0x101125dd     0x16  Code  Lc  md_wrap.o [1]
md5_ctx_free            0x101125f3     0x12  Code  Lc  md_wrap.o [1]
md5_finish_wrap         0x101125d9      0x4  Code  Lc  md_wrap.o [1]
md5_padding             0x100cad20     0x40  Data  Lc  md5.o [1]
md5_process_wrap        0x10112609      0x4  Code  Lc  md_wrap.o [1]
md5_starts_wrap         0x101125d1      0x4  Code  Lc  md_wrap.o [1]
md5_update_wrap         0x101125d5      0x4  Code  Lc  md_wrap.o [1]
md5_vector              0x101021fd     0x40  Code  Gb  md5-internal.o [12]
med3                    0x100f7761     0x50  Code  Lc  qsort.o [4]
mem_free                0x100864bd     0xba  Code  Gb  mem.o [1]
mem_init                0x10086463     0x5a  Code  Gb  mem.o [1]
mem_malloc              0x100866a9    0x17a  Code  Gb  mem.o [1]
mem_mutex               0x20032cc8      0x4  Data  Lc  mem.o [1]
mem_trim                0x10086577    0x132  Code  Gb  mem.o [1]
memchr                  0x100842ed           Code  Gb  memchr.o [17]
memoryDumpAll           0x10082053     0x90  Code  Gb  exception_handler.o [10]
memory_regions          0x10094d14     0x50  Data  Gb  memory_regions.o [1]
memp_sizes              0x10094d64     0x20  Data  Gb  memp.o [1]
michael_mic_failure     0x100f9c79     0x66  Code  Gb  tkip_countermeasures.o [12]
minisupp_cli            0x100977e0     0x20  Data  Gb  minisupp_cli.o [12]
mlme_deauthenticate_indication
                        0x10100a19     0x42  Code  Gb  ap_mlme.o [12]
mlme_deletekeys_request
                        0x10100acb     0x46  Code  Gb  ap_mlme.o [12]
mlme_disassociate_indication
                        0x10100a5b     0x42  Code  Gb  ap_mlme.o [12]
mlme_michaelmicfailure_indication
                        0x10100a9d     0x2e  Code  Gb  ap_mlme.o [12]
mons                    0x10109090     0x88  Data  Lc  xlocale_c.o [4]
mos                     0x10108f84     0x18  Data  Lc  xttotm.o [4]
mpi_montg_init          0x1009d5f3     0x2e  Code  Lc  bignum.o [1]
mpi_montmul             0x1009d621     0xaa  Code  Lc  bignum.o [1]
mpi_montred             0x1009d6cb     0x20  Code  Lc  bignum.o [1]
mpi_mul_hlp             0x1009c91f    0x7c4  Code  Lc  bignum.o [1]
mpi_sub_hlp             0x1009c791     0x46  Code  Lc  bignum.o [1]
mtk_ap_get_sta          0x100e9e7b     0x50  Code  Lc  driver_inband.o [12]
mtk_ap_start            0x100eb451      0x4  Code  Gb  driver_inband.o [12]
mtk_ap_stop             0x100eb455      0x4  Code  Gb  driver_inband.o [12]
mtk_ctrl_get_sta_qos_bit
                        0x100e9ed1     0xc2  Code  Gb  driver_inband.o [12]
mtk_event_handler_sample
                        0x1010dd81    0x29c  Code  Gb  wifi_cli.o [1]
mtk_handle_beacon       0x100eb459     0x14  Code  Gb  driver_inband.o [12]
mtk_ps_mode             0x100eb46d     0x12  Code  Gb  driver_inband.o [12]
mtk_set_ptk_kck_kek     0x100eb47f      0x8  Code  Gb  driver_inband.o [12]
mtk_smart_connect       0x1010aa55     0x38  Code  Gb  smt_conn.o [1]
mtk_smart_stop          0x1010aa95      0xa  Code  Gb  smt_conn.o [1]
mtk_supplicant_calculate_pmk
                        0x100e9605     0x3e  Code  Lc  driver_inband.o [12]
mtk_supplicant_check_wps_element_from_ap
                        0x100e9da5     0xd6  Code  Lc  driver_inband.o [12]
mtk_supplicant_disable_trigger_scan
                        0x100ea375     0x40  Code  Lc  driver_inband.o [12]
mtk_supplicant_enable_trigger_scan
                        0x100ea3b5     0x20  Code  Lc  driver_inband.o [12]
mtk_supplicant_get_bssid
                        0x100ea14d     0x1a  Code  Gb  driver_inband.o [12]
mtk_supplicant_get_interface_by_port
                        0x100e1f8f     0x70  Code  Gb  wpa_supplicant_entry.o [12]
mtk_supplicant_get_pmk  0x100e9565     0x88  Code  Lc  driver_inband.o [12]
mtk_supplicant_get_security
                        0x100e9411     0x86  Code  Lc  driver_inband.o [12]
mtk_supplicant_get_ssid
                        0x100e98d5     0x8a  Code  Lc  driver_inband.o [12]
mtk_supplicant_get_wep_key
                        0x100e9bf5     0xc0  Code  Lc  driver_inband.o [12]
mtk_supplicant_get_wpa_psk_key
                        0x100e972d     0x8e  Code  Lc  driver_inband.o [12]
mtk_supplicant_radio_onoff
                        0x100e9d55     0x48  Code  Lc  driver_inband.o [12]
mtk_supplicant_scan_in_repeater_mode
                        0x100ea191    0x1e4  Code  Gb  driver_inband.o [12]
mtk_supplicant_set_bssid
                        0x100e9979     0xd6  Code  Lc  driver_inband.o [12]
mtk_supplicant_set_pmk  0x100e94b5     0x98  Code  Lc  driver_inband.o [12]
mtk_supplicant_set_security
                        0x100e9365     0x8e  Code  Lc  driver_inband.o [12]
mtk_supplicant_set_ssid
                        0x100e97dd     0xe0  Code  Lc  driver_inband.o [12]
mtk_supplicant_set_ssid_bssid
                        0x100ea167     0x26  Code  Gb  driver_inband.o [12]
mtk_supplicant_set_wep_key
                        0x100e9a85     0xee  Code  Lc  driver_inband.o [12]
mtk_supplicant_set_wpa_psk_key
                        0x100e9643     0xc8  Code  Lc  driver_inband.o [12]
mtk_supplicant_show_interfaces
                        0x100e9fa5     0xe4  Code  Gb  driver_inband.o [12]
mtk_supplicant_start_scan
                        0x100e9d29     0x22  Code  Lc  driver_inband.o [12]
mtk_supplicant_stop_scan
                        0x100e9cf9     0x30  Code  Lc  driver_inband.o [12]
n9_fw_info              0x20004ff8      0x4  Data  Lc  connsys_util.o [1]
n9log_handler           0x200355e4      0x4  Data  Gb  wifi_private_api.o [15]
n9log_queue             0x20002098      0x4  Data  Lc  wifi_private_cli.o [1]
n9log_queue_deinit      0x10111a2d     0x22  Code  Gb  wifi_private_cli.o [1]
n9log_queue_init        0x1011197d     0xb0  Code  Gb  wifi_private_cli.o [1]
n9log_queue_init::__FUNCTION__
                        0x10112150     0x14  Data  Lc  wifi_private_cli.o [1]
n9log_task              0x2000209c      0x4  Data  Lc  wifi_private_cli.o [1]
n9log_task_entry        0x10111943     0x3a  Code  Gb  wifi_private_cli.o [1]
n9log_task_entry::__FUNCTION__
                        0x1011213c     0x14  Data  Lc  wifi_private_cli.o [1]
nc_value_correct        0x20001548      0x1  Data  Lc  ut_app.o [1]
ndigs                   0x1007f7d4     0x28  Data  Lc  xstoul.o [4]
net_prepare             0x100bb555      0x4  Code  Lc  net.o [1]
net_would_block         0x100bb601     0x26  Code  Lc  net.o [1]
netbuf_delete           0x10080b25     0x22  Code  Gb  netbuf.o [1]
netbuf_free             0x10080b47     0x2e  Code  Gb  netbuf.o [1]
netbuf_ref              0x10080b75     0x5c  Code  Gb  netbuf.o [1]
netconn_accept          0x10080e9d     0xc4  Code  Gb  api_lib.o [1]
netconn_alloc           0x10087169     0x92  Code  Gb  api_msg.o [1]
netconn_bind            0x10080dc5     0x38  Code  Gb  api_lib.o [1]
netconn_close_shutdown  0x100812a1     0x3c  Code  Lc  api_lib.o [1]
netconn_connect         0x10080dfd     0x38  Code  Gb  api_lib.o [1]
netconn_delete          0x10080d23     0x30  Code  Gb  api_lib.o [1]
netconn_disconnect      0x10080e35     0x34  Code  Gb  api_lib.o [1]
netconn_drain           0x10087335     0xb0  Code  Lc  api_msg.o [1]
netconn_free            0x10087225     0x68  Code  Gb  api_msg.o [1]
netconn_getaddr         0x10080d53     0x72  Code  Gb  api_lib.o [1]
netconn_gethostbyname   0x100812f5     0x7c  Code  Gb  api_lib.o [1]
netconn_listen_with_backlog
                        0x10080e69     0x34  Code  Gb  api_lib.o [1]
netconn_new_with_proto_and_callback
                        0x10080c7d     0xa6  Code  Gb  api_lib.o [1]
netconn_recv            0x100810cf     0xd0  Code  Gb  api_lib.o [1]
netconn_recv_data       0x10080f61    0x13e  Code  Lc  api_lib.o [1]
netconn_recv_tcp_pbuf   0x1008109f     0x30  Code  Gb  api_lib.o [1]
netconn_recved          0x1008119f     0x2e  Code  Gb  api_lib.o [1]
netconn_send            0x100811cd     0x34  Code  Gb  api_lib.o [1]
netconn_shutdown        0x100812dd     0x18  Code  Gb  api_lib.o [1]
netconn_write_partly    0x10081201     0xa0  Code  Gb  api_lib.o [1]
netif_add               0x10091319     0x8a  Code  Gb  netif.o [1]
netif_default           0x20032cd8      0x4  Data  Gb  netif.o [1]
netif_find              0x100913c3     0x3e  Code  Gb  netif.o [1]
netif_find_by_type      0x100bec33     0x3a  Code  Gb  ethernetif.o [1]
netif_find_by_type::__FUNCTION__
                        0x100bf09c     0x14  Data  Lc  ethernetif.o [1]
netif_init              0x100912d9     0x40  Code  Gb  netif.o [1]
netif_issue_reports     0x1009149d     0x1a  Code  Lc  netif.o [1]
netif_list              0x20032cd4      0x4  Data  Gb  netif.o [1]
netif_loop_output       0x10091503     0xda  Code  Gb  netif.o [1]
netif_loop_output_ipv4  0x100915dd      0x2  Code  Lc  netif.o [1]
netif_loopif_init       0x100912c5     0x14  Code  Lc  netif.o [1]
netif_num               0x20032cd0      0x1  Data  Lc  netif.o [1]
netif_poll              0x100915e1     0xce  Code  Gb  netif.o [1]
netif_set_addr          0x100913a3     0x20  Code  Gb  netif.o [1]
netif_set_default       0x10091467      0x6  Code  Gb  netif.o [1]
netif_set_gw            0x1009144b      0xe  Code  Gb  netif.o [1]
netif_set_ipaddr        0x10091401     0x4a  Code  Gb  netif.o [1]
netif_set_link_down     0x100914f1     0x12  Code  Gb  netif.o [1]
netif_set_link_up       0x100914bf     0x32  Code  Gb  netif.o [1]
netif_set_netmask       0x10091459      0xe  Code  Gb  netif.o [1]
netif_set_status_callback
                        0x100914b7      0x8  Code  Gb  netif.o [1]
netif_set_up            0x1009146d     0x30  Code  Gb  netif.o [1]
next_timeout            0x20019c98      0x4  Data  Lc  lwip_timers.o [1]
none_driver_deinit      0x1011243d      0x4  Code  Lc  driver_none.o [12]
none_driver_hapd_deinit
                        0x101123f9      0x4  Code  Lc  driver_none.o [12]
none_driver_hapd_init   0x101123c5     0x34  Code  Lc  driver_none.o [12]
none_driver_init        0x10112401     0x34  Code  Lc  driver_none.o [12]
none_driver_send_eapol  0x10112441      0x6  Code  Lc  driver_none.o [12]
none_driver_send_ether  0x101123fd      0x4  Code  Lc  driver_none.o [12]
notify_bss_changes      0x100e73f7     0x7a  Code  Lc  bss.o [12]
nvdm_cli_cmds           0x20001164     0x50  Data  Gb  nvdm_cli.o [1]
nvdm_get_mac_addr_from_efuse
                        0x100c1885     0xb8  Code  Gb  wifi_nvdm_config.o [1]
nvdm_get_mac_addr_from_efuse::__FUNCTION__
                        0x100c19a8     0x20  Data  Lc  wifi_nvdm_config.o [1]
nvdm_init               0x100c585d     0x80  Code  Gb  nvdm_main.o [13]
nvdm_init_status        0x200355cc      0x1  Data  Gb  nvdm_main.o [13]
nvdm_port_flash_erase   0x100c48b7     0x1c  Code  Gb  nvdm_port.o [1]
nvdm_port_flash_read    0x100c4873     0x22  Code  Gb  nvdm_port.o [1]
nvdm_port_flash_write   0x100c4895     0x22  Code  Gb  nvdm_port.o [1]
nvdm_port_get_data_item_config
                        0x100c4969     0x12  Code  Gb  nvdm_port.o [1]
nvdm_port_get_peb_address
                        0x100c4985      0xa  Code  Gb  nvdm_port.o [1]
nvdm_port_get_peb_config
                        0x100c497b      0xa  Code  Gb  nvdm_port.o [1]
nvdm_port_log_error     0x100c4845     0x2e  Code  Gb  nvdm_port.o [1]
nvdm_port_log_error::__FUNCTION__
                        0x100c49ac     0x14  Data  Lc  nvdm_port.o [1]
nvdm_port_log_info      0x100c483f      0x6  Code  Gb  nvdm_port.o [1]
nvdm_port_log_notice    0x100c4821     0x1e  Code  Gb  nvdm_port.o [1]
nvdm_port_log_notice::__FUNCTION__
                        0x100c4994     0x18  Data  Lc  nvdm_port.o [1]
nvdm_port_malloc        0x100c4965      0x4  Code  Gb  nvdm_port.o [1]
nvdm_port_mutex_creat   0x100c48d3     0x22  Code  Gb  nvdm_port.o [1]
nvdm_port_mutex_give    0x100c4927     0x30  Code  Gb  nvdm_port.o [1]
nvdm_port_mutex_take    0x100c48f5     0x32  Code  Gb  nvdm_port.o [1]
nvdm_port_poweroff      0x100c4991      0x2  Code  Gb  nvdm_port.o [1]
nvdm_port_poweroff_time_set
                        0x100c498f      0x2  Code  Gb  nvdm_port.o [1]
nvdm_read_data_item     0x100b14e3    0x14a  Code  Gb  nvdm_data.o [13]
nvdm_write_data_item    0x100b162d    0x32e  Code  Gb  nvdm_data.o [13]
nvic_function_table     0x200057e8    0x300  Data  Gb  hal_nvic.o [1]
obuf                    0x20035a80     0x50  Data  Lc  xfiles.o [4]
oid_ext_key_usage       0x100d01bc     0x70  Data  Lc  oid.o [1]
oid_ext_key_usage_from_asn1
                        0x100cfde5     0x32  Code  Lc  oid.o [1]
oid_md_alg              0x100d036c     0xb4  Data  Lc  oid.o [1]
oid_md_alg_from_asn1    0x100cff39     0x32  Code  Lc  oid.o [1]
oid_pk_alg              0x100cfee8     0x50  Data  Lc  oid.o [1]
oid_pk_alg_from_asn1    0x100cfe9b     0x32  Code  Lc  oid.o [1]
oid_sig_alg             0x100d022c    0x140  Data  Lc  oid.o [1]
oid_sig_alg_from_asn1   0x100cfe31     0x30  Code  Lc  oid.o [1]
oid_x509_ext            0x100d0144     0x78  Data  Lc  oid.o [1]
oid_x509_ext_from_asn1  0x100cfd99     0x32  Code  Lc  oid.o [1]
oid_x520_attr_from_asn1
                        0x100cfd4d     0x32  Code  Lc  oid.o [1]
oid_x520_attr_type      0x100cffb4    0x190  Data  Lc  oid.o [1]
oob_data                0x100a7d50     0x14  Data  Gb  ut_app.o [1]
opt_magic_tmp           0x100c4244      0x4  Data  Gb  dhcpd.o [1]
opt_msg_tmp             0x100c4810     0x10  Data  Gb  dhcpd.o [1]
opt_nak_tmp             0x100c480c      0x4  Data  Gb  dhcpd.o [1]
opt_offer_tmp           0x100c4238      0x4  Data  Gb  dhcpd.o [1]
opt_subnet_tmp          0x100c423c      0x8  Data  Gb  dhcpd.o [1]
origin_bw               0x2000123e      0x1  Data  Lc  smt_api.o [1]
origin_opmode           0x2000123d      0x1  Data  Lc  smt_api.o [1]
origin_rxfilter         0x2000128c      0x4  Data  Lc  smt_api.o [1]
os_cli                  0x200011b8     0x40  Data  Gb  os_cli.o [1]
os_daemonize            0x100b123b      0x6  Code  Gb  os_utils.o [1]
os_daemonize_terminate  0x100b1241      0x2  Code  Gb  os_utils.o [1]
os_free                 0x100df7f3      0x4  Code  Gb  os_util.o [1]
os_get_random           0x100df79d     0x46  Code  Gb  os_util.o [1]
os_get_time             0x100df74f     0x32  Code  Gb  os_util.o [1]
os_gmtime               0x100df821      0x6  Code  Gb  os_util.o [1]
os_malloc               0x100df7eb      0x4  Code  Gb  os_util.o [1]
os_memcmp               0x100b11e9     0x24  Code  Gb  os_utils.o [1]
os_memcpy               0x00102297     0x1a  Code  Gb  os_utils.o [1]
os_memmove              0x100b11c1     0x28  Code  Gb  os_utils.o [1]
os_memset               0x001022b1     0x16  Code  Gb  os_utils.o [1]
os_program_deinit       0x100b1243      0x2  Code  Gb  os_utils.o [1]
os_random               0x100df781     0x14  Code  Gb  os_util.o [1]
os_realloc              0x100df7ef      0x4  Code  Gb  os_util.o [1]
os_sleep                0x100df73d     0x12  Code  Gb  os_util.o [1]
os_snprintf             0x100b122d      0xe  Code  Gb  os_utils.o [1]
os_strchr               0x100b121d      0x4  Code  Gb  os_utils.o [1]
os_strcmp               0x100b1221      0x4  Code  Gb  os_utils.o [1]
os_strdup               0x100df7f7     0x2a  Code  Gb  os_util.o [1]
os_strlcpy              0x100b1245     0x34  Code  Gb  os_utils.o [1]
os_strlen               0x100b120d     0x10  Code  Gb  os_utils.o [1]
os_strncmp              0x100b1225      0x4  Code  Gb  os_utils.o [1]
os_strstr               0x100b1229      0x4  Code  Gb  os_utils.o [1]
os_zalloc               0x100df7e3      0x8  Code  Gb  os_util.o [1]
pTaskContext            0x200020cc      0x4  Data  Gb  exception_handler.o [10]
p_smtcn                 0x20000468      0x4  Data  Lc  ble_smtcn.o [1]
pairing_config_req      0x200333b8      0x8  Data  Gb  ut_app.o [1]
pairing_config_req_default
                        0x20001758      0x8  Data  Gb  ut_app.o [1]
parse_ch_triplet        0x100dfbb7     0x6e  Code  Lc  get_profile_string.o [1]
parse_channel_list_from_string
                        0x1011160d     0xbc  Code  Gb  wifi_private_cli.o [1]
pbkdf2_sha1             0x0010237b     0x6a  Code  Gb  sha1-pbkdf2.o [12]
pbkdf2_sha1_f           0x001022d1     0xaa  Code  Lc  sha1-pbkdf2.o [12]
pbuf_alloc              0x1007fc65    0x258  Code  Gb  pbuf.o [1]
pbuf_alloced_custom     0x1007febd     0x7a  Code  Gb  pbuf.o [1]
pbuf_cat                0x100801f1     0x78  Code  Gb  pbuf.o [1]
pbuf_chain              0x10080269     0x10  Code  Gb  pbuf.o [1]
pbuf_clen               0x100801c5     0x12  Code  Gb  pbuf.o [1]
pbuf_copy               0x10080279    0x136  Code  Gb  pbuf.o [1]
pbuf_copy_partial       0x100803af     0xb0  Code  Gb  pbuf.o [1]
pbuf_free               0x100800e7     0xc6  Code  Gb  pbuf.o [1]
pbuf_free_ooseq         0x1007fbf5     0x34  Code  Lc  pbuf.o [1]
pbuf_free_ooseq_callback
                        0x1007fc29      0x2  Code  Lc  pbuf.o [1]
pbuf_free_ooseq_pending
                        0x20035b3e      0x1  Data  Gb  pbuf.o [1]
pbuf_get_at             0x1008061b     0x20  Code  Gb  pbuf.o [1]
pbuf_header             0x100800df      0x4  Code  Gb  pbuf.o [1]
pbuf_header_force       0x100800e3      0x4  Code  Gb  pbuf.o [1]
pbuf_header_impl        0x10080017     0xc8  Code  Lc  pbuf.o [1]
pbuf_pool_is_empty      0x1007fc2b     0x3a  Code  Lc  pbuf.o [1]
pbuf_put_at             0x1008063b     0x20  Code  Gb  pbuf.o [1]
pbuf_realloc            0x1007ff37     0xe0  Code  Gb  pbuf.o [1]
pbuf_ref                0x100801d7     0x1a  Code  Gb  pbuf.o [1]
pbuf_skip               0x100804df     0x1a  Code  Lc  pbuf.o [1]
pbuf_split_64k          0x1008045f     0x80  Code  Gb  pbuf.o [1]
pbuf_take               0x100804f9     0xb4  Code  Gb  pbuf.o [1]
pbuf_take_at            0x100805ad     0x6e  Code  Gb  pbuf.o [1]
pcTaskGetTaskName       0x1007d8e5     0x26  Code  Gb  tasks.o [1]
pcb_new                 0x10087065     0xa4  Code  Lc  api_msg.o [1]
peb_activing            0x100c4e81     0x3e  Code  Gb  nvdm_main.o [13]
peb_add_drity           0x100c54bd     0x16  Code  Gb  nvdm_main.o [13]
peb_add_free            0x100c54d9     0x14  Code  Gb  nvdm_main.o [13]
peb_erase               0x100dffaf     0x4c  Code  Gb  nvdm_io.o [13]
peb_header_is_validate  0x100c4c8d     0x36  Code  Lc  nvdm_main.o [13]
peb_header_print_info   0x100c4c49     0x44  Code  Lc  nvdm_main.o [13]
peb_io_read             0x100dfee3     0x16  Code  Gb  nvdm_io.o [13]
peb_io_write            0x100dfef9     0xb6  Code  Gb  nvdm_io.o [13]
peb_print_info          0x100c4b75     0x50  Code  Lc  nvdm_main.o [13]
peb_read_data           0x100c4d79     0x42  Code  Gb  nvdm_main.o [13]
peb_read_header         0x100c4cc3     0x32  Code  Gb  nvdm_main.o [13]
peb_reclaim             0x100c4ebf     0x5e  Code  Lc  nvdm_main.o [13]
peb_scan                0x100c5501    0x35c  Code  Lc  nvdm_main.o [13]
peb_sub_free            0x100c54ed     0x14  Code  Gb  nvdm_main.o [13]
peb_update_status       0x100c4dbb     0x24  Code  Gb  nvdm_main.o [13]
peb_write_data          0x100c4cf5     0x84  Code  Gb  nvdm_main.o [13]
peb_write_hdr_erase_count
                        0x100c4ddf     0x24  Code  Lc  nvdm_main.o [13]
peb_write_hdr_magic_number
                        0x100c4e2d     0x2a  Code  Lc  nvdm_main.o [13]
peb_write_hdr_peb_reserved
                        0x100c4e03     0x2a  Code  Lc  nvdm_main.o [13]
peb_write_hdr_version   0x100c4e57     0x2a  Code  Lc  nvdm_main.o [13]
peerkey_deinit          0x100ebef5      0x2  Code  Lc  wpa.o [12]
peerkey_rx_eapol_smk    0x100ebef3      0x2  Code  Lc  wpa.o [12]
pem_aes_decrypt         0x100d05e7     0x4e  Code  Lc  pem.o [1]
pem_des3_decrypt        0x100d059b     0x4c  Code  Lc  pem.o [1]
pem_des_decrypt         0x100d054f     0x4c  Code  Lc  pem.o [1]
pem_get_iv              0x100d043b     0x5e  Code  Lc  pem.o [1]
pem_pbkdf1              0x100d0499     0xb6  Code  Lc  pem.o [1]
perror                  0x100f7605     0x40  Code  Gb  perror.o [4]
ping_cli_handler        0x101126e9     0x5a  Code  Gb  ping_cli.o [1]
ping_done               0x20001224      0x4  Data  Lc  ping.o [1]
ping_init               0x1010a531     0x60  Code  Gb  ping.o [1]
ping_init::__FUNCTION__
                        0x1010a7d8      0xc  Data  Lc  ping.o [1]
ping_prepare_echo       0x1010a155     0x42  Code  Lc  ping.o [1]
ping_recv               0x1010a25b    0x17c  Code  Lc  ping.o [1]
ping_recv::__FUNCTION__
                        0x1010a664      0xc  Data  Lc  ping.o [1]
ping_send               0x1010a197     0xc4  Code  Lc  ping.o [1]
ping_send::__FUNCTION__
                        0x1010a5a0      0xc  Data  Lc  ping.o [1]
ping_thread             0x1010a3d7    0x15a  Code  Lc  ping.o [1]
ping_thread::__FUNCTION__
                        0x1010a71c      0xc  Data  Lc  ping.o [1]
pinmux_config           0x100be165     0xc8  Code  Gb  pinmux.o [1]
pk_get_pk_alg           0x100bdcad     0x5c  Code  Lc  pkparse.o [1]
pk_get_rsapubkey        0x100bdc3d     0x70  Code  Lc  pkparse.o [1]
pk_hashlen_helper       0x100bd3ed     0x26  Code  Lc  pk.o [1]
pk_parse_key_pkcs1_der  0x100bddc3     0xf8  Code  Lc  pkparse.o [1]
pk_parse_key_pkcs8_unencrypted_der
                        0x100bdebb     0xba  Code  Lc  pkparse.o [1]
platform_assert         0x100819f1     0x38  Code  Gb  exception_handler.o [10]
plug_holes              0x100863a1     0xc2  Code  Lc  mem.o [1]
pmksa_cache_add         0x100ebe1b      0x4  Code  Lc  wpa.o [12]
pmksa_cache_add_okc     0x10100689     0xae  Code  Gb  pmksa_cache_auth.o [12]
pmksa_cache_auth_add    0x101005c9     0xc0  Code  Gb  pmksa_cache_auth.o [12]
pmksa_cache_auth_deinit
                        0x10100737     0x3e  Code  Gb  pmksa_cache_auth.o [12]
pmksa_cache_auth_get    0x10100779     0x58  Code  Gb  pmksa_cache_auth.o [12]
pmksa_cache_auth_init   0x10100829     0x1c  Code  Gb  pmksa_cache_auth.o [12]
pmksa_cache_clear_current
                        0x100e2c73      0x2  Code  Lc  wpa_supplicant.o [12]
pmksa_cache_deinit      0x100ebe15      0x2  Code  Lc  wpa.o [12]
pmksa_cache_expire      0x1010046b     0x30  Code  Lc  pmksa_cache_auth.o [12]
pmksa_cache_flush       0x100ebe1f      0x2  Code  Lc  wpa.o [12]
pmksa_cache_free_entry  0x101003ff     0x6c  Code  Lc  pmksa_cache_auth.o [12]
pmksa_cache_from_eapol_data
                        0x101004d7     0x3e  Code  Lc  pmksa_cache_auth.o [12]
pmksa_cache_get         0x100ebe17      0x4  Code  Lc  wpa.o [12]
pmksa_cache_get_okc     0x101007d1     0x58  Code  Gb  pmksa_cache_auth.o [12]
pmksa_cache_init        0x100ebe0f      0x6  Code  Lc  wpa.o [12]
pmksa_cache_link_entry  0x1010056b     0x5e  Code  Lc  pmksa_cache_auth.o [12]
pmksa_cache_set_current
                        0x100e2c75      0x6  Code  Lc  wpa_supplicant.o [12]
pmksa_cache_set_current
                        0x100f16ab      0x6  Code  Lc  events.o [12]
pmksa_cache_set_expiration
                        0x1010049b     0x3c  Code  Lc  pmksa_cache_auth.o [12]
pmksa_cache_to_eapol_data
                        0x10100515     0x56  Code  Gb  pmksa_cache_auth.o [12]
pmksa_candidate_add     0x100f16a9      0x2  Code  Lc  events.o [12]
pmksa_candidate_free    0x100e2c6f      0x2  Code  Lc  wpa_supplicant.o [12]
poll_tcp                0x10086d35     0x86  Code  Lc  api_msg.o [1]
port_match_iface_table  0x100e287c     0x10  Data  Lc  wpa_supplicant_entry.o [12]
port_sanity_check       0x1010c159     0x18  Code  Gb  wifi_cli.o [1]
pows                    0x10089f78     0x48  Data  Lc  xdtento.o [16]
prefix                  0x00102508     0x84  Data  Lc  wpa_debug.o [12]
prepend_raw_txd         0x100db483     0x42  Code  Lc  wifi_inband.o [15]
press_time_monitor      0x100a2f37     0x88  Code  Gb  mcs.o [1]
press_time_monitor::__FUNCTION__
                        0x100a2fc0     0x14  Data  Lc  mcs.o [1]
printBusFaultErrorMsg   0x10081b67     0x74  Code  Gb  exception_handler.o [10]
printMemoryManagementErrorMsg
                        0x10081b03     0x64  Code  Gb  exception_handler.o [10]
printUsageErrorMsg      0x10081aab     0x58  Code  Gb  exception_handler.o [10]
print_advertising_report
                        0x100a4329    0x192  Code  Gb  ut_app.o [1]
print_help              0x100a4775      0x8  Code  Gb  ut_app.o [1]
print_hex_dump          0x10083ad1     0x72  Code  Gb  syslog.o [10]
print_level_table       0x200020b8      0xc  Data  Lc  syslog.o [10]
print_level_to_str      0x100841dd     0x2c  Code  Gb  syslog.o [10]
print_module_log        0x10083d75     0x12  Code  Gb  syslog.o [10]
print_normal_log        0x10083a35     0x42  Code  Gb  syslog.o [10]
printf                  0x10081715     0x24  Code  Gb  printf.o [4]
printf_dhcpdpool        0x100c2b65     0x52  Code  Lc  dhcpd.o [1]
printf_dhcpdpool::__FUNCTION__
                        0x100c2be8     0x14  Data  Lc  dhcpd.o [1]
proc_infoget            0x101055e7      0xe  Code  Lc  elian.o [1]
process_global_event    0x100eaad1     0x76  Code  Gb  driver_inband.o [12]
process_log_message     0x10083b43     0x50  Code  Gb  syslog.o [10]
prune_associations      0x100f62bd     0x38  Code  Lc  utils.o [12]
prvAddCurrentTaskToDelayedList
                        0x1007de77     0x32  Code  Lc  tasks.o [1]
prvAllocateTCBAndStack  0x1007dea9     0x3e  Code  Lc  tasks.o [1]
prvCheckForValidListAndQueue
                        0x10082a59     0x60  Code  Lc  timers.o [1]
prvCheckTasksWaitingTermination
                        0x1007de2f     0x48  Code  Lc  tasks.o [1]
prvCopyDataFromQueue    0x10084b13     0x24  Code  Lc  queue.o [1]
prvCopyDataToQueue      0x10084a99     0x7a  Code  Lc  queue.o [1]
prvDeleteTCB            0x1007df99     0x14  Code  Lc  tasks.o [1]
prvGetNextExpireTime    0x100828ab     0x1a  Code  Lc  timers.o [1]
prvHeapInit             0x1007d169     0x4e  Code  Lc  heap_4.o [1]
prvIdleTask             0x1007dd61     0x24  Code  Lc  tasks.o [1]
prvInitialiseTCBVariables
                        0x1007dd85     0x58  Code  Lc  tasks.o [1]
prvInitialiseTaskLists  0x1007dddd     0x52  Code  Lc  tasks.o [1]
prvInsertBlockIntoFreeList
                        0x1007d1b7     0x4e  Code  Lc  heap_4.o [1]
prvInsertTimerInActiveList
                        0x100828eb     0x3e  Code  Lc  timers.o [1]
prvIsQueueEmpty         0x10084b9f     0x18  Code  Lc  queue.o [1]
prvIsQueueFull          0x10084bb7     0x1e  Code  Lc  queue.o [1]
prvListTaskWithinSingleList
                        0x1007dee7     0x9e  Code  Lc  tasks.o [1]
prvNetTask              0x100d9799     0x20  Code  Lc  net_task.o [15]
prvProcessExpiredTimer  0x100827e1     0x5c  Code  Lc  timers.o [1]
prvProcessReceivedCommands
                        0x10082929     0xc6  Code  Lc  timers.o [1]
prvProcessTimerOrBlockTask
                        0x10082851     0x5a  Code  Lc  timers.o [1]
prvResetNextTaskUnblockTime
                        0x1007dfad     0x20  Code  Lc  tasks.o [1]
prvSampleTimeNow        0x100828c5     0x26  Code  Lc  timers.o [1]
prvSampleTimeNow::xLastTime
                        0x200333a8      0x4  Data  Lc  timers.o [1]
prvSetupHardware        0x10108a8d     0x52  Code  Lc  sys_init.o [1]
prvSetupHardware::__FUNCTION__
                        0x10108bf0     0x14  Data  Lc  sys_init.o [1]
prvSwitchTimerLists     0x100829ef     0x6a  Code  Lc  timers.o [1]
prvTaskCheckFreeStackSpace
                        0x1007df85     0x14  Code  Lc  tasks.o [1]
prvTaskExitError        0x1008238d     0x2a  Code  Lc  port.o [1]
prvTimerTask            0x1008283d     0x14  Code  Lc  timers.o [1]
prvUnlockQueue          0x10084b37     0x68  Code  Lc  queue.o [1]
prvWriteNameToBuffer    0x1007e0f5     0x22  Code  Lc  tasks.o [1]
pse_get_queue_len       0x100d79b1     0x20  Code  Gb  connsys_util.o [1]
pse_get_total_page_num  0x100d79d1      0xc  Code  Gb  connsys_util.o [1]
pse_show_ffc            0x100d7add     0x36  Code  Gb  connsys_util.o [1]
pse_show_flow_control_setting
                        0x100d79e5     0x3c  Code  Gb  connsys_util.o [1]
psmtcn_proto_ops        0x20001284      0x4  Data  Gb  smt_api.o [1]
ptr_connsys_get_ownership
                        0x200057e4      0x4  Data  Gb  hal_lp.o [1]
ptr_lp_connsys_get_own_enable_int
                        0x200057dc      0x4  Data  Gb  hal_lp.o [1]
ptr_lp_connsys_give_n9_own
                        0x200057e0      0x4  Data  Gb  hal_lp.o [1]
putchar                 0x10112589      0xc  Code  Gb  putchar.o [4]
pvPortCalloc            0x1007d205     0x1c  Code  Gb  heap_4.o [1]
pvPortMalloc            0x1007d005     0xe4  Code  Gb  heap_4.o [1]
pvPortRealloc           0x1007d221     0x76  Code  Gb  heap_4.o [1]
pvTaskIncrementMutexHeldCount
                        0x1007e1cb     0x16  Code  Gb  tasks.o [1]
pxCurrentTCB            0x20001480      0x4  Data  Gb  tasks.o [1]
pxCurrentTimerList      0x20033374      0x4  Data  Lc  timers.o [1]
pxDelayedTaskList       0x20001484      0x4  Data  Lc  tasks.o [1]
pxEnd                   0x20005b54      0x4  Data  Lc  heap_4.o [1]
pxExceptionStack        0x200020c8      0x4  Data  Gb  exception_handler.o [10]
pxOverflowDelayedTaskList
                        0x20001488      0x4  Data  Lc  tasks.o [1]
pxOverflowTimerList     0x20033378      0x4  Data  Lc  timers.o [1]
pxPortInitialiseStack   0x10082369     0x24  Code  Gb  port.o [1]
pxReadyTasksLists       0x200331a4    0x190  Data  Lc  tasks.o [1]
qsort                   0x100f7b75      0xe  Code  Gb  qsort.o [4]
ram                     0x20019ca0      0x4  Data  Lc  mem.o [1]
ram_end                 0x20019ca4      0x4  Data  Lc  mem.o [1]
ram_heap                0x20019cac  0x1901c  Data  Gb  mem.o [1]
rand                    0x10084e4d     0xe0  Code  Gb  rand.o [4]
rate_match              0x100f1fe1    0x11a  Code  Lc  events.o [12]
raw_bind                0x1008d987     0x16  Code  Gb  raw.o [1]
raw_connect             0x1008d99d     0x16  Code  Gb  raw.o [1]
raw_input               0x1008d8f1     0x96  Code  Gb  raw.o [1]
raw_new                 0x1008daa3     0x2a  Code  Gb  raw.o [1]
raw_pcbs                0x20032d70      0x4  Data  Lc  raw.o [1]
raw_recv                0x1008d9b3      0x6  Code  Gb  raw.o [1]
raw_remove              0x1008da7d     0x26  Code  Gb  raw.o [1]
raw_send                0x1008da79      0x4  Code  Gb  raw.o [1]
raw_sendto              0x1008d9b9     0xc0  Code  Gb  raw.o [1]
raw_sleep_lock          0x2000259d      0x1  Data  Gb  wifi_api.o [15]
rc4_skip                0x100f9689     0x9e  Code  Gb  rc4.o [12]
rcons                   0x101030f0      0xc  Data  Gb  aes-internal.o [12]
read_rssi               0x2000154c      0x4  Data  Gb  ut_app.o [1]
reassdatagrams          0x20019c94      0x4  Data  Lc  ip_frag.o [1]
reboot_check            0x10081bdd     0x18  Code  Lc  exception_handler.o [10]
reboot_flag             0x20034dd4      0x4  Data  Lc  exception_handler.o [10]
record_2G_5G_channel_list
                        0x100bfb03    0x284  Code  Gb  wifi_api.o [15]
recv_data               0x20033360      0x4  Data  Lc  tcp_in.o [1]
recv_flags              0x20033335      0x1  Data  Lc  tcp_in.o [1]
recv_raw                0x10086a6d     0x8a  Code  Lc  api_msg.o [1]
recv_tcp                0x10086c11     0xbe  Code  Lc  api_msg.o [1]
recv_udp                0x10086af7     0xb4  Code  Lc  api_msg.o [1]
region_channel_2g       0x100bfd98     0x58  Data  Gb  wifi_api.o [15]
region_channel_5g       0x100bfdf0    0x120  Data  Gb  wifi_api.o [15]
register_action_btn_proc
                        0x100a3049     0x7a  Code  Gb  mcs.o [1]
register_action_btn_proc::__FUNCTION__
                        0x100a30f4     0x1c  Data  Lc  mcs.o [1]
register_eapol_rx_socket
                        0x100be2c5     0x2e  Code  Gb  ethernetif.o [1]
register_eapol_rx_socket::__FUNCTION__
                        0x100beca8     0x1c  Data  Lc  ethernetif.o [1]
register_eapol_rx_socket_dual_intf
                        0x100be2f3     0x32  Code  Gb  ethernetif.o [1]
register_eapol_rx_socket_dual_intf::__FUNCTION__
                        0x100becc4     0x24  Data  Lc  ethernetif.o [1]
register_preocess_global_event
                        0x100de5e1     0x20  Code  Gb  wifi_scan.o [15]
release_sf_lock         0x100e1de3      0x2  Code  Gb  flash_sfc.o [1]
relocate_pebs           0x100c4f1d    0x146  Code  Lc  nvdm_main.o [13]
remove                  0x10101f65      0x4  Code  Gb  remove.o [1]
reset_to_default        0x100c1abd     0xb8  Code  Lc  wifi_nvdm_config.o [1]
reset_to_default::__FUNCTION__
                        0x100c1bac     0x14  Data  Lc  wifi_nvdm_config.o [1]
restore_interrupt_mask  0x00102291      0x6  Code  Gb  nvic.o [1]
retrieve_sf_lock        0x100e1dd7      0xc  Code  Gb  flash_sfc.o [1]
rijndaelDecrypt         0x10100da9    0x3a6  Code  Lc  aes-internal-dec.o [12]
rijndaelEncrypt         0x10103161    0x3fc  Code  Lc  aes-internal-enc.o [12]
rijndaelKeySetupDec     0x10100cb5     0xd0  Code  Lc  aes-internal-dec.o [12]
rijndaelKeySetupEnc     0x10102c29     0xc8  Code  Gb  aes-internal.o [12]
rot3                    0x100f76a5     0x68  Code  Lc  qsort.o [4]
rotate                  0x100f7713     0x4e  Code  Lc  qsort.o [4]
rotr                    0x10100cb1      0x4  Code  Lc  aes-internal-dec.o [12]
rotr                    0x1010315d      0x4  Code  Lc  aes-internal-enc.o [12]
rsa_alloc_wrap          0x1010a90d     0x1c  Code  Lc  pk_wrap.o [1]
rsa_can_do              0x1010a839     0x10  Code  Lc  pk_wrap.o [1]
rsa_check_pair_wrap     0x1010a909      0x4  Code  Lc  pk_wrap.o [1]
rsa_debug               0x1010a93b     0x22  Code  Lc  pk_wrap.o [1]
rsa_decrypt_wrap        0x1010a8ad     0x26  Code  Lc  pk_wrap.o [1]
rsa_encrypt_wrap        0x1010a8d3     0x24  Code  Lc  pk_wrap.o [1]
rsa_free_wrap           0x1010a929     0x12  Code  Lc  pk_wrap.o [1]
rsa_get_bitlen          0x1010a849      0x6  Code  Lc  pk_wrap.o [1]
rsa_prepare_blinding    0x100d0d03     0xc6  Code  Lc  rsa.o [1]
rsa_sign_wrap           0x1010a88b     0x22  Code  Lc  pk_wrap.o [1]
rsa_verify_wrap         0x1010a84f     0x3c  Code  Lc  pk_wrap.o [1]
rsn_key_mgmt_to_bitfield
                        0x100f91cb     0x2c  Code  Lc  wpa_common.o [12]
rsn_pmkid               0x100f9529     0x3a  Code  Gb  wpa_common.o [12]
rsn_preauth_candidate_process
                        0x100ebe0b      0x2  Code  Lc  wpa.o [12]
rsn_preauth_deinit      0x100e2c71      0x2  Code  Lc  wpa_supplicant.o [12]
rsn_preauth_deinit      0x100ebe0d      0x2  Code  Lc  wpa.o [12]
rsn_preauth_finished    0x100f632f      0x2  Code  Lc  ieee802_1x.o [12]
rsn_preauth_free_station
                        0x100f8043      0x2  Code  Lc  sta_info.o [12]
rsn_preauth_iface_deinit
                        0x100fa789      0x2  Code  Lc  wpa_auth_glue.o [12]
rsn_preauth_iface_init  0x100fa785      0x4  Code  Lc  wpa_auth_glue.o [12]
rsn_preauth_scan_result
                        0x100f16a7      0x2  Code  Lc  events.o [12]
rsn_preauth_scan_results
                        0x100f16a1      0x6  Code  Lc  events.o [12]
rsn_preauth_send        0x100f6331      0x2  Code  Lc  ieee802_1x.o [12]
rsn_selector_to_bitfield
                        0x100f9177     0x54  Code  Lc  wpa_common.o [12]
rssi_threshold          0x20035b33      0x1  Data  Gb  connsys_util.o [1]
rssi_threshold_enable   0x20035b32      0x1  Data  Gb  connsys_util.o [1]
rstrtok                 0x100e18d1     0x4c  Code  Gb  misc.o [1]
rx_buf                  0x20003c9c    0x400  Data  Lc  bt_init.o [1]
rx_done                 0x10105951     0x42  Code  Lc  smt_core.o [14]
rx_timeout              0x1010591d     0x16  Code  Lc  smt_core.o [14]
s_callback              0x20005ae8      0x4  Data  Lc  hal_sys.o [1]
s_handler_table         0x10104460     0x38  Data  Lc  cli_line.o [11]
s_history_input         0x20000a6c     0x80  Data  Lc  cli_def.o [1]
s_history_lines         0x200007ec    0x280  Data  Lc  cli_def.o [1]
s_history_parse_token   0x20000aec     0x80  Data  Lc  cli_def.o [1]
s_history_ptrs          0x200007d8     0x14  Data  Lc  cli_def.o [1]
save_and_set_interrupt_mask
                        0x00102289      0x8  Code  Gb  nvic.o [1]
save_shared_key         0x100c2395     0x90  Code  Lc  wifi_nvdm_config.o [1]
save_shared_key::__FUNCTION__
                        0x100c2464     0x10  Data  Lc  wifi_nvdm_config.o [1]
save_wep_key_length     0x100c2311     0x6a  Code  Lc  wifi_nvdm_config.o [1]
save_wep_key_length::__FUNCTION__
                        0x100c2380     0x14  Data  Lc  wifi_nvdm_config.o [1]
saved_smtcn_info        0x20032d78     0x90  Data  Gb  smt_api.o [1]
sc_only                 0x20001540      0x1  Data  Gb  ut_app.o [1]
sc_only_default         0x200018a4      0x1  Data  Gb  ut_app.o [1]
sc_rst                  0x10105de9      0x4  Code  Gb  smt_core.o [14]
scan_data               0x20001864     0x20  Data  Gb  ut_app.o [1]
scan_data_default       0x20001884     0x20  Data  Gb  ut_app.o [1]
scan_disable            0x100a7e00      0x4  Data  Gb  ut_app.o [1]
scan_done_mutex         0x20001280      0x4  Data  Gb  smt_api.o [1]
scan_enable             0x100a7a94      0x4  Data  Gb  ut_app.o [1]
scan_loop_count         0x2000123f      0x1  Data  Lc  smt_api.o [1]
scan_para               0x200333d0      0x8  Data  Gb  ut_app.o [1]
scan_para_default       0x200017ec      0x8  Data  Gb  ut_app.o [1]
scan_timer              0x20001298      0x4  Data  Lc  smt_api.o [1]
search_data_item_by_name
                        0x100b1407     0xdc  Code  Lc  nvdm_data.o [13]
security_use_flag       0x20035b43      0x1  Data  Lc  wifi_api.o [15]
select_cb_ctr           0x2003308c      0x4  Data  Lc  sockets.o [1]
select_cb_list          0x20033088      0x4  Data  Lc  sockets.o [1]
select_driver           0x100e49dd     0x7a  Code  Lc  wpa_supplicant.o [12]
sent_tcp                0x10086dbb     0x7a  Code  Lc  api_msg.o [1]
seqno                   0x20033358      0x4  Data  Lc  tcp_in.o [1]
set_gpio33_led          0x100a2be5    0x15c  Code  Gb  mcs.o [1]
set_gpio33_led::__FUNCTION__
                        0x100a2e0c     0x10  Data  Lc  mcs.o [1]
setup_interface         0x100f5941     0xde  Code  Lc  hostapd.o [12]
setup_tcp               0x10086f95     0x3a  Code  Lc  api_msg.o [1]
sf_Mutex                0x20000cc4      0x4  Data  Lc  flash_sfc.o [1]
sf_drvier_status        0x20000cbc      0x1  Data  Gb  flash_sfc.o [1]
sfc_Command_List        0x00100467     0x50  Code  Gb  sfc.o [1]
sfc_GPT_return_current_count
                        0x00100411      0x6  Code  Gb  sfc.o [1]
sfc_GetDirectMode       0x00100439     0x2e  Code  Gb  sfc.o [1]
sfc_MacEnable           0x001004f1     0x1a  Code  Lc  sfc.o [1]
sfc_MacLeave            0x001004d1     0x14  Code  Lc  sfc.o [1]
sfc_MacTrigger          0x001004b7     0x1a  Code  Lc  sfc.o [1]
sfc_MacWaitReady        0x001004e5      0xc  Code  Lc  sfc.o [1]
sfc_delay_ms            0x00100435      0x4  Code  Gb  sfc.o [1]
sfc_delay_time          0x00100419     0x1c  Code  Gb  sfc.o [1]
sfc_get_systime         0x00100417      0x2  Code  Gb  sfc.o [1]
sfc_read                0x001005b9      0xe  Code  Gb  sfc.o [1]
sfc_transfer            0x0010050b     0xae  Code  Gb  sfc.o [1]
sfc_write               0x001005c7     0x54  Code  Gb  sfc.o [1]
sha1_clone_wrap         0x1011262f      0x4  Code  Lc  md_wrap.o [1]
sha1_ctx_alloc          0x10112619     0x16  Code  Lc  md_wrap.o [1]
sha1_ctx_free           0x10112633     0x12  Code  Lc  md_wrap.o [1]
sha1_finish_wrap        0x10112615      0x4  Code  Lc  md_wrap.o [1]
sha1_padding            0x100cc028     0x40  Data  Lc  sha1.o [1]
sha1_prf                0x10100c11     0x9e  Code  Gb  sha1.o [12]
sha1_process_wrap       0x10112645      0x4  Code  Lc  md_wrap.o [1]
sha1_starts_wrap        0x1011260d      0x4  Code  Lc  md_wrap.o [1]
sha1_update_wrap        0x10112611      0x4  Code  Lc  md_wrap.o [1]
sha1_vector             0x00100f11     0x40  Code  Gb  sha1-internal.o [12]
sha224_clone_wrap       0x10112685      0x4  Code  Lc  md_wrap.o [1]
sha224_ctx_alloc        0x1011265d     0x16  Code  Lc  md_wrap.o [1]
sha224_ctx_free         0x10112673     0x12  Code  Lc  md_wrap.o [1]
sha224_finish_wrap      0x10112653      0x4  Code  Lc  md_wrap.o [1]
sha224_process_wrap     0x10112689      0x4  Code  Lc  md_wrap.o [1]
sha224_starts_wrap      0x10112649      0x6  Code  Lc  md_wrap.o [1]
sha224_update_wrap      0x1011264f      0x4  Code  Lc  md_wrap.o [1]
sha224_wrap             0x10112657      0x6  Code  Lc  md_wrap.o [1]
sha256_padding          0x100cd858     0x40  Data  Lc  sha256.o [1]
sha256_starts_wrap      0x1011268d      0x6  Code  Lc  md_wrap.o [1]
sha256_wrap             0x10112693      0x6  Code  Lc  md_wrap.o [1]
sha384_clone_wrap       0x101126d5      0x4  Code  Lc  md_wrap.o [1]
sha384_ctx_alloc        0x101126ad     0x16  Code  Lc  md_wrap.o [1]
sha384_ctx_free         0x101126c3     0x12  Code  Lc  md_wrap.o [1]
sha384_finish_wrap      0x101126a3      0x4  Code  Lc  md_wrap.o [1]
sha384_process_wrap     0x101126d9      0x4  Code  Lc  md_wrap.o [1]
sha384_starts_wrap      0x10112699      0x6  Code  Lc  md_wrap.o [1]
sha384_update_wrap      0x1011269f      0x4  Code  Lc  md_wrap.o [1]
sha384_wrap             0x101126a7      0x6  Code  Lc  md_wrap.o [1]
sha512_padding          0x10093a80     0x80  Data  Lc  sha512.o [1]
sha512_starts_wrap      0x101126dd      0x6  Code  Lc  md_wrap.o [1]
sha512_wrap             0x101126e3      0x6  Code  Lc  md_wrap.o [1]
show_group_value        0x100c1bc1     0x66  Code  Lc  wifi_nvdm_config.o [1]
sleep_driver_handle_array
                        0x20035838     0x80  Data  Gb  hal_sleep_driver.o [8]
sleep_driver_handle_ref_count
                        0x200358b8     0x80  Data  Gb  hal_sleep_driver.o [8]
sleepdrv                0x2003582c      0xc  Data  Gb  hal_sleep_driver.o [8]
sleepdrv_get_handle     0x100923b9     0x48  Code  Gb  hal_sleep_driver.o [8]
sleepdrv_get_lock_index
                        0x100924b7      0x6  Code  Gb  hal_sleep_driver.o [8]
sleepdrv_get_mutex      0x10092375     0x22  Code  Gb  hal_sleep_driver.o [8]
sleepdrv_hold_sleep_lock
                        0x1009247d     0x3a  Code  Gb  hal_sleep_driver.o [8]
sleepdrv_is_handle_valid
                        0x1009241f     0x1e  Code  Gb  hal_sleep_driver.o [8]
sleepdrv_release_handle
                        0x10092401     0x1e  Code  Gb  hal_sleep_driver.o [8]
sleepdrv_release_mutex  0x10092397     0x22  Code  Gb  hal_sleep_driver.o [8]
sleepdrv_release_sleep_lock
                        0x1009243d     0x40  Code  Gb  hal_sleep_driver.o [8]
sm_AUTH_KEY_TX_KEY_TRANSMIT_Enter
                        0x100fea53     0x3a  Code  Lc  eapol_auth_sm.o [12]
sm_AUTH_KEY_TX_NO_KEY_TRANSMIT_Enter
                        0x100fea39     0x1a  Code  Lc  eapol_auth_sm.o [12]
sm_AUTH_KEY_TX_Step     0x100fea8d     0x6a  Code  Lc  eapol_auth_sm.o [12]
sm_AUTH_PAE_ABORTING_Enter
                        0x100fe4ed     0x4e  Code  Lc  eapol_auth_sm.o [12]
sm_AUTH_PAE_AUTHENTICATED_Enter
                        0x100fe421     0x98  Code  Lc  eapol_auth_sm.o [12]
sm_AUTH_PAE_AUTHENTICATING_Enter
                        0x100fe4bd     0x30  Code  Lc  eapol_auth_sm.o [12]
sm_AUTH_PAE_CONNECTING_Enter
                        0x100fe2ed     0x3c  Code  Lc  eapol_auth_sm.o [12]
sm_AUTH_PAE_DISCONNECTED_Enter
                        0x100fe21d     0x7c  Code  Lc  eapol_auth_sm.o [12]
sm_AUTH_PAE_FORCE_AUTH_Enter
                        0x100fe53b     0x46  Code  Lc  eapol_auth_sm.o [12]
sm_AUTH_PAE_FORCE_UNAUTH_Enter
                        0x100fe581     0x46  Code  Lc  eapol_auth_sm.o [12]
sm_AUTH_PAE_HELD_Enter  0x100fe329     0x9e  Code  Lc  eapol_auth_sm.o [12]
sm_AUTH_PAE_INITIALIZE_Enter
                        0x100fe201     0x1c  Code  Lc  eapol_auth_sm.o [12]
sm_AUTH_PAE_RESTART_Enter
                        0x100fe299     0x54  Code  Lc  eapol_auth_sm.o [12]
sm_AUTH_PAE_Step        0x100fe5c9    0x156  Code  Lc  eapol_auth_sm.o [12]
sm_BE_AUTH_FAIL_Enter   0x100fe7f3     0x28  Code  Lc  eapol_auth_sm.o [12]
sm_BE_AUTH_IDLE_Enter   0x100fe839     0x1e  Code  Lc  eapol_auth_sm.o [12]
sm_BE_AUTH_IGNORE_Enter
                        0x100fe857     0x20  Code  Lc  eapol_auth_sm.o [12]
sm_BE_AUTH_INITIALIZE_Enter
                        0x100fe71f     0x3a  Code  Lc  eapol_auth_sm.o [12]
sm_BE_AUTH_REQUEST_Enter
                        0x100fe759     0x36  Code  Lc  eapol_auth_sm.o [12]
sm_BE_AUTH_RESPONSE_Enter
                        0x100fe78f     0x36  Code  Lc  eapol_auth_sm.o [12]
sm_BE_AUTH_SUCCESS_Enter
                        0x100fe7c5     0x2e  Code  Lc  eapol_auth_sm.o [12]
sm_BE_AUTH_Step         0x100fe879    0x136  Code  Lc  eapol_auth_sm.o [12]
sm_BE_AUTH_TIMEOUT_Enter
                        0x100fe81b     0x1e  Code  Lc  eapol_auth_sm.o [12]
sm_CTRL_DIR_FORCE_BOTH_Enter
                        0x100feb69     0x1c  Code  Lc  eapol_auth_sm.o [12]
sm_CTRL_DIR_IN_OR_BOTH_Enter
                        0x100feb85     0x1e  Code  Lc  eapol_auth_sm.o [12]
sm_CTRL_DIR_Step        0x100feba3     0x66  Code  Lc  eapol_auth_sm.o [12]
sm_EAP_AAA_IDLE_Enter   0x100ff9fb     0x26  Code  Lc  eap_server.o [12]
sm_EAP_AAA_REQUEST_Enter
                        0x100ff9a9     0x22  Code  Lc  eap_server.o [12]
sm_EAP_AAA_RESPONSE_Enter
                        0x100ff9cb     0x30  Code  Lc  eap_server.o [12]
sm_EAP_DISABLED_Enter   0x100ff281     0x1a  Code  Lc  eap_server.o [12]
sm_EAP_DISCARD2_Enter   0x100ff93b     0x20  Code  Lc  eap_server.o [12]
sm_EAP_DISCARD_Enter    0x100ff4eb     0x20  Code  Lc  eap_server.o [12]
sm_EAP_FAILURE2_Enter   0x100ffa3d     0x2a  Code  Lc  eap_server.o [12]
sm_EAP_FAILURE_Enter    0x100ff7ab     0x70  Code  Lc  eap_server.o [12]
sm_EAP_IDLE2_Enter      0x100ff8b9     0x2e  Code  Lc  eap_server.o [12]
sm_EAP_IDLE_Enter       0x100ff455     0x2e  Code  Lc  eap_server.o [12]
sm_EAP_INITIALIZE_Enter
                        0x100ff29b     0xd4  Code  Lc  eap_server.o [12]
sm_EAP_INITIALIZE_PASSTHROUGH_Enter
                        0x100ff895     0x24  Code  Lc  eap_server.o [12]
sm_EAP_INTEGRITY_CHECK_Enter
                        0x100ff559     0x2a  Code  Lc  eap_server.o [12]
sm_EAP_METHOD_REQUEST_Enter
                        0x100ff583     0x5c  Code  Lc  eap_server.o [12]
sm_EAP_METHOD_RESPONSE_Enter
                        0x100ff5df     0x72  Code  Lc  eap_server.o [12]
sm_EAP_NAK_Enter        0x100ff6e7     0x82  Code  Lc  eap_server.o [12]
sm_EAP_PICK_UP_METHOD_Enter
                        0x100ff3a9     0x80  Code  Lc  eap_server.o [12]
sm_EAP_PROPOSE_METHOD_Enter
                        0x100ff651     0x96  Code  Lc  eap_server.o [12]
sm_EAP_RECEIVED2_Enter  0x100ff923     0x18  Code  Lc  eap_server.o [12]
sm_EAP_RECEIVED_Enter   0x100ff4bf     0x2c  Code  Lc  eap_server.o [12]
sm_EAP_RETRANSMIT2_Enter
                        0x100ff8e7     0x3c  Code  Lc  eap_server.o [12]
sm_EAP_RETRANSMIT_Enter
                        0x100ff483     0x3c  Code  Lc  eap_server.o [12]
sm_EAP_SELECT_ACTION_Enter
                        0x100ff769     0x26  Code  Lc  eap_server.o [12]
sm_EAP_SEND_REQUEST2_Enter
                        0x100ff95b     0x4e  Code  Lc  eap_server.o [12]
sm_EAP_SEND_REQUEST_Enter
                        0x100ff50b     0x4e  Code  Lc  eap_server.o [12]
sm_EAP_SUCCESS2_Enter   0x100ffa67     0x58  Code  Lc  eap_server.o [12]
sm_EAP_SUCCESS_Enter    0x100ff81b     0x7a  Code  Lc  eap_server.o [12]
sm_EAP_Step             0x100ffac1    0x2e4  Code  Lc  eap_server.o [12]
sm_EAP_TIMEOUT_FAILURE2_Enter
                        0x100ffa21     0x1c  Code  Lc  eap_server.o [12]
sm_EAP_TIMEOUT_FAILURE_Enter
                        0x100ff78f     0x1c  Code  Lc  eap_server.o [12]
sm_KEY_RX_KEY_RECEIVE_Enter
                        0x100feb11     0x1e  Code  Lc  eapol_auth_sm.o [12]
sm_KEY_RX_NO_KEY_RECEIVE_Enter
                        0x100feaf7     0x1a  Code  Lc  eapol_auth_sm.o [12]
sm_KEY_RX_Step          0x100feb2f     0x3a  Code  Lc  eapol_auth_sm.o [12]
sm_REAUTH_TIMER_INITIALIZE_Enter
                        0x100fe9af     0x20  Code  Lc  eapol_auth_sm.o [12]
sm_REAUTH_TIMER_REAUTHENTICATE_Enter
                        0x100fe9cf     0x2a  Code  Lc  eapol_auth_sm.o [12]
sm_REAUTH_TIMER_Step    0x100fe9f9     0x40  Code  Lc  eapol_auth_sm.o [12]
sm_WPA_PTK_AUTHENTICATION2_Enter
                        0x100fcc3b     0x58  Code  Lc  wpa_auth.o [12]
sm_WPA_PTK_AUTHENTICATION_Enter
                        0x100fcbb3     0x52  Code  Lc  wpa_auth.o [12]
sm_WPA_PTK_DISCONNECTED_Enter
                        0x100fcb91     0x22  Code  Lc  wpa_auth.o [12]
sm_WPA_PTK_DISCONNECT_Enter
                        0x100fcb69     0x28  Code  Lc  wpa_auth.o [12]
sm_WPA_PTK_GROUP_IDLE_Enter
                        0x100fd5c5     0x36  Code  Lc  wpa_auth.o [12]
sm_WPA_PTK_GROUP_KEYERROR_Enter
                        0x100fd7c5     0x38  Code  Lc  wpa_auth.o [12]
sm_WPA_PTK_GROUP_REKEYESTABLISHED_Enter
                        0x100fd759     0x68  Code  Lc  wpa_auth.o [12]
sm_WPA_PTK_GROUP_REKEYNEGOTIATING_Enter
                        0x100fd5fb    0x15a  Code  Lc  wpa_auth.o [12]
sm_WPA_PTK_GROUP_Step   0x100fd7fd     0x9a  Code  Lc  wpa_auth.o [12]
sm_WPA_PTK_INITIALIZE_Enter
                        0x100fcac9     0xa0  Code  Lc  wpa_auth.o [12]
sm_WPA_PTK_INITPMK_Enter
                        0x100fcca9     0x6e  Code  Lc  wpa_auth.o [12]
sm_WPA_PTK_INITPSK_Enter
                        0x100fcd17     0x44  Code  Lc  wpa_auth.o [12]
sm_WPA_PTK_PTKCALCNEGOTIATING2_Enter
                        0x100fcfc1     0x20  Code  Lc  wpa_auth.o [12]
sm_WPA_PTK_PTKCALCNEGOTIATING_Enter
                        0x100fcebd     0xd8  Code  Lc  wpa_auth.o [12]
sm_WPA_PTK_PTKINITDONE_Enter
                        0x100fd1e5    0x122  Code  Lc  wpa_auth.o [12]
sm_WPA_PTK_PTKINITNEGOTIATING_Enter
                        0x100fcfe9    0x18e  Code  Lc  wpa_auth.o [12]
sm_WPA_PTK_PTKSTART_Enter
                        0x100fcd5b     0xd6  Code  Lc  wpa_auth.o [12]
sm_WPA_PTK_Step         0x100fd351    0x25a  Code  Lc  wpa_auth.o [12]
sm_passkey              0x20001554      0x4  Data  Lc  ut_app.o [1]
smart_config_mutex      0x20001278      0x4  Data  Gb  smt_api.o [1]
sme_authenticate        0x100e2c81      0x2  Code  Lc  wpa_supplicant.o [12]
sme_deinit              0x100e2c83      0x2  Code  Lc  wpa_supplicant.o [12]
sme_disassoc_while_authenticating
                        0x100f16c9      0x2  Code  Lc  events.o [12]
sme_event_assoc_reject  0x100f16c1      0x2  Code  Lc  events.o [12]
sme_event_assoc_timed_out
                        0x100f16c5      0x2  Code  Lc  events.o [12]
sme_event_auth          0x100f16bf      0x2  Code  Lc  events.o [12]
sme_event_auth_timed_out
                        0x100f16c3      0x2  Code  Lc  events.o [12]
sme_event_disassoc      0x100f16c7      0x2  Code  Lc  events.o [12]
sme_state_changed       0x100efacf      0x2  Code  Lc  notify.o [12]
smntcn_start_thread     0x1010aa21     0x34  Code  Lc  smt_conn.o [1]
smt_conn_st             0x20001238      0x4  Data  Lc  smt_api.o [1]
smtcn_continue_switch   0x101060d9     0x22  Code  Gb  smt_api.o [1]
smtcn_done              0x101060fb     0x4c  Code  Gb  smt_api.o [1]
smtcn_done::__FUNCTION__
                        0x10106634      0xc  Data  Lc  smt_api.o [1]
smtcn_enable_debug      0x10106269      0x6  Code  Gb  smt_api.o [1]
smtcn_evt_cb            0x20001288      0x4  Data  Gb  smt_api.o [1]
smtcn_evt_handler       0x1010a96d     0xb4  Code  Gb  smt_conn.o [1]
smtcn_handle            0x2000129c      0x4  Data  Lc  smt_api.o [1]
smtcn_is_debug_on       0x10106263      0x6  Code  Gb  smt_api.o [1]
smtcn_raw_pkt_handler   0x10105f01     0x74  Code  Gb  smt_api.o [1]
smtcn_rcv_pkt_thread    0x1010615b    0x108  Code  Lc  smt_api.o [1]
smtcn_rcv_pkt_thread::__FUNCTION__
                        0x10106664     0x18  Data  Lc  smt_api.o [1]
smtcn_rx_buf            0x200012a0    0x140  Data  Gb  smt_api.o [1]
smtcn_rx_buf_idx        0x2000123c      0x1  Data  Gb  smt_api.o [1]
smtcn_rx_handler        0x10106049     0x46  Code  Gb  smt_api.o [1]
smtcn_rx_queue          0x2000127c      0x4  Data  Gb  smt_api.o [1]
smtcn_stop_switch       0x10106091     0x48  Code  Gb  smt_api.o [1]
smtcn_stop_switch::__FUNCTION__
                        0x101065f8     0x14  Data  Lc  smt_api.o [1]
sniffer_sleep_lock      0x2000259c      0x1  Data  Lc  wifi_api.o [15]
snprintf                0x1008aa95     0x44  Code  Gb  snprintf.o [4]
sockets                 0x20032e08    0x280  Data  Lc  sockets.o [1]
sort_scan_array_by_rssi
                        0x100de81b     0xb0  Code  Gb  wifi_scan.o [15]
sort_syslog_buffer      0x100837fd     0x50  Code  Lc  syslog.o [10]
space_allocation        0x100c540f     0x3c  Code  Gb  nvdm_main.o [13]
space_is_enough         0x100c5499     0x24  Code  Gb  nvdm_main.o [13]
spi_chip_info           0x200013e8      0x4  Data  Gb  spi_flash.o [1]
sprintf                 0x1007eed9     0x34  Code  Gb  sprintf.o [4]
srand                   0x10084f2d     0x20  Code  Gb  srand.o [4]
sscanf                  0x100b3641     0x24  Code  Gb  sscanf.o [4]
ssl3_prf                0x100b69e1     0xb6  Code  Lc  ssl_tls.o [1]
ssl_append_key_cert     0x100ba5ef     0x3a  Code  Lc  ssl_tls.o [1]
ssl_calc_finished_ssl   0x100b99b5    0x1b2  Code  Lc  ssl_tls.o [1]
ssl_calc_finished_tls   0x100b9b91    0x10a  Code  Lc  ssl_tls.o [1]
ssl_calc_finished_tls_sha256
                        0x100b9ce1     0xce  Code  Lc  ssl_tls.o [1]
ssl_calc_finished_tls_sha384
                        0x100b9de9     0xd0  Code  Lc  ssl_tls.o [1]
ssl_calc_verify_ssl     0x100b737d    0x13c  Code  Lc  ssl_tls.o [1]
ssl_calc_verify_tls     0x100b74b9     0x94  Code  Lc  ssl_tls.o [1]
ssl_calc_verify_tls_sha256
                        0x100b754d     0x70  Code  Lc  ssl_tls.o [1]
ssl_calc_verify_tls_sha384
                        0x100b75bd     0x72  Code  Lc  ssl_tls.o [1]
ssl_check_timer         0x100b6999     0x36  Code  Lc  ssl_tls.o [1]
ssl_decrypt_buf         0x100b7db9    0x4c0  Code  Lc  ssl_tls.o [1]
ssl_encrypt_buf         0x100b798d    0x342  Code  Lc  ssl_tls.o [1]
ssl_ep_len              0x100b6947      0x4  Code  Lc  ssl_tls.o [1]
ssl_generate_random     0x100cda15     0x30  Code  Lc  ssl_cli.o [1]
ssl_handshake_init      0x100ba421     0xb2  Code  Lc  ssl_tls.o [1]
ssl_handshake_params_init
                        0x100ba37d     0x66  Code  Lc  ssl_tls.o [1]
ssl_handshake_wrapup_free_hs_transform
                        0x100b9f45     0x5a  Code  Lc  ssl_tls.o [1]
ssl_key_cert_free       0x100baa1d     0x12  Code  Lc  ssl_tls.o [1]
ssl_mac                 0x100b78c9     0xc4  Code  Lc  ssl_tls.o [1]
ssl_parse_alpn_ext      0x100cdf81     0x58  Code  Lc  ssl_cli.o [1]
ssl_parse_certificate_request
                        0x100ceacd    0x232  Code  Lc  ssl_cli.o [1]
ssl_parse_record_header
                        0x100b8a95    0x1c0  Code  Lc  ssl_tls.o [1]
ssl_parse_renegotiation_info
                        0x100cdf1d     0x40  Code  Lc  ssl_cli.o [1]
ssl_parse_server_hello  0x100cdfd9    0x566  Code  Lc  ssl_cli.o [1]
ssl_parse_server_hello_done
                        0x100ced05     0xb8  Code  Lc  ssl_cli.o [1]
ssl_parse_server_key_exchange
                        0x100ce95f    0x168  Code  Lc  ssl_cli.o [1]
ssl_parse_server_psk_hint
                        0x100ce7e1     0x36  Code  Lc  ssl_cli.o [1]
ssl_prepare_handshake_record
                        0x100b8969     0xa8  Code  Lc  ssl_tls.o [1]
ssl_prepare_record_content
                        0x100b8cf5     0x98  Code  Lc  ssl_tls.o [1]
ssl_preset_suiteb_ciphersuites
                        0x100bae48      0xc  Data  Lc  ssl_tls.o [1]
ssl_set_timer           0x100b694b     0x36  Code  Lc  ssl_tls.o [1]
ssl_transform_init      0x100ba3e9     0x30  Code  Lc  ssl_tls.o [1]
ssl_update_checksum_md5sha1
                        0x100b9981     0x20  Code  Lc  ssl_tls.o [1]
ssl_update_checksum_sha256
                        0x100b99a1      0x8  Code  Lc  ssl_tls.o [1]
ssl_update_checksum_sha384
                        0x100b99a9      0xc  Code  Lc  ssl_tls.o [1]
ssl_update_checksum_start
                        0x100b9945     0x3c  Code  Lc  ssl_tls.o [1]
ssl_write_alpn_ext      0x100cd975     0x7a  Code  Lc  ssl_cli.o [1]
ssl_write_certificate_verify
                        0x100cef4d    0x224  Code  Lc  ssl_cli.o [1]
ssl_write_client_hello  0x100cda45    0x2f6  Code  Lc  ssl_cli.o [1]
ssl_write_client_key_exchange
                        0x100cedcd    0x178  Code  Lc  ssl_cli.o [1]
ssl_write_encrypted_pms
                        0x100ce821    0x13e  Code  Lc  ssl_cli.o [1]
ssl_write_hostname_ext  0x100cd8d5     0x70  Code  Lc  ssl_cli.o [1]
ssl_write_real          0x100ba869     0x6e  Code  Lc  ssl_tls.o [1]
sta_check_default_value
                        0x100c1de9      0xa  Code  Lc  wifi_nvdm_config.o [1]
sta_config_name         0x2000219c      0x4  Data  Lc  wpa_supplicant_entry.o [12]
sta_if                  0x200055c0     0x44  Data  Gb  ethernetif.o [1]
sta_ifname              0x200021a4      0x4  Data  Gb  wpa_supplicant_entry.o [12]
sta_reset_to_default    0x100c1df3      0xa  Code  Lc  wifi_nvdm_config.o [1]
sta_show_value          0x100c1dfd      0xa  Code  Lc  wifi_nvdm_config.o [1]
stackDump               0x10081bf5    0x45e  Code  Gb  exception_handler.o [10]
start_count             0x20000fb4      0x4  Data  Lc  iperf_task.o [1]
stats_init              0x10091805      0x2  Code  Gb  stats.o [1]
str_to_log_switch       0x10084209     0x28  Code  Gb  syslog.o [10]
str_to_print_level      0x10084231     0x28  Code  Gb  syslog.o [10]
strcat                  0x100ad133     0x1c  Code  Gb  strcat.o [4]
strchr                  0x10089aad           Code  Gb  strchr.o [17]
strcspn                 0x100b6681     0x24  Code  Gb  strcspn.o [4]
strlen                  0x1007ede9           Code  Gb  strlen.o [17]
strncasecmp             0x100baecd     0x4e  Code  Gb  strncasecmp.o [4]
strncmp                 0x100b1195     0x2c  Code  Gb  strncmp.o [4]
strpbrk                 0x100e288d      0x4  Code  Gb  misc.o [1]
strspn                  0x100b665d     0x24  Code  Gb  strspn.o [4]
strstr                  0x100a041d      0x4  Code  Gb  x509_crt.o [1]
strtok                  0x100ad0a9     0x4c  Code  Gb  strtok.o [4]
strtok_r                0x100ad0f5     0x3c  Code  Gb  strtok_r.o [4]
strtol                  0x100e18c9      0x6  Code  Gb  strtol.o [4]
strtoul                 0x100b4bfd      0x4  Code  Gb  strtoul.o [4]
supplicant_ready_query  0x100e2029     0x68  Code  Gb  wpa_supplicant_entry.o [12]
support_flash_id        0x200013e0      0x2  Data  Gb  spi_flash.o [1]
supported_ciphersuites  0x20033094     0x38  Data  Lc  ssl_ciphersuites.o [1]
supported_init          0x20033090      0x4  Data  Lc  ssl_ciphersuites.o [1]
swap                    0x100f764f     0x56  Code  Lc  qsort.o [4]
switch_channel_timer    0x20001290      0x4  Data  Lc  smt_api.o [1]
switch_context          0x100df9e5     0x12  Code  Gb  wifi_os_api.o [1]
switch_next_channel     0x10105f75     0x5c  Code  Lc  smt_api.o [1]
switch_next_channel::__FUNCTION__
                        0x10105fec     0x14  Data  Lc  smt_api.o [1]
sys_arch_mbox_fetch     0x1007f8d1     0xa8  Code  Gb  sys_arch.o [1]
sys_arch_mbox_fetch::xElapsed_count
                        0x200331a0      0x4  Data  Lc  sys_arch.o [1]
sys_arch_mbox_tryfetch  0x1007f979     0x38  Code  Gb  sys_arch.o [1]
sys_arch_protect        0x1007fb2f     0x12  Code  Gb  sys_arch.o [1]
sys_arch_sem_wait       0x1007fa0d     0x4c  Code  Gb  sys_arch.o [1]
sys_arch_unprotect      0x1007fb41      0xe  Code  Gb  sys_arch.o [1]
sys_init                0x1007faeb      0xe  Code  Gb  sys_arch.o [1]
sys_mbox_free           0x1007f83b     0x38  Code  Gb  sys_arch.o [1]
sys_mbox_new            0x1007f809     0x32  Code  Gb  sys_arch.o [1]
sys_mbox_post           0x1007f873     0x18  Code  Gb  sys_arch.o [1]
sys_mbox_trypost        0x1007f88b     0x46  Code  Gb  sys_arch.o [1]
sys_msleep              0x1010a815     0x24  Code  Gb  sys.o [1]
sys_mutex_lock          0x1007fa8f     0x18  Code  Gb  sys_arch.o [1]
sys_mutex_new           0x1007fa59     0x36  Code  Gb  sys_arch.o [1]
sys_mutex_unlock        0x1007faa7      0xc  Code  Gb  sys_arch.o [1]
sys_now                 0x1007faf9      0x4  Code  Gb  sys_arch.o [1]
sys_sem_free            0x1007fad9     0x12  Code  Gb  sys_arch.o [1]
sys_sem_new             0x1007f9b1     0x5c  Code  Gb  sys_arch.o [1]
sys_sem_signal          0x1007fab3     0x26  Code  Gb  sys_arch.o [1]
sys_thread_new          0x1007fafd     0x32  Code  Gb  sys_arch.o [1]
sys_timeout             0x10088575     0x7e  Code  Gb  lwip_timers.o [1]
sys_timeouts_init       0x10088537     0x3e  Code  Gb  lwip_timers.o [1]
sys_timeouts_mbox_fetch
                        0x100885f3     0x62  Code  Gb  lwip_timers.o [1]
syslog_buffer_dump      0x1008384d     0x60  Code  Lc  syslog.o [10]
syslog_buffer_pool      0x20033614   0x1280  Data  Lc  syslog.o [10]
syslog_cli              0x20001434     0x20  Data  Gb  syslog_cli.o [1]
syslog_cli_set_filter   0x1010ab05     0x70  Code  Gb  syslog_cli.o [1]
syslog_cli_show_config  0x1010ab75     0x6c  Code  Gb  syslog_cli.o [1]
syslog_config           0x200348a8      0x8  Data  Lc  syslog.o [10]
syslog_config_load      0x10108b27     0x42  Code  Lc  sys_init.o [1]
syslog_config_save      0x10108adf     0x48  Code  Lc  sys_init.o [1]
syslog_control_blocks   0x20001400     0x34  Data  Gb  sys_init.o [1]
syslog_convert_filter_str2val
                        0x10084041    0x10e  Code  Gb  syslog.o [10]
syslog_convert_filter_val2str
                        0x1008414f     0x5e  Code  Gb  syslog.o [10]
syslog_drop_count       0x200348a4      0x4  Data  Lc  syslog.o [10]
syslog_exception_cb     0x100838ad      0x8  Code  Lc  syslog.o [10]
syslog_get_a_string     0x10083f27     0x30  Code  Lc  syslog.o [10]
syslog_get_config       0x10083f19      0xe  Code  Gb  syslog.o [10]
syslog_get_index_from_module_name
                        0x10083f57     0x36  Code  Lc  syslog.o [10]
syslog_init_done        0x2003489c      0x4  Data  Lc  syslog.o [10]
syslog_init_time        0x20034898      0x4  Data  Lc  syslog.o [10]
syslog_set_filter       0x10083f8d     0xb0  Code  Gb  syslog.o [10]
syslog_task_entry       0x10083b93     0x28  Code  Gb  syslog.o [10]
syslog_task_handle      0x20033610      0x4  Data  Lc  syslog.o [10]
syslog_task_ready       0x200348a0      0x4  Data  Lc  syslog.o [10]
system_init             0x10108b95     0x44  Code  Gb  sys_init.o [1]
system_init::__FUNCTION__
                        0x10108cb4      0xc  Data  Lc  sys_init.o [1]
target_bssid            0x20003264      0x8  Data  Gb  wifi_scan.o [15]
taskContext             0x20034dd8     0xd8  Data  Lc  exception_handler.o [10]
tcpTimerCallback        0x100a28fd     0x14  Code  Gb  mcs.o [1]
tcp_abandon             0x1008517b     0xfa  Code  Gb  tcp.o [1]
tcp_abort               0x100852a9      0x4  Code  Gb  tcp.o [1]
tcp_accept              0x10085e67      0x4  Code  Gb  tcp.o [1]
tcp_accept_null         0x10085391      0xe  Code  Lc  tcp.o [1]
tcp_active_pcbs         0x20001504      0x4  Data  Gb  tcp.o [1]
tcp_active_pcbs_changed
                        0x200014f4      0x1  Data  Gb  tcp.o [1]
tcp_alloc               0x10085d11     0xd8  Code  Gb  tcp.o [1]
tcp_arg                 0x10085df1      0x4  Code  Gb  tcp.o [1]
tcp_backoff             0x10086388     0x10  Data  Gb  tcp.o [1]
tcp_bind                0x100852ad     0xbc  Code  Gb  tcp.o [1]
tcp_bound_pcbs          0x200014fc      0x4  Data  Gb  tcp.o [1]
tcp_build_wnd_scale_option
                        0x1008b50d      0x8  Code  Lc  tcp_out.o [1]
tcp_close               0x10085109     0x12  Code  Gb  tcp.o [1]
tcp_close_shutdown      0x10084f71    0x17a  Code  Lc  tcp.o [1]
tcp_connect             0x10085597    0x15c  Code  Gb  tcp.o [1]
tcp_create_segment      0x1008abe3     0xda  Code  Lc  tcp_out.o [1]
tcp_eff_send_mss_impl   0x10085fa3     0x26  Code  Gb  tcp.o [1]
tcp_enqueue_flags       0x1008b34d    0x1c0  Code  Gb  tcp_out.o [1]
tcp_err                 0x10085e41     0x26  Code  Gb  tcp.o [1]
tcp_fasttmr             0x10085ab5     0x5e  Code  Gb  tcp.o [1]
tcp_getoptbyte          0x1008d58b     0x30  Code  Lc  tcp_in.o [1]
tcp_init                0x10084f4d     0x16  Code  Gb  tcp.o [1]
tcp_input               0x1008beb9    0x530  Code  Gb  tcp_in.o [1]
tcp_input_pcb           0x20033364      0x4  Data  Gb  tcp_in.o [1]
tcp_keepalive           0x1008ba7b     0x62  Code  Gb  tcp_out.o [1]
tcp_kill_prio           0x10085c25     0x48  Code  Lc  tcp.o [1]
tcp_kill_state          0x10085c7d     0x56  Code  Lc  tcp.o [1]
tcp_kill_timewait       0x10085cd9     0x2e  Code  Lc  tcp.o [1]
tcp_listen_input        0x1008c54d     0xea  Code  Lc  tcp_in.o [1]
tcp_listen_pcbs         0x20001500      0x4  Data  Gb  tcp.o [1]
tcp_listen_with_backlog
                        0x1008539f     0xca  Code  Gb  tcp.o [1]
tcp_netif_ipv4_addr_changed
                        0x10085feb     0x42  Code  Gb  tcp.o [1]
tcp_netif_ipv4_addr_changed_pcblist
                        0x10085fc9     0x22  Code  Lc  tcp.o [1]
tcp_new                 0x10085ded      0x4  Code  Gb  tcp.o [1]
tcp_new_port            0x1008553f     0x58  Code  Lc  tcp.o [1]
tcp_next_iss            0x10085f97      0xc  Code  Gb  tcp.o [1]
tcp_next_iss::iss       0x20001510      0x4  Data  Lc  tcp.o [1]
tcp_oos_insert_segment  0x1008cb01     0x7a  Code  Lc  tcp_in.o [1]
tcp_optidx              0x2003334a      0x2  Data  Lc  tcp_in.o [1]
tcp_output              0x1008b587    0x242  Code  Gb  tcp_out.o [1]
tcp_output_alloc_header
                        0x1008aae5     0xb8  Code  Lc  tcp_out.o [1]
tcp_output_segment      0x1008b7d1    0x124  Code  Lc  tcp_out.o [1]
tcp_parseopt            0x1008d5bd    0x10c  Code  Lc  tcp_in.o [1]
tcp_pbuf_prealloc       0x1008acd5     0x82  Code  Lc  tcp_out.o [1]
tcp_pcb_lists           0x100856f4     0x10  Data  Gb  tcp.o [1]
tcp_pcb_purge           0x10085e99     0x50  Code  Gb  tcp.o [1]
tcp_pcb_remove          0x10085ee9     0xae  Code  Gb  tcp.o [1]
tcp_persist_backoff     0x10086398      0x8  Data  Gb  tcp.o [1]
tcp_poll                0x10085e6b     0x2e  Code  Gb  tcp.o [1]
tcp_port                0x20002598      0x2  Data  Lc  tcp.o [1]
tcp_process             0x1008c6a5    0x410  Code  Lc  tcp_in.o [1]
tcp_process_refused_data
                        0x10085b13     0x98  Code  Gb  tcp.o [1]
tcp_receive             0x1008cba9    0x9e2  Code  Lc  tcp_in.o [1]
tcp_recv                0x10085df5     0x26  Code  Gb  tcp.o [1]
tcp_recv_null           0x10085c01     0x24  Code  Gb  tcp.o [1]
tcp_recved              0x100854c7     0x78  Code  Gb  tcp.o [1]
tcp_rexmit              0x1008b9dd     0x50  Code  Gb  tcp_out.o [1]
tcp_rexmit_fast         0x1008ba2d     0x4e  Code  Gb  tcp_out.o [1]
tcp_rexmit_rto          0x1008b9b1     0x2c  Code  Gb  tcp_out.o [1]
tcp_rst                 0x1008b8f9     0xaa  Code  Gb  tcp_out.o [1]
tcp_seg_copy            0x10085bd9     0x28  Code  Gb  tcp.o [1]
tcp_seg_free            0x10085bbd     0x1c  Code  Gb  tcp.o [1]
tcp_segs_free           0x10085bab     0x12  Code  Gb  tcp.o [1]
tcp_send_empty_ack      0x1008b515     0x72  Code  Gb  tcp_out.o [1]
tcp_send_fin            0x1008ab9d     0x46  Code  Gb  tcp_out.o [1]
tcp_sent                0x10085e1b     0x26  Code  Gb  tcp.o [1]
tcp_shutdown            0x1008511b     0x60  Code  Gb  tcp.o [1]
tcp_slowtmr             0x10085705    0x3b0  Code  Gb  tcp.o [1]
tcp_ticks               0x200014f8      0x4  Data  Gb  tcp.o [1]
tcp_timer_ctr           0x200014f5      0x1  Data  Lc  tcp.o [1]
tcp_timer_needed        0x10088445     0x28  Code  Gb  lwip_timers.o [1]
tcp_timewait_input      0x1008c637     0x6c  Code  Lc  tcp_in.o [1]
tcp_tmp_pcb             0x2000150c      0x4  Data  Gb  tcp.o [1]
tcp_tmr                 0x10084f63      0xc  Code  Gb  tcp.o [1]
tcp_trigger_input_pcb_close
                        0x1008d6c9      0xc  Code  Gb  tcp_in.o [1]
tcp_tw_pcbs             0x20001508      0x4  Data  Gb  tcp.o [1]
tcp_update_rcv_ann_wnd  0x1008548d     0x3a  Code  Gb  tcp.o [1]
tcp_write               0x1008ae89    0x490  Code  Gb  tcp_out.o [1]
tcp_write_checks        0x1008ad6d     0xaa  Code  Lc  tcp_out.o [1]
tcp_zero_window_probe   0x1008badd     0xc4  Code  Gb  tcp_out.o [1]
tcphdr                  0x20033350      0x4  Data  Lc  tcp_in.o [1]
tcphdr_opt1len          0x20033348      0x2  Data  Lc  tcp_in.o [1]
tcphdr_opt2             0x20033354      0x4  Data  Lc  tcp_in.o [1]
tcpip_apimsg            0x1008188f     0x34  Code  Gb  tcpip.o [1]
tcpip_callback_with_block
                        0x1008182b     0x64  Code  Gb  tcpip.o [1]
tcpip_config_init       0x100c27fd     0xfe  Code  Gb  wifi_nvdm_config.o [1]
tcpip_init              0x100818c3     0x46  Code  Gb  tcpip.o [1]
tcpip_init_done         0x20033368      0x4  Data  Lc  tcpip.o [1]
tcpip_init_done_arg     0x2003336c      0x4  Data  Lc  tcpip.o [1]
tcpip_input             0x100817df     0x4c  Code  Gb  tcpip.o [1]
tcpip_tcp_timer         0x10088419     0x2c  Code  Lc  lwip_timers.o [1]
tcpip_tcp_timer_active  0x20019c9c      0x4  Data  Lc  lwip_timers.o [1]
tcpip_thread            0x10081739     0xa6  Code  Lc  tcpip.o [1]
tcplen                  0x2003334c      0x2  Data  Lc  tcp_in.o [1]
threading_mutex_free_freertos
                        0x10112763      0xc  Code  Lc  threading.o [1]
threading_mutex_init_freertos
                        0x10112747     0x1c  Code  Lc  threading.o [1]
threading_mutex_lock_freertos
                        0x1011276f     0x2e  Code  Lc  threading.o [1]
threading_mutex_unlock_freertos
                        0x1011279d     0x2c  Code  Lc  threading.o [1]
time_out_cb             0x10106001     0x1a  Code  Lc  smt_api.o [1]
time_out_cb::__FUNCTION__
                        0x1010601c      0xc  Data  Lc  smt_api.o [1]
time_out_timer          0x20001294      0x4  Data  Lc  smt_api.o [1]
timer_cb_buf            0x20003494     0xc8  Data  Lc  bt_init.o [1]
tls1_prf                0x100b6a97    0x1c0  Code  Lc  ssl_tls.o [1]
tls_prf_generic         0x100b6c57    0x11a  Code  Lc  ssl_tls.o [1]
tls_prf_sha256          0x100b6d71     0x20  Code  Lc  ssl_tls.o [1]
tls_prf_sha384          0x100b6d91     0x20  Code  Lc  ssl_tls.o [1]
toi                     0x1008a9b9     0xda  Code  Gb  toi.o [10]
tolower                 0x100842d9     0x14  Code  Gb  tolower.o [4]
topPAD_Control_GPIO     0x100d1e95     0x64  Code  Gb  hal_gpio_7687.o [1]
top_mcu_freq_get        0x1007f393      0x6  Code  Gb  top.o [1]
top_xtal_freq_get       0x1007f38d      0x6  Code  Gb  top.o [1]
top_xtal_init           0x1007f311     0x7c  Code  Gb  top.o [1]
tryget_socket           0x1007ba7b     0x20  Code  Lc  sockets.o [1]
tx_buf                  0x20003b9c    0x100  Data  Lc  bt_init.o [1]
tx_buf                  0x20034f4c    0x640  Data  Lc  inband_queue.o [15]
tx_oom_flag             0x20034950      0x1  Data  Lc  bt_memory.o [5]
tx_req_size             0x20034954      0x4  Data  Lc  bt_memory.o [5]
tzone                   0x10109118      0x1  Data  Lc  xlocale_c.o [4]
uart_channel_to_dma_channel
                        0x1008a409     0x1c  Code  Lc  hal_uart.o [1]
uart_interrupt_handler  0x10091c3f     0x22  Code  Gb  uart.o [1]
uart_output_char        0x10091991     0x1c  Code  Gb  uart.o [1]
uart_reset_default_value
                        0x10091c61     0xa6  Code  Gb  uart.o [1]
uart_send_handler       0x1008a425     0x54  Code  Gb  hal_uart.o [1]
uart_set_sleep_mode     0x10091bfd     0x12  Code  Gb  uart.o [1]
uart_unmask_send_interrupt
                        0x10091c0f     0x30  Code  Gb  uart.o [1]
ucHeap                  0x20005b64  0x14000  Data  Lc  heap_4.o [1]
ucMaxSysCallPriority    0x2000122c      0x1  Data  Lc  port.o [1]
udp_bind                0x1008dfb9     0xae  Code  Gb  udp.o [1]
udp_connect             0x1008e067     0x58  Code  Gb  udp.o [1]
udp_disconnect          0x1008e0bf     0x10  Code  Gb  udp.o [1]
udp_init                0x1008dbc5     0x16  Code  Gb  udp.o [1]
udp_input               0x1008dc19    0x234  Code  Gb  udp.o [1]
udp_netif_ipv4_addr_changed
                        0x1008e119     0x30  Code  Gb  udp.o [1]
udp_new                 0x1008e0fb     0x1e  Code  Gb  udp.o [1]
udp_new_port            0x1008dbdb     0x3e  Code  Lc  udp.o [1]
udp_pcbs                0x20001528      0x4  Data  Gb  udp.o [1]
udp_port                0x20001524      0x2  Data  Lc  udp.o [1]
udp_recv                0x1008e0cf      0x6  Code  Gb  udp.o [1]
udp_remove              0x1008e0d5     0x26  Code  Gb  udp.o [1]
udp_send                0x1008de4d      0x4  Code  Gb  udp.o [1]
udp_sendto              0x1008de51     0x40  Code  Gb  udp.o [1]
udp_sendto_if           0x1008de91     0x2a  Code  Gb  udp.o [1]
udp_sendto_if_src       0x1008debb     0xfe  Code  Gb  udp.o [1]
ulMaxPRIGROUPValue      0x20001234      0x4  Data  Lc  port.o [1]
unregister_eapol_rx_socket_dual_intf
                        0x100be325     0x3e  Code  Gb  ethernetif.o [1]
unregister_eapol_rx_socket_dual_intf::__FUNCTION__
                        0x100bece8     0x28  Data  Lc  ethernetif.o [1]
unregister_preocess_global_event
                        0x100de601     0x22  Code  Gb  wifi_scan.o [15]
user_check_default_value
                        0x100c221d     0x1a  Code  Gb  wifi_nvdm_config.o [1]
user_data_item_operate_array
                        0x100c22e0     0x30  Data  Lc  wifi_nvdm_config.o [1]
user_data_item_reset_to_default
                        0x100c2237     0x54  Code  Gb  wifi_nvdm_config.o [1]
user_data_item_show_value
                        0x100c228b     0x54  Code  Gb  wifi_nvdm_config.o [1]
ut_app_callback         0x20001550      0x4  Data  Gb  ut_app.o [1]
ut_app_gap_convert_hex_str
                        0x1010acb5     0x34  Code  Lc  ut_app_gap.o [1]
ut_app_reset_flash      0x100a4219     0x22  Code  Gb  ut_app.o [1]
ut_app_reset_flash_flag
                        0x20001542      0x1  Data  Lc  ut_app.o [1]
ut_app_reset_global_config
                        0x100a423b     0x6c  Code  Gb  ut_app.o [1]
ut_app_reset_global_config_flag
                        0x20001541      0x1  Data  Lc  ut_app.o [1]
uxCriticalNesting       0x20001230      0x4  Data  Lc  port.o [1]
uxCurrentNumberOfTasks  0x200014a4      0x4  Data  Lc  tasks.o [1]
uxListRemove            0x100826bd     0x24  Code  Gb  list.o [1]
uxPendedTicks           0x200014b4      0x4  Data  Lc  tasks.o [1]
uxQueueMessagesWaiting  0x10084a27     0x24  Code  Gb  queue.o [1]
uxQueueSpacesAvailable  0x10084a4b     0x28  Code  Gb  queue.o [1]
uxSchedulerSuspended    0x200014c8      0x4  Data  Lc  tasks.o [1]
uxTaskGetNumberOfTasks  0x1007d8dd      0x8  Code  Gb  tasks.o [1]
uxTaskGetSystemState    0x1007d915     0x8e  Code  Gb  tasks.o [1]
uxTaskNumber            0x200014c0      0x4  Data  Lc  tasks.o [1]
uxTasksDeleted          0x2000148c      0x4  Data  Lc  tasks.o [1]
uxTopReadyPriority      0x200014ac      0x4  Data  Lc  tasks.o [1]
vApplicationStackOverflowHook
                        0x10082b99     0x1e  Code  Gb  os_port_callback.o [1]
vListInitialise         0x10082651     0x1a  Code  Gb  list.o [1]
vListInitialiseItem     0x1008266b      0x6  Code  Gb  list.o [1]
vListInsert             0x10082689     0x34  Code  Gb  list.o [1]
vListInsertEnd          0x10082671     0x18  Code  Gb  list.o [1]
vPortEnableVFP          0x10089a71           Code  Gb  portasm.o [1]
vPortEnterCritical      0x1008242f     0x34  Code  Gb  port.o [1]
vPortExitCritical       0x10082463     0x2a  Code  Gb  port.o [1]
vPortFree               0x1007d0e9     0x74  Code  Gb  heap_4.o [1]
vPortSetupTimerInterrupt
                        0x100899c5     0x20  Code  Gb  port_tick.o [1]
vPortStartFirstTask     0x10089a59           Code  Gb  portasm.o [1]
vPortValidateInterruptPriority
                        0x100824b5     0x4a  Code  Gb  port.o [1]
vQueueAddToRegistry     0x10084bd5     0x24  Code  Gb  queue.o [1]
vQueueDelete            0x10084a73     0x26  Code  Gb  queue.o [1]
vQueueUnregisterQueue   0x10084bf9     0x1e  Code  Gb  queue.o [1]
vQueueWaitForMessageRestricted
                        0x10084c21     0x3e  Code  Gb  queue.o [1]
vTaskDelay              0x1007d683     0x6c  Code  Gb  tasks.o [1]
vTaskDelete             0x1007d5d9     0xaa  Code  Gb  tasks.o [1]
vTaskList               0x1007e119     0xb2  Code  Gb  tasks.o [1]
vTaskMissedYield        0x1007dd53      0xa  Code  Gb  tasks.o [1]
vTaskPlaceOnEventList   0x1007db85     0x66  Code  Gb  tasks.o [1]
vTaskPlaceOnEventListRestricted
                        0x1007dbeb     0x50  Code  Gb  tasks.o [1]
vTaskPriorityInherit    0x1007dff1     0x7c  Code  Gb  tasks.o [1]
vTaskSetTimeOutState    0x1007dcb9     0x24  Code  Gb  tasks.o [1]
vTaskStartScheduler     0x1007d771     0x6e  Code  Gb  tasks.o [1]
vTaskSuspendAll         0x1007d7f1      0xc  Code  Gb  tasks.o [1]
vTaskSwitchContext      0x1007da99     0x8e  Code  Gb  tasks.o [1]
vTaskSwitchContext{1}{3}{6}::ucExpectedStackBytes
                        0x1007db28     0x14  Data  Lc  tasks.o [1]
vdump_module_buffer     0x10083d87    0x178  Code  Gb  syslog.o [10]
vlan_deinit             0x100f4fe7      0x2  Code  Lc  hostapd.o [12]
vlan_init               0x100f4fe3      0x4  Code  Lc  hostapd.o [12]
vprint_module_log       0x10083c71     0xfe  Code  Gb  syslog.o [10]
vprintf                 0x1008a909     0x18  Code  Gb  vprintf.o [4]
vsnprintf               0x1008a921     0x3c  Code  Gb  vsnprint.o [4]
wake_up_addr            0x20002178     0x10  Data  Gb  wpa_supplicant_entry.o [12]
wake_up_eloop           0x20002188      0x4  Data  Gb  wpa_supplicant_entry.o [12]
wake_up_eloop_recv      0x100e1e73     0x32  Code  Gb  wpa_supplicant_entry.o [12]
wake_up_port            0x2000218c      0x4  Data  Gb  wpa_supplicant_entry.o [12]
wifi_5g_support         0x100db5cb     0x1a  Code  Gb  wifi_inband.o [15]
wifi_api_event_trigger  0x100de763     0x48  Code  Gb  wifi_scan.o [15]
wifi_api_set_event_handler
                        0x100de749     0x1a  Code  Gb  wifi_scan.o [15]
wifi_apply_ap_config    0x100d9b93     0x60  Code  Lc  wifi_init.o [1]
wifi_apply_p2p_config   0x100d9c0b      0x2  Code  Lc  wifi_init.o [1]
wifi_apply_repeater_config
                        0x100d9bf3     0x18  Code  Lc  wifi_init.o [1]
wifi_apply_sta_config   0x100d9b57     0x3c  Code  Lc  wifi_init.o [1]
wifi_apply_user_config  0x100da3d5     0x78  Code  Lc  wifi_init.o [1]
wifi_beacon_probe_rsp_parser
                        0x100dd7f9    0x3aa  Code  Lc  wifi_scan.o [15]
wifi_build_country_channel_list
                        0x100df4ab     0x7a  Code  Gb  wifi_channel.o [1]
wifi_build_country_channel_list::__FUNCTION__
                        0x100df6bc     0x20  Data  Lc  wifi_channel.o [1]
wifi_build_whole_config
                        0x100da44d     0x1a  Code  Lc  wifi_init.o [1]
wifi_cf_credential_handler
                        0x100dee9d     0xb6  Code  Gb  wifi_scan.o [15]
wifi_change_wireless_mode_5g_to_2g
                        0x100d98f9     0x32  Code  Gb  wifi_init.o [1]
wifi_channel_list_init  0x100df525    0x102  Code  Gb  wifi_channel.o [1]
wifi_channel_list_init::__FUNCTION__
                        0x100df700     0x18  Data  Lc  wifi_channel.o [1]
wifi_cli                0x20001988     0x60  Data  Gb  wifi_ex_cli.o [1]
wifi_conf_get_ch_table_from_str
                        0x100dfc25     0x74  Code  Gb  get_profile_string.o [1]
wifi_conf_get_ip_from_str
                        0x100dfcd7     0xa4  Code  Gb  get_profile_string.o [1]
wifi_conf_get_ip_from_str::__FUNCTION__
                        0x100dfdb8     0x1c  Data  Lc  get_profile_string.o [1]
wifi_conf_get_mac_from_str
                        0x100dfc99     0x3e  Code  Gb  get_profile_string.o [1]
wifi_conf_get_mac_from_str::__FUNCTION__
                        0x100dfd80     0x1c  Data  Lc  get_profile_string.o [1]
wifi_config_cli         0x200018c8     0x30  Data  Lc  wifi_ex_cli.o [1]
wifi_config_get_bandwidth
                        0x100bf4c1     0x7c  Code  Gb  wifi_api.o [15]
wifi_config_get_bandwidth_ex
                        0x1010c3b1     0x4a  Code  Gb  wifi_cli.o [1]
wifi_config_get_bandwidth_extended
                        0x100c172d      0xc  Code  Gb  wifi_private_api.o [15]
wifi_config_get_bandwidth_extended_ex
                        0x1010c4f1     0x52  Code  Gb  wifi_cli.o [1]
wifi_config_get_bssid   0x100bf3dd     0x34  Code  Gb  wifi_api.o [15]
wifi_config_get_bssid_ex
                        0x1010d289     0x58  Code  Gb  wifi_cli.o [1]
wifi_config_get_channel
                        0x100bf631     0x7c  Code  Gb  wifi_api.o [15]
wifi_config_get_channel_ex
                        0x1010c58d     0x4e  Code  Gb  wifi_cli.o [1]
wifi_config_get_cli     0x20001c68    0x180  Data  Gb  wifi_ex_config.o [1]
wifi_config_get_country_code
                        0x100c1825      0x8  Code  Gb  wifi_private_api.o [15]
wifi_config_get_country_code_ex
                        0x10111cf5     0x44  Code  Gb  wifi_private_cli.o [1]
wifi_config_get_country_region
                        0x100c00b5     0x8c  Code  Gb  wifi_api.o [15]
wifi_config_get_country_region_ex
                        0x1010d6a9     0x46  Code  Gb  wifi_cli.o [1]
wifi_config_get_dtim_interval
                        0x100c0271     0x66  Code  Gb  wifi_api.o [15]
wifi_config_get_dtim_interval_ex
                        0x1010d7cd     0x34  Code  Gb  wifi_cli.o [1]
wifi_config_get_listen_interval
                        0x100c0389     0x66  Code  Gb  wifi_api.o [15]
wifi_config_get_listen_interval_ex
                        0x1010d8ad     0x34  Code  Gb  wifi_cli.o [1]
wifi_config_get_mac_address
                        0x100d99e9     0xa4  Code  Gb  wifi_init.o [1]
wifi_config_get_mac_address::__FUNCTION__
                        0x100da5bc     0x1c  Data  Lc  wifi_init.o [1]
wifi_config_get_mac_address_ex
                        0x1010c18d     0x86  Code  Gb  wifi_cli.o [1]
wifi_config_get_mtk_smartconnection_filter_ex
                        0x1010d401     0x38  Code  Gb  wifi_cli.o [1]
wifi_config_get_n9_dbg_level
                        0x101115d5     0x38  Code  Gb  wifi_private_cli.o [1]
wifi_config_get_n9log_handler
                        0x100c1769      0x6  Code  Gb  wifi_private_api.o [15]
wifi_config_get_opmode  0x100bf0bd     0x30  Code  Gb  wifi_api.o [15]
wifi_config_get_opmode_ex
                        0x1010d065     0x38  Code  Gb  wifi_cli.o [1]
wifi_config_get_pmk     0x100c0851     0x86  Code  Gb  wifi_api.o [15]
wifi_config_get_pmk_ex  0x1010ccc9     0x74  Code  Gb  wifi_cli.o [1]
wifi_config_get_psk_ex  0x1010cc01     0x64  Code  Gb  wifi_cli.o [1]
wifi_config_get_radio   0x100c0d3d     0x72  Code  Gb  wifi_api.o [15]
wifi_config_get_radio_on_ex
                        0x1010d52d     0x38  Code  Gb  wifi_cli.o [1]
wifi_config_get_rssi_threshold_ex
                        0x1011138d     0x48  Code  Gb  wifi_private_cli.o [1]
wifi_config_get_rx_filter
                        0x100c0c9b     0x3a  Code  Gb  wifi_api.o [15]
wifi_config_get_rx_filter_ex
                        0x1010c685     0x34  Code  Gb  wifi_cli.o [1]
wifi_config_get_scan_tab_size_ex
                        0x1010e5b1     0x38  Code  Lc  wifi_ex_config.o [1]
wifi_config_get_scan_table_size
                        0x100ded8b     0x14  Code  Gb  wifi_scan.o [15]
wifi_config_get_security_mode
                        0x100c04ed     0x8c  Code  Gb  wifi_api.o [15]
wifi_config_get_security_mode_ex
                        0x1010cb19     0x64  Code  Gb  wifi_cli.o [1]
wifi_config_get_smart_connection_filter
                        0x100c0ceb     0x32  Code  Gb  wifi_api.o [15]
wifi_config_get_ssid    0x100bf251     0x86  Code  Gb  wifi_api.o [15]
wifi_config_get_ssid_ex
                        0x1010d169     0x56  Code  Gb  wifi_cli.o [1]
wifi_config_get_tx_power
                        0x100c174d      0x8  Code  Gb  wifi_private_api.o [15]
wifi_config_get_tx_power_ex
                        0x10111895     0x38  Code  Gb  wifi_private_cli.o [1]
wifi_config_get_wep_key
                        0x100c0995     0x80  Code  Gb  wifi_api.o [15]
wifi_config_get_wep_key_ex
                        0x1010cd85     0xac  Code  Gb  wifi_cli.o [1]
wifi_config_get_wep_key_ex::__FUNCTION__
                        0x1010ce38     0x1c  Data  Lc  wifi_cli.o [1]
wifi_config_get_wireless_mode
                        0x100bff39     0x7c  Code  Gb  wifi_api.o [15]
wifi_config_get_wireless_mode_ex
                        0x1010d599     0x46  Code  Gb  wifi_cli.o [1]
wifi_config_get_wpa_psk_key
                        0x100c062d     0x8c  Code  Gb  wifi_api.o [15]
wifi_config_init        0x100c2475    0x342  Code  Gb  wifi_nvdm_config.o [1]
wifi_config_register_n9log_handler
                        0x100c1761      0x8  Code  Gb  wifi_private_api.o [15]
wifi_config_register_rx_handler
                        0x100c0c21     0x3c  Code  Gb  wifi_api.o [15]
wifi_config_reload_setting
                        0x100c12c9     0x82  Code  Gb  wifi_api.o [15]
wifi_config_set_airplay
                        0x1010e621      0xe  Code  Lc  wifi_ex_config.o [1]
wifi_config_set_apple_ie
                        0x1010e62f      0x4  Code  Lc  wifi_ex_config.o [1]
wifi_config_set_bandwidth
                        0x100bf56d     0x8c  Code  Gb  wifi_api.o [15]
wifi_config_set_bandwidth_ex
                        0x1010c271     0x54  Code  Gb  wifi_cli.o [1]
wifi_config_set_bandwidth_extended
                        0x100c1739     0x10  Code  Gb  wifi_private_api.o [15]
wifi_config_set_bandwidth_extended_ex
                        0x1010c301     0x66  Code  Gb  wifi_cli.o [1]
wifi_config_set_bssid   0x100bf411     0x64  Code  Gb  wifi_api.o [15]
wifi_config_set_bssid_ex
                        0x1010d32d     0x42  Code  Gb  wifi_cli.o [1]
wifi_config_set_channel
                        0x100bf6d5     0x5c  Code  Gb  wifi_api.o [15]
wifi_config_set_channel_ex
                        0x1010c439     0x66  Code  Gb  wifi_cli.o [1]
wifi_config_set_cli     0x20001a98    0x1d0  Data  Gb  wifi_ex_config.o [1]
wifi_config_set_country_code
                        0x100c176f     0xac  Code  Gb  wifi_private_api.o [15]
wifi_config_set_country_code_ex
                        0x10111b15    0x1a4  Code  Gb  wifi_private_cli.o [1]
wifi_config_set_country_region
                        0x100c0175     0xa6  Code  Gb  wifi_api.o [15]
wifi_config_set_country_region_ex
                        0x1010d739     0x4a  Code  Gb  wifi_cli.o [1]
wifi_config_set_dtim_interval
                        0x100c02f9     0x70  Code  Gb  wifi_api.o [15]
wifi_config_set_dtim_interval_ex
                        0x1010d83d     0x34  Code  Gb  wifi_cli.o [1]
wifi_config_set_frame_filter
                        0x100c1749      0x4  Code  Gb  wifi_private_api.o [15]
wifi_config_set_frame_filter_ex
                        0x101114fd     0xa0  Code  Gb  wifi_private_cli.o [1]
wifi_config_set_listen_interval
                        0x100c0425     0x70  Code  Gb  wifi_api.o [15]
wifi_config_set_listen_interval_ex
                        0x1010d921     0x34  Code  Gb  wifi_cli.o [1]
wifi_config_set_mtk_smartconnection_filter_ex
                        0x1010d439     0x38  Code  Gb  wifi_cli.o [1]
wifi_config_set_n9_dbg_level
                        0x1011159d     0x38  Code  Gb  wifi_private_cli.o [1]
wifi_config_set_n9log_state_ex
                        0x10111a4f     0xc2  Code  Gb  wifi_private_cli.o [1]
wifi_config_set_opmode  0x100bf105    0x100  Code  Gb  wifi_api.o [15]
wifi_config_set_opmode_ex
                        0x1010d0d5     0x34  Code  Gb  wifi_cli.o [1]
wifi_config_set_pmk     0x100c08ed     0x86  Code  Gb  wifi_api.o [15]
wifi_config_set_pmk_ex  0x1010ca91     0x54  Code  Gb  wifi_cli.o [1]
wifi_config_set_psk_ex  0x1010c9c5     0x60  Code  Gb  wifi_cli.o [1]
wifi_config_set_radio   0x100c0daf    0x112  Code  Gb  wifi_api.o [15]
wifi_config_set_radio_on_ex
                        0x1010d4c1     0x38  Code  Gb  wifi_cli.o [1]
wifi_config_set_reload_ex
                        0x1010d3a5     0x2a  Code  Gb  wifi_cli.o [1]
wifi_config_set_rssi_threshold_ex
                        0x101113d5     0x58  Code  Gb  wifi_private_cli.o [1]
wifi_config_set_rx_filter
                        0x100c0cd5     0x16  Code  Gb  wifi_api.o [15]
wifi_config_set_rx_filter_ex
                        0x1010c615     0x3a  Code  Gb  wifi_cli.o [1]
wifi_config_set_rx_raw_pkt_ex
                        0x1010c6ed     0x44  Code  Gb  wifi_cli.o [1]
wifi_config_set_scan_tab_size_ex
                        0x1010e5e9     0x38  Code  Lc  wifi_ex_config.o [1]
wifi_config_set_scan_table_size
                        0x100ded9f     0x76  Code  Gb  wifi_scan.o [15]
wifi_config_set_security_mode
                        0x100c0599     0x72  Code  Gb  wifi_api.o [15]
wifi_config_set_security_mode_ex
                        0x1010c8b1     0x76  Code  Gb  wifi_cli.o [1]
wifi_config_set_smart_connection_filter
                        0x100c0d31      0xc  Code  Gb  wifi_api.o [15]
wifi_config_set_ssid    0x100bf2f1     0xa4  Code  Gb  wifi_api.o [15]
wifi_config_set_ssid_ex
                        0x1010d1f9     0x50  Code  Gb  wifi_cli.o [1]
wifi_config_set_tx_power
                        0x100c1755      0xc  Code  Gb  wifi_private_api.o [15]
wifi_config_set_tx_power_ex
                        0x101118cd     0x38  Code  Gb  wifi_private_cli.o [1]
wifi_config_set_wep_key
                        0x100c0a55     0x32  Code  Gb  wifi_api.o [15]
wifi_config_set_wep_key_ex
                        0x1010cecd    0x11e  Code  Gb  wifi_cli.o [1]
wifi_config_set_wireless_mode
                        0x100bfff5     0x96  Code  Gb  wifi_api.o [15]
wifi_config_set_wireless_mode_ex
                        0x1010d61d     0x4e  Code  Gb  wifi_cli.o [1]
wifi_config_set_wpa_psk_key
                        0x100c06d5     0xfa  Code  Gb  wifi_api.o [15]
wifi_config_unregister_rx_handler
                        0x100c0c65     0x36  Code  Gb  wifi_api.o [15]
wifi_connect_cli        0x200018f8     0x30  Data  Lc  wifi_ex_cli.o [1]
wifi_connect_deauth_station_ex
                        0x1010dca7     0x60  Code  Gb  wifi_cli.o [1]
wifi_connect_get_cli    0x20001e38     0x50  Data  Gb  wifi_ex_connect.o [1]
wifi_connect_get_link_status_ex
                        0x1010dd47     0x38  Code  Gb  wifi_cli.o [1]
wifi_connect_get_max_station_number_ex
                        0x1010dbc5     0x38  Code  Gb  wifi_cli.o [1]
wifi_connect_get_rssi_ex
                        0x1010dc4d     0x38  Code  Gb  wifi_cli.o [1]
wifi_connect_get_station_list_ex
                        0x1010d995     0xe0  Code  Gb  wifi_cli.o [1]
wifi_connect_scan_ex    0x101116c9    0x1cc  Code  Gb  wifi_private_cli.o [1]
wifi_connect_set_cli    0x20001de8     0x50  Data  Gb  wifi_ex_connect.o [1]
wifi_connect_set_connection_ex
                        0x1010dd07     0x40  Code  Gb  wifi_cli.o [1]
wifi_connect_set_event_callback_ex
                        0x1010e01d     0x4c  Code  Gb  wifi_cli.o [1]
wifi_connected          0x20033438      0x4  Data  Lc  wifi_lwip_helper.o [1]
wifi_connection_disconnect_ap
                        0x100c0aa1     0x84  Code  Gb  wifi_api.o [15]
wifi_connection_disconnect_sta
                        0x100c0b59     0x32  Code  Gb  wifi_api.o [15]
wifi_connection_get_link_status
                        0x100c0bbd     0x2e  Code  Gb  wifi_api.o [15]
wifi_connection_get_max_sta_number
                        0x100c118d     0x64  Code  Gb  wifi_api.o [15]
wifi_connection_get_rssi
                        0x100c11f9     0x7a  Code  Gb  wifi_api.o [15]
wifi_connection_get_sta_list
                        0x100c1119     0x6e  Code  Gb  wifi_api.o [15]
wifi_connection_inform_ip_ready
                        0x100c182d      0x8  Code  Gb  wifi_private_api.o [15]
wifi_connection_parse_beacon
                        0x100c0f91    0x188  Code  Gb  wifi_api.o [15]
wifi_connection_register_event_handler
                        0x100c1279      0xa  Code  Gb  wifi_api.o [15]
wifi_connection_register_event_notifier
                        0x100c1283      0x2  Code  Gb  wifi_api.o [15]
wifi_connection_scan_init
                        0x100dee15     0x4c  Code  Gb  wifi_scan.o [15]
wifi_connection_send_raw_packet
                        0x100c1291     0x32  Code  Gb  wifi_api.o [15]
wifi_connection_start_scan
                        0x100c0ec1     0xbe  Code  Gb  wifi_api.o [15]
wifi_connection_stop_scan
                        0x100c0f7f     0x12  Code  Gb  wifi_api.o [15]
wifi_connection_unregister_event_handler
                        0x100c1285      0xa  Code  Gb  wifi_api.o [15]
wifi_connection_unregister_event_notifier
                        0x100c128f      0x2  Code  Gb  wifi_api.o [15]
wifi_country_code_region_mapping
                        0x100bf749     0x4e  Code  Gb  wifi_api.o [15]
wifi_event_proxy_handler
                        0x100de629     0x76  Code  Gb  wifi_scan.o [15]
wifi_frame_type_event_handler
                        0x1011142d     0xd0  Code  Gb  wifi_private_cli.o [1]
wifi_frame_type_event_handler::__FUNCTION__
                        0x10111e24     0x20  Data  Lc  wifi_private_cli.o [1]
wifi_get_channel_list   0x100bf95d     0x7e  Code  Gb  wifi_api.o [15]
wifi_get_config_from_nvdm
                        0x100d9c0d    0x7c2  Code  Lc  wifi_init.o [1]
wifi_get_country_channel_list
                        0x100df4a5      0x6  Code  Gb  wifi_channel.o [1]
wifi_get_mac_addr_from_efuse
                        0x100d992b     0x78  Code  Lc  wifi_init.o [1]
wifi_get_mac_addr_from_efuse::__FUNCTION__
                        0x100da578     0x20  Data  Lc  wifi_init.o [1]
wifi_get_mac_addr_from_nvdm
                        0x100d99a3     0x46  Code  Lc  wifi_init.o [1]
wifi_get_ps_mode        0x100d9a8d     0x24  Code  Gb  wifi_init.o [1]
wifi_get_security_valid
                        0x100da51b      0x6  Code  Gb  wifi_init.o [1]
wifi_give_channel_list_mutex
                        0x100df49d      0x8  Code  Gb  wifi_channel.o [1]
wifi_inband_bandwidth   0x100da90d     0x40  Code  Gb  wifi_inband.o [15]
wifi_inband_bandwidth_extended
                        0x100db6c5     0x56  Code  Gb  wifi_inband.o [15]
wifi_inband_bssid       0x100daaab     0x7c  Code  Gb  wifi_inband.o [15]
wifi_inband_channel     0x100da94d     0x3e  Code  Gb  wifi_inband.o [15]
wifi_inband_country_code
                        0x100dad19     0x4e  Code  Gb  wifi_inband.o [15]
wifi_inband_country_region
                        0x100dab63    0x18c  Code  Gb  wifi_inband.o [15]
wifi_inband_disconnect  0x100dae8f     0x42  Code  Gb  wifi_inband.o [15]
wifi_inband_dtim_interval
                        0x100dad67     0x2c  Code  Gb  wifi_inband.o [15]
wifi_inband_frame_type_filiter
                        0x100db71b     0x74  Code  Gb  wifi_inband.o [15]
wifi_inband_get_debug_level
                        0x100dadeb     0x18  Code  Gb  wifi_inband.o [15]
wifi_inband_get_efuse   0x100db2f9     0x56  Code  Gb  wifi_inband.o [15]
wifi_inband_get_efuse_free
                        0x100db2c7     0x32  Code  Gb  wifi_inband.o [15]
wifi_inband_get_link_status
                        0x100daed1     0x1a  Code  Gb  wifi_inband.o [15]
wifi_inband_get_max_station_number
                        0x100daf4f     0x18  Code  Gb  wifi_inband.o [15]
wifi_inband_get_rssi    0x100db1f5     0x18  Code  Gb  wifi_inband.o [15]
wifi_inband_get_rssi_threshold
                        0x100db275     0x3c  Code  Gb  wifi_inband.o [15]
wifi_inband_get_station_list
                        0x100daeeb     0x64  Code  Gb  wifi_inband.o [15]
wifi_inband_listen_interval
                        0x100dad93     0x2c  Code  Gb  wifi_inband.o [15]
wifi_inband_opmode      0x100da8df     0x2e  Code  Gb  wifi_inband.o [15]
wifi_inband_query_efuse
                        0x100db3b3     0x7e  Code  Gb  wifi_inband.o [15]
wifi_inband_radio_on    0x100dadbf     0x2c  Code  Gb  wifi_inband.o [15]
wifi_inband_rx_filter   0x100db171     0x30  Code  Gb  wifi_inband.o [15]
wifi_inband_scan_custom
                        0x100db597      0xa  Code  Gb  wifi_inband.o [15]
wifi_inband_set_ap_start
                        0x100db1e1     0x14  Code  Gb  wifi_inband.o [15]
wifi_inband_set_ap_stop
                        0x100db1cd     0x14  Code  Gb  wifi_inband.o [15]
wifi_inband_set_auth_mode
                        0x100dae1b     0x1e  Code  Gb  wifi_inband.o [15]
wifi_inband_set_debug_level
                        0x100dae03     0x18  Code  Gb  wifi_inband.o [15]
wifi_inband_set_efuse   0x100db34f     0x64  Code  Gb  wifi_inband.o [15]
wifi_inband_set_encryption
                        0x100dae39     0x1e  Code  Gb  wifi_inband.o [15]
wifi_inband_set_n9_consol_log_state
                        0x100db5a1     0x2a  Code  Gb  wifi_inband.o [15]
wifi_inband_set_ps_mode
                        0x100db2b1     0x16  Code  Gb  wifi_inband.o [15]
wifi_inband_set_raw_pkt
                        0x100da98b     0x16  Code  Gb  wifi_inband.o [15]
wifi_inband_set_rssi_threshold
                        0x100db231     0x44  Code  Gb  wifi_inband.o [15]
wifi_inband_set_rx_vector_stat
                        0x100db20d     0x24  Code  Gb  wifi_inband.o [15]
wifi_inband_set_wep_key
                        0x100dae57     0x38  Code  Gb  wifi_inband.o [15]
wifi_inband_set_wifi_privilege
                        0x100db78f     0x30  Code  Gb  wifi_inband.o [15]
wifi_inband_smart_connection
                        0x100db1a1     0x2c  Code  Gb  wifi_inband.o [15]
wifi_inband_ssid        0x100da9a1     0x7e  Code  Gb  wifi_inband.o [15]
wifi_inband_ssid_channel
                        0x100daa1f     0x8c  Code  Gb  wifi_inband.o [15]
wifi_inband_start_scan  0x100daf67    0x1f6  Code  Gb  wifi_inband.o [15]
wifi_inband_stop_scan   0x100db15d     0x14  Code  Gb  wifi_inband.o [15]
wifi_inband_tx_power    0x100db5e5     0xcc  Code  Gb  wifi_inband.o [15]
wifi_inband_tx_raw      0x100db4c5     0x9e  Code  Gb  wifi_inband.o [15]
wifi_inband_wireless_mode
                        0x100dab27     0x3c  Code  Gb  wifi_inband.o [15]
wifi_inband_wow_enable  0x100db565      0xa  Code  Gb  wifi_inband.o [15]
wifi_inband_wow_set_arp_offload
                        0x100db583      0xa  Code  Gb  wifi_inband.o [15]
wifi_inband_wow_set_bitmap_pattern
                        0x100db579      0xa  Code  Gb  wifi_inband.o [15]
wifi_inband_wow_set_magic_packet
                        0x100db56f      0xa  Code  Gb  wifi_inband.o [15]
wifi_inband_wow_set_rekey_offload
                        0x100db58d      0xa  Code  Gb  wifi_inband.o [15]
wifi_init               0x100da467     0xb4  Code  Gb  wifi_init.o [1]
wifi_init::__FUNCTION__
                        0x100da878      0xc  Data  Lc  wifi_init.o [1]
wifi_init_done_handler  0x100c2a15     0x20  Code  Gb  wifi_nvdm_config.o [1]
wifi_init_done_handler::__FUNCTION__
                        0x100c2b30     0x18  Data  Lc  wifi_nvdm_config.o [1]
wifi_is_auth_mode_valid
                        0x100db931      0xc  Code  Gb  wifi_profile.o [1]
wifi_is_band_valid      0x100db919      0xc  Code  Gb  wifi_profile.o [1]
wifi_is_bandwidth_valid
                        0x100db925      0xc  Code  Gb  wifi_profile.o [1]
wifi_is_encrypt_type_valid
                        0x100db93d      0xc  Code  Gb  wifi_profile.o [1]
wifi_is_mac_address_valid
                        0x100d98dd     0x1c  Code  Lc  wifi_init.o [1]
wifi_is_opmode_valid    0x100db901      0xc  Code  Gb  wifi_profile.o [1]
wifi_is_port_valid      0x100db90d      0xc  Code  Gb  wifi_profile.o [1]
wifi_lock_sleep         0x100da52b      0xa  Code  Gb  wifi_init.o [1]
wifi_mq_cli             0x20001928     0x20  Data  Lc  wifi_ex_cli.o [1]
wifi_mq_get_cli         0x200018a8     0x20  Data  Gb  wifi_cli.o [1]
wifi_mq_get_iq_ex       0x1010dc85     0x22  Code  Gb  wifi_cli.o [1]
wifi_n9log_handler      0x10111905     0x3e  Code  Gb  wifi_private_cli.o [1]
wifi_n9log_handler::__FUNCTION__
                        0x10112100     0x14  Data  Lc  wifi_private_cli.o [1]
wifi_os_free            0x100dfa4b      0x4  Code  Gb  wifi_os_api.o [1]
wifi_os_malloc          0x100dfa3f      0x4  Code  Gb  wifi_os_api.o [1]
wifi_os_queue_create    0x100df829      0x6  Code  Gb  wifi_os_api.o [1]
wifi_os_queue_get_space
                        0x100df82f     0x22  Code  Gb  wifi_os_api.o [1]
wifi_os_queue_receive   0x100df851     0x52  Code  Gb  wifi_os_api.o [1]
wifi_os_queue_send      0x100df8a3     0x52  Code  Gb  wifi_os_api.o [1]
wifi_os_queue_send_from_isr
                        0x100df8f5     0x3a  Code  Gb  wifi_os_api.o [1]
wifi_os_semphr_create_binary
                        0x100df935      0xa  Code  Gb  wifi_os_api.o [1]
wifi_os_semphr_create_mutex
                        0x100df92f      0x6  Code  Gb  wifi_os_api.o [1]
wifi_os_semphr_delete   0x100df9c1     0x24  Code  Gb  wifi_os_api.o [1]
wifi_os_semphr_give     0x100df98f     0x32  Code  Gb  wifi_os_api.o [1]
wifi_os_semphr_take     0x100df93f     0x50  Code  Gb  wifi_os_api.o [1]
wifi_os_task_create     0x100df9fd     0x26  Code  Gb  wifi_os_api.o [1]
wifi_os_task_delete     0x100dfa23      0x4  Code  Gb  wifi_os_api.o [1]
wifi_os_task_enter_critical
                        0x100dfa2b      0x4  Code  Gb  wifi_os_api.o [1]
wifi_os_task_exit_critical
                        0x100dfa2f      0x4  Code  Gb  wifi_os_api.o [1]
wifi_os_task_get_handle
                        0x100dfa33      0x4  Code  Gb  wifi_os_api.o [1]
wifi_os_task_get_name   0x100dfa37      0x4  Code  Gb  wifi_os_api.o [1]
wifi_os_task_get_scheduler_state
                        0x100dfa3b      0x4  Code  Gb  wifi_os_api.o [1]
wifi_os_task_sleep      0x100dfa27      0x4  Code  Gb  wifi_os_api.o [1]
wifi_os_zalloc          0x100dfa43      0x8  Code  Gb  wifi_os_api.o [1]
wifi_parse_a_band_num   0x100df65d     0x2c  Code  Gb  wifi_channel.o [1]
wifi_parse_bg_band_num  0x100df631     0x2c  Code  Gb  wifi_channel.o [1]
wifi_parse_channel_list_from_string
                        0x100bfa43     0xc0  Code  Lc  wifi_api.o [15]
wifi_parse_data_rate    0x1010bdbd    0x2bc  Code  Lc  wifi_cli.o [1]
wifi_priv_cli           0x200019e8     0xb0  Data  Gb  wifi_ex_config.o [1]
wifi_profile_cli        0x20001948     0x40  Data  Lc  wifi_ex_cli.o [1]
wifi_profile_commit_setting
                        0x100dc2c5      0x4  Code  Gb  wifi_profile.o [1]
wifi_profile_get_bandwidth
                        0x100dbc71     0x90  Code  Gb  wifi_profile.o [1]
wifi_profile_get_bandwidth::__FUNCTION__
                        0x100dbd1c     0x1c  Data  Lc  wifi_profile.o [1]
wifi_profile_get_bandwidth_ex
                        0x10110371     0x2e  Code  Lc  wifi_ex_profile.o [1]
wifi_profile_get_channel
                        0x100dbaf1     0x78  Code  Gb  wifi_profile.o [1]
wifi_profile_get_channel::__FUNCTION__
                        0x100dbb70     0x1c  Data  Lc  wifi_profile.o [1]
wifi_profile_get_channel_ex
                        0x10110343     0x2e  Code  Lc  wifi_ex_profile.o [1]
wifi_profile_get_cli    0x20001f78    0x100  Data  Gb  wifi_ex_profile.o [1]
wifi_profile_get_country_region
                        0x100dd1e1     0xc2  Code  Gb  wifi_profile.o [1]
wifi_profile_get_country_region::__FUNCTION__
                        0x100dd2bc     0x20  Data  Lc  wifi_profile.o [1]
wifi_profile_get_country_region_ex
                        0x10110417     0x2a  Code  Lc  wifi_ex_profile.o [1]
wifi_profile_get_dtim_interval
                        0x100dd47d     0x5a  Code  Gb  wifi_profile.o [1]
wifi_profile_get_dtim_interval::__FUNCTION__
                        0x100dd4d8     0x20  Data  Lc  wifi_profile.o [1]
wifi_profile_get_dtim_interval_ex
                        0x10110441     0x1e  Code  Lc  wifi_ex_profile.o [1]
wifi_profile_get_listen_interval
                        0x100dd589     0x5a  Code  Gb  wifi_profile.o [1]
wifi_profile_get_listen_interval::__FUNCTION__
                        0x100dd5fc     0x24  Data  Lc  wifi_profile.o [1]
wifi_profile_get_listen_interval_ex
                        0x1011045f     0x1e  Code  Lc  wifi_ex_profile.o [1]
wifi_profile_get_mac_address
                        0x100dbd39     0xae  Code  Gb  wifi_profile.o [1]
wifi_profile_get_mac_address::__FUNCTION__
                        0x100dbdf8     0x20  Data  Lc  wifi_profile.o [1]
wifi_profile_get_mac_address_ex
                        0x1011047d     0x52  Code  Lc  wifi_ex_profile.o [1]
wifi_profile_get_n9_dbg_level
                        0x10110691     0x3a  Code  Lc  wifi_ex_profile.o [1]
wifi_profile_get_opmode
                        0x100db9dd     0x5a  Code  Gb  wifi_profile.o [1]
wifi_profile_get_opmode::__FUNCTION__
                        0x100dba38     0x18  Data  Lc  wifi_profile.o [1]
wifi_profile_get_opmode_ex
                        0x10110325     0x1e  Code  Lc  wifi_ex_profile.o [1]
wifi_profile_get_pmk    0x100dcc4d     0xfe  Code  Gb  wifi_profile.o [1]
wifi_profile_get_pmk::__FUNCTION__
                        0x100dcd84     0x18  Data  Lc  wifi_profile.o [1]
wifi_profile_get_pmk_ex
                        0x10110185     0x70  Code  Lc  wifi_ex_profile.o [1]
wifi_profile_get_profile_ex
                        0x1010fb05    0x354  Code  Gb  wifi_ex_profile.o [1]
wifi_profile_get_psk_ex
                        0x10110505     0x4a  Code  Lc  wifi_ex_profile.o [1]
wifi_profile_get_security_mode
                        0x100dc5fd     0xd6  Code  Gb  wifi_profile.o [1]
wifi_profile_get_security_mode::__FUNCTION__
                        0x100dc6ec     0x20  Data  Lc  wifi_profile.o [1]
wifi_profile_get_security_mode_ex
                        0x101104cf     0x36  Code  Lc  wifi_ex_profile.o [1]
wifi_profile_get_ssid   0x100dc135    0x140  Code  Gb  wifi_profile.o [1]
wifi_profile_get_ssid::__FUNCTION__
                        0x100dc29c     0x18  Data  Lc  wifi_profile.o [1]
wifi_profile_get_ssid_ex
                        0x1011039f     0x4a  Code  Lc  wifi_ex_profile.o [1]
wifi_profile_get_wep_key
                        0x100dd009    0x174  Code  Gb  wifi_profile.o [1]
wifi_profile_get_wep_key::__FUNCTION__
                        0x100dd198     0x1c  Data  Lc  wifi_profile.o [1]
wifi_profile_get_wep_key_ex
                        0x1011054f     0xb0  Code  Lc  wifi_ex_profile.o [1]
wifi_profile_get_wireless_mode
                        0x100dc3a5     0x8e  Code  Gb  wifi_profile.o [1]
wifi_profile_get_wireless_mode::__FUNCTION__
                        0x100dc44c     0x20  Data  Lc  wifi_profile.o [1]
wifi_profile_get_wireless_mode_ex
                        0x101103e9     0x2e  Code  Lc  wifi_ex_profile.o [1]
wifi_profile_get_wpa_psk_key
                        0x100dc9cd    0x12c  Code  Gb  wifi_profile.o [1]
wifi_profile_get_wpa_psk_key::__FUNCTION__
                        0x100dcb50     0x20  Data  Lc  wifi_profile.o [1]
wifi_profile_reset_ex   0x101106cb      0xc  Code  Gb  wifi_ex_profile.o [1]
wifi_profile_set_bandwidth
                        0x100dbb8d     0xa6  Code  Gb  wifi_profile.o [1]
wifi_profile_set_bandwidth::__FUNCTION__
                        0x100dbc54     0x1c  Data  Lc  wifi_profile.o [1]
wifi_profile_set_bandwidth_ex
                        0x1010f7b5     0x4c  Code  Lc  wifi_ex_profile.o [1]
wifi_profile_set_channel
                        0x100dba51     0x82  Code  Gb  wifi_profile.o [1]
wifi_profile_set_channel::__FUNCTION__
                        0x100dbad4     0x1c  Data  Lc  wifi_profile.o [1]
wifi_profile_set_channel_ex
                        0x1010f725     0x5e  Code  Lc  wifi_ex_profile.o [1]
wifi_profile_set_cli    0x20001e88     0xf0  Data  Gb  wifi_ex_profile.o [1]
wifi_profile_set_country_region
                        0x100dd2dd    0x106  Code  Gb  wifi_profile.o [1]
wifi_profile_set_country_region::__FUNCTION__
                        0x100dd438     0x20  Data  Lc  wifi_profile.o [1]
wifi_profile_set_country_region_ex
                        0x1010f897     0x40  Code  Lc  wifi_ex_profile.o [1]
wifi_profile_set_dtim_interval
                        0x100dd4f9     0x64  Code  Gb  wifi_profile.o [1]
wifi_profile_set_dtim_interval::__FUNCTION__
                        0x100dd55c     0x20  Data  Lc  wifi_profile.o [1]
wifi_profile_set_dtim_interval_ex
                        0x1010f8d7     0x2a  Code  Lc  wifi_ex_profile.o [1]
wifi_profile_set_listen_interval
                        0x100dd621     0x62  Code  Gb  wifi_profile.o [1]
wifi_profile_set_listen_interval::__FUNCTION__
                        0x100dd69c     0x24  Data  Lc  wifi_profile.o [1]
wifi_profile_set_listen_interval_ex
                        0x1010f901     0x2a  Code  Lc  wifi_ex_profile.o [1]
wifi_profile_set_mac_address
                        0x100dbe19     0xba  Code  Gb  wifi_profile.o [1]
wifi_profile_set_mac_address::__FUNCTION__
                        0x100dbef0     0x20  Data  Lc  wifi_profile.o [1]
wifi_profile_set_mac_address_ex
                        0x1010f92b     0x94  Code  Lc  wifi_ex_profile.o [1]
wifi_profile_set_n9_dbg_level
                        0x101105ff     0x5a  Code  Lc  wifi_ex_profile.o [1]
wifi_profile_set_opmode
                        0x100db949     0x68  Code  Gb  wifi_profile.o [1]
wifi_profile_set_opmode::__FUNCTION__
                        0x100db9c4     0x18  Data  Lc  wifi_profile.o [1]
wifi_profile_set_opmode_ex
                        0x1010f6e1     0x2c  Code  Lc  wifi_ex_profile.o [1]
wifi_profile_set_pmk    0x100dcb71     0xba  Code  Gb  wifi_profile.o [1]
wifi_profile_set_pmk::__FUNCTION__
                        0x100dcc2c     0x18  Data  Lc  wifi_profile.o [1]
wifi_profile_set_pmk_ex
                        0x1010fa91     0x70  Code  Lc  wifi_ex_profile.o [1]
wifi_profile_set_psk_ex
                        0x1010fa21     0x6c  Code  Lc  wifi_ex_profile.o [1]
wifi_profile_set_security_mode
                        0x100dc47d    0x120  Code  Gb  wifi_profile.o [1]
wifi_profile_set_security_mode::__FUNCTION__
                        0x100dc5dc     0x20  Data  Lc  wifi_profile.o [1]
wifi_profile_set_security_mode_ex
                        0x1010f9bf     0x5c  Code  Lc  wifi_ex_profile.o [1]
wifi_profile_set_ssid   0x100dbf39    0x1ba  Code  Gb  wifi_profile.o [1]
wifi_profile_set_ssid::__FUNCTION__
                        0x100dc11c     0x18  Data  Lc  wifi_profile.o [1]
wifi_profile_set_ssid_ex
                        0x1010f801     0x4a  Code  Lc  wifi_ex_profile.o [1]
wifi_profile_set_wep_key
                        0x100dcd9d    0x1fc  Code  Gb  wifi_profile.o [1]
wifi_profile_set_wep_key::__FUNCTION__
                        0x100dcfec     0x1c  Data  Lc  wifi_profile.o [1]
wifi_profile_set_wep_key_ex
                        0x101101f5    0x11a  Code  Lc  wifi_ex_profile.o [1]
wifi_profile_set_wireless_mode
                        0x100dc2c9     0xb8  Code  Gb  wifi_profile.o [1]
wifi_profile_set_wireless_mode::__FUNCTION__
                        0x100dc384     0x20  Data  Lc  wifi_profile.o [1]
wifi_profile_set_wireless_mode_ex
                        0x1010f84b     0x4c  Code  Lc  wifi_ex_profile.o [1]
wifi_profile_set_wpa_psk_key
                        0x100dc725    0x1fc  Code  Gb  wifi_profile.o [1]
wifi_profile_set_wpa_psk_key::__FUNCTION__
                        0x100dc9a0     0x20  Data  Lc  wifi_profile.o [1]
wifi_release_sleep_handle
                        0x100da575      0x4  Code  Gb  wifi_init.o [1]
wifi_rx_event_handler   0x100de7ac     0x24  Data  Gb  wifi_scan.o [15]
wifi_save_ap_ext_config
                        0x100d9b0f     0x48  Code  Lc  wifi_init.o [1]
wifi_save_sta_ext_config
                        0x100d9ab9     0x56  Code  Lc  wifi_init.o [1]
wifi_scan_add_scan_bssid
                        0x100dd723     0x4e  Code  Gb  wifi_scan.o [15]
wifi_scan_ap_rescan     0x100def59    0x120  Code  Gb  wifi_scan.o [15]
wifi_scan_get_scan_bssid
                        0x100dd7ab     0x1c  Code  Gb  wifi_scan.o [15]
wifi_scan_init          0x100dee61     0x34  Code  Gb  wifi_scan.o [15]
wifi_scan_list_handler  0x100de1b1    0x402  Code  Gb  wifi_scan.o [15]
wifi_scan_list_search_by_bssid
                        0x100ddfdd     0x38  Code  Gb  wifi_scan.o [15]
wifi_scan_reset         0x100dece3     0x26  Code  Gb  wifi_scan.o [15]
wifi_scan_reset_scan_dirty
                        0x100dd797     0x14  Code  Gb  wifi_scan.o [15]
wifi_scan_set_bssid     0x100dd709     0x1a  Code  Gb  wifi_scan.o [15]
wifi_scan_set_scan_bssid_dirty
                        0x100dd771     0x26  Code  Gb  wifi_scan.o [15]
wifi_scan_table_array   0x100decdf      0x4  Code  Gb  wifi_scan.o [15]
wifi_security_valid     0x20035b40      0x1  Data  Lc  wifi_init.o [1]
wifi_set_notification_callback
                        0x100de6a5     0xa0  Code  Gb  wifi_scan.o [15]
wifi_set_opmode         0x100afa8b     0x6c  Code  Gb  wifi_lwip_helper.o [1]
wifi_set_opmode::__FUNCTION__
                        0x100afc44     0x10  Data  Lc  wifi_lwip_helper.o [1]
wifi_set_security_valid
                        0x100da521      0x6  Code  Gb  wifi_init.o [1]
wifi_set_sleep_handle   0x100da527      0x4  Code  Gb  wifi_init.o [1]
wifi_sleep_manager_get_lock_status
                        0x100da571      0x4  Code  Gb  wifi_init.o [1]
wifi_smart_connection_deinit
                        0x1010626f     0x5c  Code  Gb  smt_api.o [1]
wifi_smart_connection_get_result
                        0x10106545     0x6a  Code  Gb  smt_api.o [1]
wifi_smart_connection_init
                        0x101062cb    0x102  Code  Gb  smt_api.o [1]
wifi_smart_connection_init::__FUNCTION__
                        0x1010673c     0x1c  Data  Lc  smt_api.o [1]
wifi_smart_connection_start
                        0x101063cd    0x164  Code  Gb  smt_api.o [1]
wifi_smart_connection_start::__FUNCTION__
                        0x101067d4     0x1c  Data  Lc  smt_api.o [1]
wifi_smart_connection_stop
                        0x10106539      0xc  Code  Gb  smt_api.o [1]
wifi_station_disconnected_event_handler
                        0x100af89b     0x70  Code  Lc  wifi_lwip_helper.o [1]
wifi_station_disconnected_event_handler::__FUNCTION__
                        0x100afb9c     0x28  Data  Lc  wifi_lwip_helper.o [1]
wifi_station_port_secure_event_handler
                        0x100af857     0x44  Code  Lc  wifi_lwip_helper.o [1]
wifi_station_port_secure_event_handler::__FUNCTION__
                        0x100afb64     0x28  Data  Lc  wifi_lwip_helper.o [1]
wifi_take_channel_list_mutex
                        0x100df46d     0x30  Code  Gb  wifi_channel.o [1]
wifi_take_channel_list_mutex::__FUNCTION__
                        0x100df688     0x20  Data  Lc  wifi_channel.o [1]
wifi_tx_raw_pkt_ex      0x1010c771     0xf2  Code  Gb  wifi_cli.o [1]
wifi_unlock_sleep       0x100da535      0xa  Code  Gb  wifi_init.o [1]
wifi_unlock_sleep_all   0x100da53f     0x20  Code  Gb  wifi_init.o [1]
wifi_util_get_inf_number
                        0x100d70f9     0x12  Code  Gb  connsys_util.o [1]
wifi_wlan_evt_frame_handler
                        0x100de807     0x14  Code  Gb  wifi_scan.o [15]
wifi_wlan_evt_handler   0x100de8cb    0x414  Code  Gb  wifi_scan.o [15]
wifi_wlan_evt_n9_log_handler
                        0x100de7eb     0x1c  Code  Gb  wifi_scan.o [15]
wifi_wlan_evt_reason_code
                        0x100de7d1     0x1a  Code  Gb  wifi_scan.o [15]
wifi_wlan_probe_request_handler
                        0x100ded6f     0x1c  Code  Gb  wifi_scan.o [15]
wlan_raw_pkt_rx_filter_sample
                        0x1010c08d     0x94  Code  Gb  wifi_cli.o [1]
wnm_action_rx           0x100f3921     0x64  Code  Lc  events.o [12]
wpa_add_kde             0x101014cf     0x4e  Code  Gb  wpa_auth_ie.o [12]
wpa_alg_enum            0x100fcaa9     0x20  Code  Lc  wpa_auth.o [12]
wpa_alloc_eapol         0x100f11ab     0x5e  Code  Lc  wpas_glue.o [12]
wpa_auth_countermeasures_start
                        0x100fdb81      0xc  Code  Gb  wpa_auth.o [12]
wpa_auth_for_each_auth  0x100fb107     0x1a  Code  Gb  wpa_auth.o [12]
wpa_auth_for_each_sta   0x100fb0ed     0x1a  Code  Gb  wpa_auth.o [12]
wpa_auth_gen_wpa_ie     0x10101461     0x6e  Code  Gb  wpa_auth_ie.o [12]
wpa_auth_get_eapol      0x100fb04f     0x1c  Code  Lc  wpa_auth.o [12]
wpa_auth_get_msk        0x100fb085     0x16  Code  Lc  wpa_auth.o [12]
wpa_auth_get_psk        0x100fb06b     0x1a  Code  Lc  wpa_auth.o [12]
wpa_auth_get_seqnum     0x100fb0bd     0x16  Code  Lc  wpa_auth.o [12]
wpa_auth_get_wpa_ie     0x100fdbed     0x12  Code  Gb  wpa_auth.o [12]
wpa_auth_iface_iter     0x100faa3d     0x32  Code  Lc  wpa_auth_glue.o [12]
wpa_auth_logger         0x100fb121     0x10  Code  Gb  wpa_auth.o [12]
wpa_auth_mic_failure_report
                        0x100fb031      0xe  Code  Lc  wpa_auth.o [12]
wpa_auth_okc_iter       0x1010151d     0x20  Code  Lc  wpa_auth_ie.o [12]
wpa_auth_pairwise_set   0x100fdb8d     0x16  Code  Gb  wpa_auth.o [12]
wpa_auth_pmksa_add      0x100fdbff     0x4c  Code  Gb  wpa_auth.o [12]
wpa_auth_pmksa_clear_cb
                        0x100fb33d     0x12  Code  Lc  wpa_auth.o [12]
wpa_auth_pmksa_free_cb  0x100fb34f      0xc  Code  Lc  wpa_auth.o [12]
wpa_auth_send_eapol     0x100fb0d3     0x1a  Code  Lc  wpa_auth.o [12]
wpa_auth_set_eapol      0x100fb03f     0x10  Code  Lc  wpa_auth.o [12]
wpa_auth_set_key        0x100fb09b     0x22  Code  Lc  wpa_auth.o [12]
wpa_auth_sm_event       0x100fc9e3     0xae  Code  Gb  wpa_auth.o [12]
wpa_auth_sm_notify      0x100fdb31     0x1a  Code  Gb  wpa_auth.o [12]
wpa_auth_sta_associated
                        0x100fb6c9     0x80  Code  Gb  wpa_auth.o [12]
wpa_auth_sta_clear_pmksa
                        0x100fdbb3     0x1c  Code  Gb  wpa_auth.o [12]
wpa_auth_sta_deinit     0x100fb795     0x8a  Code  Gb  wpa_auth.o [12]
wpa_auth_sta_get_pmksa  0x100fdbcf      0xe  Code  Gb  wpa_auth.o [12]
wpa_auth_sta_init       0x100fb69d     0x2c  Code  Gb  wpa_auth.o [12]
wpa_auth_sta_key_mgmt   0x100fdba3     0x10  Code  Gb  wpa_auth.o [12]
wpa_auth_sta_local_mic_failure_report
                        0x100fdbdd     0x10  Code  Gb  wpa_auth.o [12]
wpa_auth_vlogger        0x100fb131     0x4c  Code  Gb  wpa_auth.o [12]
wpa_blacklist_add       0x100ebd03     0x42  Code  Gb  blacklist.o [12]
wpa_blacklist_clear     0x100ebd87     0x1c  Code  Gb  blacklist.o [12]
wpa_blacklist_del       0x100ebd45     0x42  Code  Gb  blacklist.o [12]
wpa_blacklist_get       0x100ebcdd     0x26  Code  Gb  blacklist.o [12]
wpa_bss_add             0x100e7147     0xe6  Code  Lc  bss.o [12]
wpa_bss_compare_res     0x100e7345     0xb2  Code  Lc  bss.o [12]
wpa_bss_copy_res        0x100e7033     0x80  Code  Lc  bss.o [12]
wpa_bss_deinit          0x100e7821     0x16  Code  Gb  bss.o [12]
wpa_bss_flush           0x100e77ef     0x32  Code  Gb  bss.o [12]
wpa_bss_flush_by_age    0x100e7713     0x6c  Code  Gb  bss.o [12]
wpa_bss_get             0x100e6fe3     0x50  Code  Gb  bss.o [12]
wpa_bss_get_bssid       0x100e7851     0x2e  Code  Gb  bss.o [12]
wpa_bss_get_ie          0x100e787f     0x30  Code  Gb  bss.o [12]
wpa_bss_get_vendor_ie   0x100e78af     0x4c  Code  Gb  bss.o [12]
wpa_bss_get_vendor_ie_multi
                        0x100e78fb     0x78  Code  Gb  bss.o [12]
wpa_bss_in_use          0x100e751f     0x3a  Code  Lc  bss.o [12]
wpa_bss_included_in_scan
                        0x100e7623     0x7c  Code  Lc  bss.o [12]
wpa_bss_init            0x100e77c5     0x2a  Code  Gb  bss.o [12]
wpa_bss_known           0x100e70b3     0x38  Code  Lc  bss.o [12]
wpa_bss_remove          0x100e6f81     0x62  Code  Lc  bss.o [12]
wpa_bss_remove_oldest   0x100e711d     0x2a  Code  Lc  bss.o [12]
wpa_bss_remove_oldest_unknown
                        0x100e70eb     0x32  Code  Lc  bss.o [12]
wpa_bss_timeout         0x100e777f     0x46  Code  Gb  bss.o [12]
wpa_bss_update          0x100e7471     0xae  Code  Lc  bss.o [12]
wpa_bss_update_end      0x100e769f     0x74  Code  Gb  bss.o [12]
wpa_bss_update_scan_res
                        0x100e756d     0xb6  Code  Gb  bss.o [12]
wpa_bss_update_start    0x100e7559     0x14  Code  Gb  bss.o [12]
wpa_cipher_txt          0x100f9563     0x44  Code  Gb  wpa_common.o [12]
wpa_clear_keys          0x100e3155     0xb4  Code  Gb  wpa_supplicant.o [12]
wpa_compare_rsn_ie      0x100f95a7     0x26  Code  Gb  wpa_common.o [12]
wpa_config_add_prio_network
                        0x100efe4d     0x78  Code  Gb  config.o [12]
wpa_config_alloc_empty  0x100f0163     0x68  Code  Gb  config.o [12]
wpa_config_alloc_new_conf
                        0x100f0761     0xb0  Code  Gb  config_nvram.o [12]
wpa_config_debug_dump_networks
                        0x100f01cb     0x64  Code  Gb  config.o [12]
wpa_config_free         0x100eff51     0xaa  Code  Gb  config.o [12]
wpa_config_free_blob    0x100f0109     0x1e  Code  Gb  config.o [12]
wpa_config_free_ssid    0x100eff11     0x40  Code  Gb  config.o [12]
wpa_config_get_blob     0x100f00d3     0x22  Code  Gb  config.o [12]
wpa_config_read         0x100f0673     0xbe  Code  Gb  config_nvram.o [12]
wpa_config_remove_blob  0x100f0127     0x3c  Code  Gb  config.o [12]
wpa_config_set_auth     0x100f02a5     0x5c  Code  Gb  config_nvram.o [12]
wpa_config_set_blob     0x100f00f5     0x14  Code  Gb  config.o [12]
wpa_config_set_encr     0x100f0301     0x52  Code  Gb  config_nvram.o [12]
wpa_config_set_prio_bssid
                        0x100efec5     0x4c  Code  Gb  config.o [12]
wpa_config_set_wpapsk   0x100f0353     0x38  Code  Gb  config_nvram.o [12]
wpa_config_update_psk   0x100efffb     0xd8  Code  Gb  config.o [12]
wpa_config_write        0x100f0749     0x18  Code  Gb  config_nvram.o [12]
wpa_convert_user_wep_key
                        0x100f041d     0x48  Code  Lc  config_nvram.o [12]
wpa_debug_close_file    0x100eb9d3      0x2  Code  Gb  wpa_debug.o [12]
wpa_debug_close_syslog  0x100e2a03      0x2  Code  Lc  wpa_supplicant.o [12]
wpa_debug_level         0x200021c4      0x4  Data  Gb  wpa_debug.o [12]
wpa_debug_print_timestamp
                        0x100eb851     0x22  Code  Gb  wpa_debug.o [12]
wpa_debug_show_keys     0x200355c4      0x4  Data  Gb  wpa_debug.o [12]
wpa_debug_timestamp     0x200355c8      0x4  Data  Gb  wpa_debug.o [12]
wpa_deinit              0x100fb639     0x46  Code  Gb  wpa_auth.o [12]
wpa_derive_ptk          0x100ec7dd     0x4e  Code  Lc  wpa.o [12]
wpa_derive_ptk          0x100fce55     0x50  Code  Lc  wpa_auth.o [12]
wpa_driver_inband_apcli_connect
                        0x100eb5c1      0x2  Code  Gb  driver_inband.o [12]
wpa_driver_inband_associate
                        0x100eb141    0x138  Code  Lc  driver_inband.o [12]
wpa_driver_inband_cancel_remain_on_channel
                        0x100eb2cd      0x4  Code  Lc  driver_inband.o [12]
wpa_driver_inband_connect
                        0x100eafdd    0x100  Code  Lc  driver_inband.o [12]
wpa_driver_inband_deauthenticate
                        0x100eb2a9      0xa  Code  Lc  driver_inband.o [12]
wpa_driver_inband_deinit
                        0x100eae71     0x2a  Code  Lc  driver_inband.o [12]
wpa_driver_inband_deinit_ap
                        0x100eae9b      0x4  Code  Lc  driver_inband.o [12]
wpa_driver_inband_del_beacon
                        0x100eae6d      0x4  Code  Lc  driver_inband.o [12]
wpa_driver_inband_disassociate
                        0x100eb2b3      0xa  Code  Lc  driver_inband.o [12]
wpa_driver_inband_disconnect
                        0x100eb27d     0x20  Code  Lc  driver_inband.o [12]
wpa_driver_inband_driver_cmd
                        0x100eb487     0x96  Code  Lc  driver_inband.o [12]
wpa_driver_inband_get_bssid
                        0x100eaa3b     0x44  Code  Lc  driver_inband.o [12]
wpa_driver_inband_get_mac_addr
                        0x100eaa7f      0x4  Code  Lc  driver_inband.o [12]
wpa_driver_inband_get_scan_results
                        0x100ea6d7    0x14a  Code  Lc  driver_inband.o [12]
wpa_driver_inband_get_sock_recv
                        0x100eb39f      0x6  Code  Gb  driver_inband.o [12]
wpa_driver_inband_get_ssid
                        0x100ea9e5     0x56  Code  Lc  driver_inband.o [12]
wpa_driver_inband_handle_beacon
                        0x100eb3a5     0x7a  Code  Gb  driver_inband.o [12]
wpa_driver_inband_handle_wow
                        0x100eb51d     0xa4  Code  Gb  driver_inband.o [12]
wpa_driver_inband_hapd_send_eapol
                        0x100eb2f7     0x80  Code  Lc  driver_inband.o [12]
wpa_driver_inband_if_add
                        0x100eb2df      0xa  Code  Lc  driver_inband.o [12]
wpa_driver_inband_ops   0x100980dc    0x1c0  Data  Gb  driver_inband.o [12]
wpa_driver_inband_password_error
                        0x100eb5c3     0x3a  Code  Gb  driver_inband.o [12]
wpa_driver_inband_raw_receive
                        0x100eaa83     0x4c  Code  Lc  driver_inband.o [12]
wpa_driver_inband_remain_on_channel
                        0x100eb2c9      0x4  Code  Lc  driver_inband.o [12]
wpa_driver_inband_scan  0x100eaf35     0xa0  Code  Lc  driver_inband.o [12]
wpa_driver_inband_scan_timeout
                        0x100ea821     0x2a  Code  Lc  driver_inband.o [12]
wpa_driver_inband_send_action
                        0x100eb38b      0x4  Code  Lc  driver_inband.o [12]
wpa_driver_inband_send_action_cancel_wait
                        0x100eb39d      0x2  Code  Lc  driver_inband.o [12]
wpa_driver_inband_send_frame
                        0x100eb2ed      0xa  Code  Lc  driver_inband.o [12]
wpa_driver_inband_send_mlme
                        0x100eb387      0x4  Code  Lc  driver_inband.o [12]
wpa_driver_inband_set_ap
                        0x100eae69      0x4  Code  Lc  driver_inband.o [12]
wpa_driver_inband_set_key
                        0x100eacbf    0x13a  Code  Lc  driver_inband.o [12]
wpa_driver_inband_set_ps_mode
                        0x100eb41f     0x2c  Code  Gb  driver_inband.o [12]
wpa_driver_inband_set_ptk_kck_kek
                        0x100eadf9     0x70  Code  Lc  driver_inband.o [12]
wpa_driver_inband_set_supp_port
                        0x100eaea7      0x4  Code  Lc  driver_inband.o [12]
wpa_driver_inband_set_wep_key
                        0x100eac29     0x96  Code  Gb  driver_inband.o [12]
wpa_driver_inband_sta_add
                        0x100eae9f      0x4  Code  Lc  driver_inband.o [12]
wpa_driver_inband_sta_deauth
                        0x100eaeaf     0x82  Code  Lc  driver_inband.o [12]
wpa_driver_inband_sta_disassoc
                        0x100eaf31      0x4  Code  Lc  driver_inband.o [12]
wpa_driver_inband_sta_remove
                        0x100eaeab      0x4  Code  Lc  driver_inband.o [12]
wpa_driver_inband_sta_set_flags
                        0x100eaea3      0x4  Code  Lc  driver_inband.o [12]
wpa_driver_none_ops     0x10098bd8    0x1c0  Data  Gb  driver_none.o [12]
wpa_drivers             0x200022ac      0xc  Data  Gb  drivers.o [12]
wpa_drv_add_pmkid       0x100f1119     0x1c  Code  Lc  wpas_glue.o [12]
wpa_drv_associate       0x100e2acd     0x14  Code  Lc  wpa_supplicant.o [12]
wpa_drv_associate       0x100e5ff7     0x14  Code  Lc  ap.o [12]
wpa_drv_deauthenticate  0x100e2b63     0x1c  Code  Lc  wpa_supplicant.o [12]
wpa_drv_deinit          0x100e2a97     0x10  Code  Lc  wpa_supplicant.o [12]
wpa_drv_deinit_ap       0x100e6023     0x14  Code  Lc  ap.o [12]
wpa_drv_disassociate    0x100e2b7f     0x1c  Code  Lc  wpa_supplicant.o [12]
wpa_drv_flush_pmkid     0x100e2b9b     0x14  Code  Lc  wpa_supplicant.o [12]
wpa_drv_get_bssid       0x100e2ae1     0x14  Code  Lc  wpa_supplicant.o [12]
wpa_drv_get_bssid       0x100f1661     0x14  Code  Lc  events.o [12]
wpa_drv_get_bssid       0x100f10ab     0x14  Code  Lc  wpas_glue.o [12]
wpa_drv_get_capa        0x100e2baf     0x14  Code  Lc  wpa_supplicant.o [12]
wpa_drv_get_capa        0x100f168d     0x14  Code  Lc  events.o [12]
wpa_drv_get_hw_feature_data
                        0x100e2c1f     0x1a  Code  Lc  wpa_supplicant.o [12]
wpa_drv_get_ifname      0x100e2bd3     0x12  Code  Lc  wpa_supplicant.o [12]
wpa_drv_get_mac_addr    0x100e2be5     0x12  Code  Lc  wpa_supplicant.o [12]
wpa_drv_get_scan_results2
                        0x100e7c15     0x12  Code  Lc  scan.o [12]
wpa_drv_get_socket      0x100e1e61     0x12  Code  Lc  wpa_supplicant_entry.o [12]
wpa_drv_get_ssid        0x100e2af5     0x14  Code  Lc  wpa_supplicant.o [12]
wpa_drv_inband_cmd      0x100e1e49     0x18  Code  Lc  wpa_supplicant_entry.o [12]
wpa_drv_inband_cmd      0x100e2b4b     0x18  Code  Lc  wpa_supplicant.o [12]
wpa_drv_inband_cmd      0x100e600b     0x18  Code  Lc  ap.o [12]
wpa_drv_inband_cmd      0x100f1675     0x18  Code  Lc  events.o [12]
wpa_drv_inband_cmd      0x100f1101     0x18  Code  Lc  wpas_glue.o [12]
wpa_drv_init            0x100e2a71     0x26  Code  Lc  wpa_supplicant.o [12]
wpa_drv_mlme_setprotection
                        0x100e2c09     0x16  Code  Lc  wpa_supplicant.o [12]
wpa_drv_mlme_setprotection
                        0x100f116d     0x16  Code  Lc  wpas_glue.o [12]
wpa_drv_poll            0x100e2bc3     0x10  Code  Lc  wpa_supplicant.o [12]
wpa_drv_remove_pmkid    0x100f1135     0x1c  Code  Lc  wpas_glue.o [12]
wpa_drv_scan            0x100e7be1     0x16  Code  Lc  scan.o [12]
wpa_drv_sched_scan      0x100e7bf7     0x1e  Code  Lc  scan.o [12]
wpa_drv_send_eapol      0x100f1151     0x1c  Code  Lc  wpas_glue.o [12]
wpa_drv_set_countermeasures
                        0x100e2ab9     0x14  Code  Lc  wpa_supplicant.o [12]
wpa_drv_set_countermeasures
                        0x100f164d     0x14  Code  Lc  events.o [12]
wpa_drv_set_country     0x100e2c39     0x12  Code  Lc  wpa_supplicant.o [12]
wpa_drv_set_key         0x100e2b09     0x42  Code  Lc  wpa_supplicant.o [12]
wpa_drv_set_key         0x100f10bf     0x42  Code  Lc  wpas_glue.o [12]
wpa_drv_set_operstate   0x100e2bf7     0x12  Code  Lc  wpa_supplicant.o [12]
wpa_drv_set_param       0x100e2aa7     0x12  Code  Lc  wpa_supplicant.o [12]
wpa_drv_set_supp_port   0x100e2c4b     0x14  Code  Lc  wpa_supplicant.o [12]
wpa_eapol_key_dump      0x100ee77d    0x15a  Code  Lc  wpa.o [12]
wpa_eapol_key_mic       0x100f9011     0x7c  Code  Gb  wpa_common.o [12]
wpa_eapol_key_send      0x100ebef7     0xfa  Code  Gb  wpa.o [12]
wpa_ether_send          0x100f1209     0x1a  Code  Lc  wpas_glue.o [12]
wpa_find_assoc_pmkid    0x100f195f     0x5e  Code  Lc  events.o [12]
wpa_free_sta_sm         0x100fb761     0x34  Code  Lc  wpa_auth.o [12]
wpa_ft_is_completed     0x100f1649      0x4  Code  Lc  events.o [12]
wpa_gen_wpa_ie          0x100f0b03     0x2e  Code  Gb  wpa_ie.o [12]
wpa_gen_wpa_ie_rsn      0x100f09cb    0x138  Code  Lc  wpa_ie.o [12]
wpa_gen_wpa_ie_wpa      0x100f08a7    0x124  Code  Lc  wpa_ie.o [12]
wpa_get_beacon_ie       0x100f1223     0xb8  Code  Lc  wpas_glue.o [12]
wpa_get_ntp_timestamp   0x100f0ff1     0x66  Code  Gb  common.o [12]
wpa_get_setting_from_profile
                        0x100f0503    0x170  Code  Gb  config_nvram.o [12]
wpa_get_user_ssid       0x100f03df     0x3e  Code  Lc  config_nvram.o [12]
wpa_get_user_wep_key    0x100f0465     0x5e  Code  Lc  config_nvram.o [12]
wpa_get_user_wpa_psk_key
                        0x100f04c3     0x40  Code  Lc  config_nvram.o [12]
wpa_gmk_to_gtk          0x100fc07d     0x62  Code  Lc  wpa_auth.o [12]
wpa_group_config_group_keys
                        0x100fd9c5     0x3c  Code  Lc  wpa_auth.o [12]
wpa_group_ensure_init   0x100fcc05     0x36  Code  Lc  wpa_auth.o [12]
wpa_group_gtk_init      0x100fd8fb     0x32  Code  Lc  wpa_auth.o [12]
wpa_group_init          0x100fb439     0x7e  Code  Lc  wpa_auth.o [12]
wpa_group_init_gmk_and_counter
                        0x100fb383     0x9a  Code  Lc  wpa_auth.o [12]
wpa_group_set_key_len   0x100fb35b     0x28  Code  Lc  wpa_auth.o [12]
wpa_group_setkeys       0x100fd97f     0x3e  Code  Lc  wpa_auth.o [12]
wpa_group_setkeysdone   0x100fda01     0x20  Code  Lc  wpa_auth.o [12]
wpa_group_sm_step       0x100fda21     0x48  Code  Lc  wpa_auth.o [12]
wpa_group_update_sta    0x100fd92d     0x52  Code  Lc  wpa_auth.o [12]
wpa_gtk_rekey           0x100fdb51     0x2c  Code  Gb  wpa_auth.o [12]
wpa_gtk_update          0x100fd897     0x64  Code  Lc  wpa_auth.o [12]
wpa_hexdump             0x100eb8cf      0xe  Code  Gb  wpa_debug.o [12]
wpa_hexdump_ascii       0x100eb9b5      0xe  Code  Gb  wpa_debug.o [12]
wpa_hexdump_ascii_key   0x100eb9c3     0x10  Code  Gb  wpa_debug.o [12]
wpa_hexdump_key         0x100eb8dd     0x10  Code  Gb  wpa_debug.o [12]
wpa_init                0x100fb501     0xea  Code  Gb  wpa_auth.o [12]
wpa_init_keys           0x100fb61d     0x1c  Code  Gb  wpa_auth.o [12]
wpa_key_mgmt_ft         0x100ebddf      0xe  Code  Lc  wpa.o [12]
wpa_key_mgmt_ft         0x100fb015      0xe  Code  Lc  wpa_auth.o [12]
wpa_key_mgmt_sha256     0x100ebded      0xe  Code  Lc  wpa.o [12]
wpa_key_mgmt_sha256     0x100fb023      0xe  Code  Lc  wpa_auth.o [12]
wpa_key_mgmt_sha256     0x101003d9      0xe  Code  Lc  pmksa_cache_auth.o [12]
wpa_key_mgmt_to_bitfield
                        0x100f938d     0x36  Code  Lc  wpa_common.o [12]
wpa_key_mgmt_wpa        0x100e2a21     0x20  Code  Lc  wpa_supplicant.o [12]
wpa_key_mgmt_wpa        0x100f1609     0x20  Code  Lc  events.o [12]
wpa_key_mgmt_wpa_any    0x100e2a41     0x18  Code  Lc  wpa_supplicant.o [12]
wpa_key_mgmt_wpa_any    0x100f1629     0x18  Code  Lc  events.o [12]
wpa_key_mgmt_wpa_ieee8021x
                        0x100e2a05      0xe  Code  Lc  wpa_supplicant.o [12]
wpa_key_mgmt_wpa_ieee8021x
                        0x100ebdc3      0xe  Code  Lc  wpa.o [12]
wpa_key_mgmt_wpa_ieee8021x
                        0x100f15ed      0xe  Code  Lc  events.o [12]
wpa_key_mgmt_wpa_ieee8021x
                        0x100faff9      0xe  Code  Lc  wpa_auth.o [12]
wpa_key_mgmt_wpa_psk    0x100e2a13      0xe  Code  Lc  wpa_supplicant.o [12]
wpa_key_mgmt_wpa_psk    0x100e5fe9      0xe  Code  Lc  ap.o [12]
wpa_key_mgmt_wpa_psk    0x100ebdd1      0xe  Code  Lc  wpa.o [12]
wpa_key_mgmt_wpa_psk    0x100f15fb      0xe  Code  Lc  events.o [12]
wpa_key_mgmt_wpa_psk    0x100f6315      0xe  Code  Lc  ieee802_1x.o [12]
wpa_key_mgmt_wpa_psk    0x100fb007      0xe  Code  Lc  wpa_auth.o [12]
wpa_msg                 0x100eb9db     0xac  Code  Gb  wpa_debug.o [12]
wpa_msg_buf             0x0010258c    0x800  Data  Lc  wpa_debug.o [12]
wpa_msg_cb              0x200021c8      0x4  Data  Lc  wpa_debug.o [12]
wpa_msg_ctrl            0x100eba87     0x68  Code  Gb  wpa_debug.o [12]
wpa_msg_ifname_cb       0x200021cc      0x4  Data  Lc  wpa_debug.o [12]
wpa_msg_register_ifname_cb
                        0x100eb9d5      0x6  Code  Gb  wpa_debug.o [12]
wpa_parse_generic       0x100f0b31    0x108  Code  Lc  wpa_ie.o [12]
wpa_parse_generic       0x10101851     0xcc  Code  Lc  wpa_auth_ie.o [12]
wpa_parse_kde_ies       0x1010194d     0xac  Code  Gb  wpa_auth_ie.o [12]
wpa_parse_wpa_ie        0x100f0895     0x12  Code  Gb  wpa_ie.o [12]
wpa_parse_wpa_ie_rsn    0x100f91f7    0x14c  Code  Gb  wpa_common.o [12]
wpa_parse_wpa_ie_wpa    0x100f93c3    0x13e  Code  Gb  wpa_common.o [12]
wpa_pmk_to_ptk          0x100f908d     0xea  Code  Gb  wpa_common.o [12]
wpa_receive             0x100fba21    0x5c6  Code  Gb  wpa_auth.o [12]
wpa_receive_error_report
                        0x100fb8d7     0x72  Code  Lc  wpa_auth.o [12]
wpa_rekey_gmk           0x100fb229     0x68  Code  Lc  wpa_auth.o [12]
wpa_rekey_gtk           0x100fb2ad     0x4a  Code  Lc  wpa_auth.o [12]
wpa_rekey_ptk           0x100fb309     0x22  Code  Lc  wpa_auth.o [12]
wpa_remove_ptk          0x100fc99f     0x44  Code  Gb  wpa_auth.o [12]
wpa_replay_counter_mark_invalid
                        0x100fb8a3     0x34  Code  Lc  wpa_auth.o [12]
wpa_replay_counter_valid
                        0x100fb873     0x30  Code  Lc  wpa_auth.o [12]
wpa_report_ie_mismatch  0x100ed2f5     0xba  Code  Lc  wpa.o [12]
wpa_request_new_ptk     0x100fb861     0x12  Code  Lc  wpa_auth.o [12]
wpa_scan_get_ie         0x100e87c3     0x30  Code  Gb  scan.o [12]
wpa_scan_get_max_rate   0x100e876f     0x54  Code  Lc  scan.o [12]
wpa_scan_get_vendor_ie  0x100e87f3     0x4c  Code  Gb  scan.o [12]
wpa_scan_get_vendor_ie_multi
                        0x100e883f     0x78  Code  Gb  scan.o [12]
wpa_scan_res_match      0x100f215d    0x302  Code  Lc  events.o [12]
wpa_scan_result_compar  0x100e88b7    0x128  Code  Lc  scan.o [12]
wpa_scan_results_free   0x100f7b8d     0x2c  Code  Gb  driver_common.o [12]
wpa_selector_to_bitfield
                        0x100f9343     0x4a  Code  Lc  wpa_common.o [12]
wpa_send_eapol          0x100fc891     0x8e  Code  Lc  wpa_auth.o [12]
wpa_send_eapol_timeout  0x100fc0e1     0x28  Code  Lc  wpa_auth.o [12]
wpa_set_wep_keys        0x100e2c8d     0x54  Code  Gb  wpa_supplicant.o [12]
wpa_sm_alloc_eapol      0x100ebeb1     0x16  Code  Lc  wpa.o [12]
wpa_sm_call_step        0x100fdb2f      0x2  Code  Lc  wpa_auth.o [12]
wpa_sm_cancel_auth_timeout
                        0x100ebea7      0xa  Code  Lc  wpa.o [12]
wpa_sm_deauthenticate   0x100ebe3b      0xa  Code  Lc  wpa.o [12]
wpa_sm_deinit           0x100eec6f     0x52  Code  Gb  wpa.o [12]
wpa_sm_disassociate     0x100ebe45      0xa  Code  Lc  wpa.o [12]
wpa_sm_ether_send       0x100ebe89     0x14  Code  Lc  wpa.o [12]
wpa_sm_get_beacon_ie    0x100ebe9d      0xa  Code  Lc  wpa.o [12]
wpa_sm_get_bssid        0x100ebe7f      0xa  Code  Lc  wpa.o [12]
wpa_sm_get_network_ctx  0x100ebe75      0xa  Code  Lc  wpa.o [12]
wpa_sm_get_state        0x100ebe31      0xa  Code  Lc  wpa.o [12]
wpa_sm_init             0x100eec0b     0x64  Code  Gb  wpa.o [12]
wpa_sm_key_request      0x100ec0ed    0x136  Code  Gb  wpa.o [12]
wpa_sm_mlme_setprotection
                        0x100ebec7      0xe  Code  Lc  wpa.o [12]
wpa_sm_notify_assoc     0x100eeccd     0x6c  Code  Gb  wpa.o [12]
wpa_sm_notify_connect   0x100eed39     0x3c  Code  Gb  wpa.o [12]
wpa_sm_notify_disassoc  0x100eed75     0x26  Code  Gb  wpa.o [12]
wpa_sm_parse_own_wpa_ie
                        0x100ef06f     0x44  Code  Gb  wpa.o [12]
wpa_sm_pmksa_cache_flush
                        0x100ef0bb      0x8  Code  Gb  wpa.o [12]
wpa_sm_pmksa_free_cb    0x100eebb7     0x54  Code  Lc  wpa.o [12]
wpa_sm_rekey_ptk        0x100ecc75     0x22  Code  Lc  wpa.o [12]
wpa_sm_rx_eapol         0x100ee8dd    0x2da  Code  Gb  wpa.o [12]
wpa_sm_set_ap_rsn_ie    0x100ef00b     0x64  Code  Gb  wpa.o [12]
wpa_sm_set_ap_wpa_ie    0x100eefa7     0x64  Code  Gb  wpa.o [12]
wpa_sm_set_assoc_wpa_ie
                        0x100eef43     0x64  Code  Gb  wpa.o [12]
wpa_sm_set_assoc_wpa_ie_default
                        0x100eeef1     0x52  Code  Gb  wpa.o [12]
wpa_sm_set_config       0x100eede3     0x5c  Code  Gb  wpa.o [12]
wpa_sm_set_eapol        0x100eee5d      0xa  Code  Gb  wpa.o [12]
wpa_sm_set_fast_reauth  0x100eedcf      0xa  Code  Gb  wpa.o [12]
wpa_sm_set_ifname       0x100eee4f      0xe  Code  Gb  wpa.o [12]
wpa_sm_set_key          0x100ebe4f     0x26  Code  Lc  wpa.o [12]
wpa_sm_set_own_addr     0x100eee3f     0x10  Code  Gb  wpa.o [12]
wpa_sm_set_param        0x100eee69     0x88  Code  Gb  wpa.o [12]
wpa_sm_set_pmk          0x100eed9b      0xc  Code  Gb  wpa.o [12]
wpa_sm_set_pmk_from_pmksa
                        0x100eeda7     0x28  Code  Gb  wpa.o [12]
wpa_sm_set_rekey_offload
                        0x100ebed5     0x1e  Code  Lc  wpa.o [12]
wpa_sm_set_scard_ctx    0x100eedd9      0xa  Code  Gb  wpa.o [12]
wpa_sm_set_state        0x100ebe27      0xa  Code  Lc  wpa.o [12]
wpa_sm_start_preauth    0x100ecb11      0x4  Code  Lc  wpa.o [12]
wpa_sm_step             0x100fda69     0xc6  Code  Lc  wpa_auth.o [12]
wpa_sm_update_replay_ctr
                        0x100ef0b3      0x8  Code  Gb  wpa.o [12]
wpa_ssid_txt            0x100f1057     0x2a  Code  Gb  common.o [12]
wpa_sta_disconnect      0x100fb17d     0x5c  Code  Lc  wpa_auth.o [12]
wpa_store_wep_key       0x100f038b     0x54  Code  Lc  config_nvram.o [12]
wpa_supplicant_add_iface
                        0x100e5951     0x78  Code  Gb  wpa_supplicant.o [12]
wpa_supplicant_add_pmkid
                        0x100f1405      0x2  Code  Lc  wpas_glue.o [12]
wpa_supplicant_alloc    0x100e5079     0x30  Code  Lc  wpa_supplicant.o [12]
wpa_supplicant_ap_deinit
                        0x100e6701     0x3c  Code  Gb  ap.o [12]
wpa_supplicant_ap_rx_eapol
                        0x100e6749      0xc  Code  Gb  ap.o [12]
wpa_supplicant_assoc_try
                        0x100e7d0d     0x56  Code  Lc  scan.o [12]
wpa_supplicant_assoc_update_ie
                        0x100f325f     0x6c  Code  Lc  events.o [12]
wpa_supplicant_associate
                        0x100e41e9    0x4b4  Code  Gb  wpa_supplicant.o [12]
wpa_supplicant_build_filter_ssids
                        0x100e7f3b     0x7c  Code  Lc  scan.o [12]
wpa_supplicant_cancel_auth_timeout
                        0x100e2f3d     0x28  Code  Gb  wpa_supplicant.o [12]
wpa_supplicant_cancel_scan
                        0x100e870f     0x1e  Code  Gb  scan.o [12]
wpa_supplicant_cancel_sched_scan
                        0x100e872d     0x30  Code  Gb  scan.o [12]
wpa_supplicant_check_group_cipher
                        0x100ececd     0x9e  Code  Lc  wpa.o [12]
wpa_supplicant_check_group_cipher_from_ap
                        0x100e3aa5     0x22  Code  Lc  wpa_supplicant.o [12]
wpa_supplicant_check_pairwise_cipher_from_ap
                        0x100e3ac7     0x22  Code  Lc  wpa_supplicant.o [12]
wpa_supplicant_check_proto_from_ap
                        0x100e3a81     0x24  Code  Lc  wpa_supplicant.o [12]
wpa_supplicant_cleanup  0x100e3069     0xec  Code  Lc  wpa_supplicant.o [12]
wpa_supplicant_clear_connection
                        0x100e4831     0x48  Code  Lc  wpa_supplicant.o [12]
wpa_supplicant_clear_status
                        0x100e35c5     0x2e  Code  Gb  wpa_supplicant.o [12]
wpa_supplicant_conf_ap  0x100e6037    0x2e8  Code  Lc  ap.o [12]
wpa_supplicant_connect  0x100f2787    0x108  Code  Gb  events.o [12]
wpa_supplicant_create_ap
                        0x100e6351    0x37a  Code  Gb  ap.o [12]
wpa_supplicant_ctrl_iface_deinit
                        0x100e2c65      0x2  Code  Lc  wpa_supplicant.o [12]
wpa_supplicant_ctrl_iface_init
                        0x100e2c5f      0x6  Code  Lc  wpa_supplicant.o [12]
wpa_supplicant_ctrl_iface_wait
                        0x100e2c67      0x2  Code  Lc  wpa_supplicant.o [12]
wpa_supplicant_daemon   0x100e5075      0x4  Code  Lc  wpa_supplicant.o [12]
wpa_supplicant_dbus_notify_scanning
                        0x100efac3      0x2  Code  Lc  notify.o [12]
wpa_supplicant_deauthenticate
                        0x100e48a9     0x2c  Code  Gb  wpa_supplicant.o [12]
wpa_supplicant_decrypt_key_data
                        0x100ee5a5    0x168  Code  Lc  wpa.o [12]
wpa_supplicant_deinit   0x100e5c0f     0xbe  Code  Gb  wpa_supplicant.o [12]
wpa_supplicant_deinit_iface
                        0x100e58b9     0x7e  Code  Lc  wpa_supplicant.o [12]
wpa_supplicant_delayed_sched_scan
                        0x100e83bb     0x26  Code  Gb  scan.o [12]
wpa_supplicant_delayed_sched_scan_timeout
                        0x100e7eb1     0x26  Code  Lc  scan.o [12]
wpa_supplicant_disassociate
                        0x100e487d     0x2c  Code  Gb  wpa_supplicant.o [12]
wpa_supplicant_driver_init
                        0x100e4f05     0xd0  Code  Gb  wpa_supplicant.o [12]
wpa_supplicant_dynamic_keys
                        0x100f1ad5     0x14  Code  Lc  events.o [12]
wpa_supplicant_enabled_networks
                        0x100e7cf5     0x18  Code  Gb  scan.o [12]
wpa_supplicant_entry    0x100e2091    0x208  Code  Gb  wpa_supplicant_entry.o [12]
wpa_supplicant_entry_debug_level
                        0x100e1fff     0x2a  Code  Gb  wpa_supplicant_entry.o [12]
wpa_supplicant_entry_dual_iface
                        0x100e1ea5     0xea  Code  Gb  wpa_supplicant_entry.o [12]
wpa_supplicant_entry_iface_change
                        0x100e22c3    0x1ae  Code  Gb  wpa_supplicant_entry.o [12]
wpa_supplicant_entry_iface_remove
                        0x100e2299     0x2a  Code  Gb  wpa_supplicant_entry.o [12]
wpa_supplicant_entry_op_mode_get
                        0x100e2471      0xc  Code  Gb  wpa_supplicant_entry.o [12]
wpa_supplicant_entry_op_mode_set
                        0x100e247d    0x1a0  Code  Gb  wpa_supplicant_entry.o [12]
wpa_supplicant_event    0x100f3985    0x59a  Code  Gb  events.o [12]
wpa_supplicant_event_assoc
                        0x100f32cb    0x336  Code  Lc  events.o [12]
wpa_supplicant_event_associnfo
                        0x100f2fdd    0x1d0  Code  Lc  events.o [12]
wpa_supplicant_event_disassoc
                        0x100f3615    0x1c8  Code  Lc  events.o [12]
wpa_supplicant_event_interface_status
                        0x100f38a5     0x78  Code  Lc  events.o [12]
wpa_supplicant_event_michael_mic_failure
                        0x100f37dd     0xc8  Code  Lc  events.o [12]
wpa_supplicant_event_pmkid_candidate
                        0x100f19fd     0x56  Code  Lc  events.o [12]
wpa_supplicant_event_scan_results
                        0x100f2f15     0x74  Code  Lc  events.o [12]
wpa_supplicant_event_unprot_deauth
                        0x100f391d      0x2  Code  Lc  events.o [12]
wpa_supplicant_event_unprot_disassoc
                        0x100f391f      0x2  Code  Lc  events.o [12]
wpa_supplicant_extra_ies
                        0x100e7fb9      0x4  Code  Lc  scan.o [12]
wpa_supplicant_gen_assoc_event
                        0x100e7c27     0x64  Code  Lc  scan.o [12]
wpa_supplicant_get_beacon_ie
                        0x100f12db     0x28  Code  Lc  wpas_glue.o [12]
wpa_supplicant_get_bssid
                        0x100f1361      0x2  Code  Lc  wpas_glue.o [12]
wpa_supplicant_get_config_blob
                        0x100f11a3      0x8  Code  Lc  wpas_glue.o [12]
wpa_supplicant_get_iface
                        0x100e5a25     0x24  Code  Gb  wpa_supplicant.o [12]
wpa_supplicant_get_network_ctx
                        0x100f135d      0x4  Code  Lc  wpas_glue.o [12]
wpa_supplicant_get_new_bss
                        0x100f3231     0x2e  Code  Lc  events.o [12]
wpa_supplicant_get_pmk  0x100ec29d    0x206  Code  Lc  wpa.o [12]
wpa_supplicant_get_scan_results
                        0x100e89df     0x90  Code  Gb  scan.o [12]
wpa_supplicant_get_ssid
                        0x100e48d5     0xc2  Code  Gb  wpa_supplicant.o [12]
wpa_supplicant_get_state
                        0x100f1329      0x6  Code  Lc  wpas_glue.o [12]
wpa_supplicant_global_ctrl_iface_deinit
                        0x100e2c6d      0x2  Code  Lc  wpa_supplicant.o [12]
wpa_supplicant_global_ctrl_iface_init
                        0x100e2c69      0x4  Code  Lc  wpa_supplicant.o [12]
wpa_supplicant_gtk_tx_bit_workaround
                        0x100ed191     0x26  Code  Lc  wpa.o [12]
wpa_supplicant_init     0x100e5a55    0x178  Code  Gb  wpa_supplicant.o [12]
wpa_supplicant_init_eapol
                        0x100f1409      0x4  Code  Gb  wpas_glue.o [12]
wpa_supplicant_init_iface
                        0x100e50a9    0x440  Code  Lc  wpa_supplicant.o [12]
wpa_supplicant_init_wpa
                        0x100f140f     0xac  Code  Gb  wpas_glue.o [12]
wpa_supplicant_initiate_eapol
                        0x100e2f89      0x2  Code  Gb  wpa_supplicant.o [12]
wpa_supplicant_install_gtk
                        0x100ecfc5     0xf4  Code  Lc  wpa.o [12]
wpa_supplicant_install_ptk
                        0x100eccb5    0x11a  Code  Lc  wpa.o [12]
wpa_supplicant_key_neg_complete
                        0x100ecb15     0xc0  Code  Lc  wpa.o [12]
wpa_supplicant_mark_disassoc
                        0x100f18e5     0x7a  Code  Gb  events.o [12]
wpa_supplicant_match_privacy
                        0x100f1aed     0x48  Code  Lc  events.o [12]
wpa_supplicant_mlme_setprotection
                        0x100f1403      0x2  Code  Lc  wpas_glue.o [12]
wpa_supplicant_msg_ifname_cb
                        0x100e5a49      0xc  Code  Lc  wpa_supplicant.o [12]
wpa_supplicant_need_to_roam
                        0x100f2a11    0x172  Code  Lc  events.o [12]
wpa_supplicant_notify_scanning
                        0x100e875d     0x12  Code  Gb  scan.o [12]
wpa_supplicant_optimize_freqs
                        0x100e7fb7      0x2  Code  Lc  scan.o [12]
wpa_supplicant_pairwise_gtk
                        0x100ed1fd     0xae  Code  Lc  wpa.o [12]
wpa_supplicant_parse_ies
                        0x100f0c49    0x196  Code  Gb  wpa_ie.o [12]
wpa_supplicant_pick_network
                        0x100f26ad     0x7c  Code  Lc  events.o [12]
wpa_supplicant_pick_new_network
                        0x100f2991     0x3e  Code  Lc  events.o [12]
wpa_supplicant_process_1_of_2
                        0x100ee1f1    0x14e  Code  Lc  wpa.o [12]
wpa_supplicant_process_1_of_2_rsn
                        0x100edc61     0xfe  Code  Lc  wpa.o [12]
wpa_supplicant_process_1_of_2_wpa
                        0x100ede35    0x1aa  Code  Lc  wpa.o [12]
wpa_supplicant_process_1_of_4
                        0x100ec845    0x192  Code  Lc  wpa.o [12]
wpa_supplicant_process_3_of_4
                        0x100ed89d    0x234  Code  Lc  wpa.o [12]
wpa_supplicant_reload_configuration
                        0x100e35f3    0x1fa  Code  Gb  wpa_supplicant.o [12]
wpa_supplicant_remove_iface
                        0x100e59c9     0x5c  Code  Gb  wpa_supplicant.o [12]
wpa_supplicant_remove_pmkid
                        0x100f1407      0x2  Code  Lc  wpas_glue.o [12]
wpa_supplicant_req_auth_timeout
                        0x100e2ebd     0x4e  Code  Gb  wpa_supplicant.o [12]
wpa_supplicant_req_new_scan
                        0x100f2759     0x2e  Code  Lc  events.o [12]
wpa_supplicant_req_scan
                        0x100e82fd     0xbe  Code  Gb  scan.o [12]
wpa_supplicant_req_sched_scan
                        0x100e83e1    0x32e  Code  Gb  scan.o [12]
wpa_supplicant_rsn_preauth_scan_results
                        0x100f29cf     0x42  Code  Lc  events.o [12]
wpa_supplicant_rsn_supp_set_config
                        0x100f150d     0x44  Code  Gb  wpas_glue.o [12]
wpa_supplicant_run      0x100e5bd1     0x3e  Code  Gb  wpa_supplicant.o [12]
wpa_supplicant_rx_eapol
                        0x100e4b91    0x1b0  Code  Gb  wpa_supplicant.o [12]
wpa_supplicant_scan     0x100e7fbd    0x340  Code  Lc  scan.o [12]
wpa_supplicant_scard_init
                        0x100f1ae9      0x4  Code  Gb  events.o [12]
wpa_supplicant_sched_scan_timeout
                        0x100e7ed7     0x1e  Code  Lc  scan.o [12]
wpa_supplicant_select_bss
                        0x100f2605     0x72  Code  Lc  events.o [12]
wpa_supplicant_select_config
                        0x100f16d1     0xd8  Code  Lc  events.o [12]
wpa_supplicant_send_2_of_2
                        0x100ee101     0xd4  Code  Lc  wpa.o [12]
wpa_supplicant_send_2_of_4
                        0x100ec629    0x13c  Code  Gb  wpa.o [12]
wpa_supplicant_send_4_of_4
                        0x100ed761    0x106  Code  Gb  wpa.o [12]
wpa_supplicant_set_config_blob
                        0x100f1183     0x20  Code  Lc  wpas_glue.o [12]
wpa_supplicant_set_driver
                        0x100e4a8d     0xba  Code  Lc  wpa_supplicant.o [12]
wpa_supplicant_set_key  0x100f1363     0xa0  Code  Lc  wpas_glue.o [12]
wpa_supplicant_set_non_wpa_policy
                        0x100e2f8b     0xa2  Code  Gb  wpa_supplicant.o [12]
wpa_supplicant_set_rekey_offload
                        0x100f140d      0x2  Code  Lc  wpas_glue.o [12]
wpa_supplicant_set_state
                        0x100e3329    0x1f0  Code  Gb  wpa_supplicant.o [12]
wpa_supplicant_set_suites
                        0x100e3ae9    0x436  Code  Gb  wpa_supplicant.o [12]
wpa_supplicant_set_wpa_none_key
                        0x100e2ce1     0xb0  Code  Gb  wpa_supplicant.o [12]
wpa_supplicant_ssid_bss_match
                        0x100f1b35    0x222  Code  Lc  events.o [12]
wpa_supplicant_start_sched_scan
                        0x100e7ef5     0x36  Code  Lc  scan.o [12]
wpa_supplicant_state_txt
                        0x100e323d     0x54  Code  Gb  wpa_supplicant.o [12]
wpa_supplicant_stop_countermeasures
                        0x100f1889     0x36  Code  Gb  events.o [12]
wpa_supplicant_stop_sched_scan
                        0x100e7f2b     0x10  Code  Lc  scan.o [12]
wpa_supplicant_suites_from_ai
                        0x100e38b5     0x94  Code  Lc  wpa_supplicant.o [12]
wpa_supplicant_task     0x100e17d1     0x38  Code  Lc  wpa_supplicant_task.o [12]
wpa_supplicant_task_init
                        0x100e1809     0x70  Code  Gb  wpa_supplicant_task.o [12]
wpa_supplicant_timeout  0x100e2e15     0x68  Code  Lc  wpa_supplicant.o [12]
wpa_supplicant_trigger_scan
                        0x100e7e73     0x3e  Code  Gb  scan.o [12]
wpa_supplicant_update_config
                        0x100e5ccd     0x6e  Code  Gb  wpa_supplicant.o [12]
wpa_supplicant_update_mac_addr
                        0x100e4e25     0xb0  Code  Gb  wpa_supplicant.o [12]
wpa_supplicant_update_scan_results
                        0x100e8a91     0x1c  Code  Gb  scan.o [12]
wpa_supplicant_validate_ie
                        0x100ed495    0x132  Code  Lc  wpa.o [12]
wpa_supplicant_verify_eapol_key_mic
                        0x100ee3e5    0x11c  Code  Lc  wpa.o [12]
wpa_use_aes_cmac        0x100fb225      0x4  Code  Lc  wpa_auth.o [12]
wpa_validate_wpa_ie     0x1010153d    0x314  Code  Gb  wpa_auth_ie.o [12]
wpa_verify_key_mic      0x100fc91f     0x80  Code  Lc  wpa_auth.o [12]
wpa_write_rsn_ie        0x101012cf    0x192  Code  Gb  wpa_auth_ie.o [12]
wpa_write_wpa_ie        0x10101175    0x15a  Code  Lc  wpa_auth_ie.o [12]
wpabuf_alloc            0x100efc81     0x3e  Code  Gb  wpabuf.o [12]
wpabuf_alloc_copy       0x100efcbf     0x1c  Code  Gb  wpabuf.o [12]
wpabuf_dup              0x100efcdb     0x2c  Code  Gb  wpabuf.o [12]
wpabuf_free             0x100efd07     0x18  Code  Gb  wpabuf.o [12]
wpabuf_head             0x100e6f01      0xe  Code  Lc  bss.o [12]
wpabuf_head             0x100e7b49      0xe  Code  Lc  scan.o [12]
wpabuf_head             0x100f15df      0xe  Code  Lc  events.o [12]
wpabuf_head             0x100efb79      0xe  Code  Lc  wpabuf.o [12]
wpabuf_head             0x100fa179      0xe  Code  Lc  ap_drv_ops.o [12]
wpabuf_head             0x10101f6d      0xe  Code  Lc  ieee802_11_shared.o [12]
wpabuf_head             0x100ff199      0xe  Code  Lc  eap_server.o [12]
wpabuf_head             0x100fdf7d      0xe  Code  Lc  eapol_auth_sm.o [12]
wpabuf_head             0x10101a9d      0xe  Code  Lc  eap_common.o [12]
wpabuf_head_u8          0x100e6f0f      0x2  Code  Lc  bss.o [12]
wpabuf_len              0x100e6efd      0x4  Code  Lc  bss.o [12]
wpabuf_len              0x100e7b45      0x4  Code  Lc  scan.o [12]
wpabuf_len              0x100f15db      0x4  Code  Lc  events.o [12]
wpabuf_len              0x100efb75      0x4  Code  Lc  wpabuf.o [12]
wpabuf_len              0x100fa175      0x4  Code  Lc  ap_drv_ops.o [12]
wpabuf_len              0x10101f69      0x4  Code  Lc  ieee802_11_shared.o [12]
wpabuf_len              0x100ff195      0x4  Code  Lc  eap_server.o [12]
wpabuf_len              0x100fdf79      0x4  Code  Lc  eapol_auth_sm.o [12]
wpabuf_len              0x10101a99      0x4  Code  Lc  eap_common.o [12]
wpabuf_mhead            0x100efb87      0xe  Code  Lc  wpabuf.o [12]
wpabuf_mhead            0x10101f7b      0xe  Code  Lc  ieee802_11_shared.o [12]
wpabuf_mhead_u8         0x100efb95      0x2  Code  Lc  wpabuf.o [12]
wpabuf_mhead_u8         0x10101f89      0x2  Code  Lc  ieee802_11_shared.o [12]
wpabuf_overflow         0x100efbcd     0x34  Code  Lc  wpabuf.o [12]
wpabuf_put              0x100efd1f     0x2c  Code  Gb  wpabuf.o [12]
wpabuf_put_be24         0x10101ab9     0x16  Code  Lc  eap_common.o [12]
wpabuf_put_be32         0x10101acf     0x1a  Code  Lc  eap_common.o [12]
wpabuf_put_buf          0x100fa1bd     0x20  Code  Lc  ap_drv_ops.o [12]
wpabuf_put_data         0x100e6f11     0x36  Code  Lc  bss.o [12]
wpabuf_put_data         0x100e7b57     0x36  Code  Lc  scan.o [12]
wpabuf_put_data         0x100efb97     0x36  Code  Lc  wpabuf.o [12]
wpabuf_put_data         0x100fa187     0x36  Code  Lc  ap_drv_ops.o [12]
wpabuf_put_data         0x100f9d4d     0x36  Code  Lc  eap_server_identity.o [12]
wpabuf_put_u8           0x10101aab      0xe  Code  Lc  eap_common.o [12]
wpabuf_resize           0x100efc09     0x78  Code  Gb  wpabuf.o [12]
wpas_ap_configured_cb   0x100e6331     0x20  Code  Lc  ap.o [12]
wpas_connection_failed  0x100e5ddd     0x8e  Code  Gb  wpa_supplicant.o [12]
wpas_dbus_bss_signal_prop_changed
                        0x100efac7      0x2  Code  Lc  notify.o [12]
wpas_dbus_signal_prop_changed
                        0x100efac5      0x2  Code  Lc  notify.o [12]
wpas_dbus_signal_scan_done
                        0x100efac9      0x2  Code  Lc  notify.o [12]
wpas_dbus_unregister_network
                        0x100efacb      0x4  Code  Lc  notify.o [12]
wpas_driver_bss_selection
                        0x100e5e8d     0x1a  Code  Gb  wpa_supplicant.o [12]
wpas_notify_ap_scan_changed
                        0x100efaed      0x4  Code  Gb  notify.o [12]
wpas_notify_ap_sta_authorized
                        0x100efb67      0x2  Code  Lc  notify.o [12]
wpas_notify_ap_sta_deauthorized
                        0x100efb69      0x2  Code  Lc  notify.o [12]
wpas_notify_auth_changed
                        0x100efaf5      0x4  Code  Gb  notify.o [12]
wpas_notify_bss_freq_changed
                        0x100efb35      0x6  Code  Gb  notify.o [12]
wpas_notify_bss_ies_changed
                        0x100efb5b      0x6  Code  Gb  notify.o [12]
wpas_notify_bss_mode_changed
                        0x100efb47      0x6  Code  Gb  notify.o [12]
wpas_notify_bss_privacy_changed
                        0x100efb41      0x6  Code  Gb  notify.o [12]
wpas_notify_bss_rates_changed
                        0x100efb61      0x6  Code  Gb  notify.o [12]
wpas_notify_bss_rsnie_changed
                        0x100efb53      0x6  Code  Gb  notify.o [12]
wpas_notify_bss_signal_changed
                        0x100efb3b      0x6  Code  Gb  notify.o [12]
wpas_notify_bss_wpaie_changed
                        0x100efb4d      0x6  Code  Gb  notify.o [12]
wpas_notify_bss_wps_changed
                        0x100efb59      0x2  Code  Gb  notify.o [12]
wpas_notify_bssid_changed
                        0x100efaf1      0x4  Code  Gb  notify.o [12]
wpas_notify_network_changed
                        0x100efae9      0x4  Code  Gb  notify.o [12]
wpas_notify_network_removed
                        0x100efb0f     0x26  Code  Gb  notify.o [12]
wpas_notify_scan_done   0x100efb0b      0x2  Code  Gb  notify.o [12]
wpas_notify_scan_results
                        0x100efb0d      0x2  Code  Gb  notify.o [12]
wpas_notify_scanning    0x100efaf9     0x12  Code  Gb  notify.o [12]
wpas_notify_sta_authorized
                        0x100efb6b      0xa  Code  Gb  notify.o [12]
wpas_notify_state_changed
                        0x100efad7     0x12  Code  Gb  notify.o [12]
wpas_notify_supplicant_deinitialized
                        0x100efad5      0x2  Code  Gb  notify.o [12]
wpas_notify_supplicant_initialized
                        0x100efad1      0x4  Code  Gb  notify.o [12]
wpas_wps_deinit         0x100e2c7f      0x2  Code  Lc  wpa_supplicant.o [12]
wpas_wps_init           0x100e2c7b      0x4  Code  Lc  wpa_supplicant.o [12]
wpas_wps_notify_scan_results
                        0x100efac1      0x2  Code  Lc  notify.o [12]
wpas_wps_scan_pbc_overlap
                        0x100f16b7      0x4  Code  Lc  events.o [12]
wpas_wps_searching      0x100f16bb      0x4  Code  Lc  events.o [12]
wpas_wps_ssid_bss_match
                        0x100f16b1      0x6  Code  Lc  events.o [12]
x509_check_wildcard     0x100bcb4b     0x58  Code  Lc  x509_crt.o [1]
x509_crt_check_parent   0x100bcc51     0x66  Code  Lc  x509_crt.o [1]
x509_crt_parse_der_core
                        0x100bbbb5    0x284  Code  Lc  x509_crt.o [1]
x509_crt_verify_child   0x100bce75    0x210  Code  Lc  x509_crt.o [1]
x509_crt_verify_strings
                        0x100bca3c     0xa8  Data  Lc  x509_crt.o [1]
x509_crt_verify_top     0x100bccb7    0x1be  Code  Lc  x509_crt.o [1]
x509_get_attr_type_value
                        0x100cf773     0xaa  Code  Lc  x509.o [1]
x509_get_basic_constraints
                        0x100bb82f     0x88  Code  Lc  x509_crt.o [1]
x509_get_crt_ext        0x100bba23    0x192  Code  Lc  x509_crt.o [1]
x509_get_dates          0x100bb7a5     0x4c  Code  Lc  x509_crt.o [1]
x509_get_ext_key_usage  0x100bb941     0x24  Code  Lc  x509_crt.o [1]
x509_get_key_usage      0x100bb8ef     0x52  Code  Lc  x509_crt.o [1]
x509_get_ns_cert_type   0x100bb8b7     0x38  Code  Lc  x509_crt.o [1]
x509_get_subject_alt_name
                        0x100bb965     0xbe  Code  Lc  x509_crt.o [1]
x509_get_uid            0x100bb7f1     0x3e  Code  Lc  x509_crt.o [1]
x509_get_version        0x100bb75b     0x4a  Code  Lc  x509_crt.o [1]
x509_info_cert_type     0x100bc05b    0x112  Code  Lc  x509_crt.o [1]
x509_info_ext_key_usage
                        0x100bc3b5     0x62  Code  Lc  x509_crt.o [1]
x509_info_key_usage     0x100bc1e1    0x130  Code  Lc  x509_crt.o [1]
x509_info_subject_alt_name
                        0x100bbff9     0x62  Code  Lc  x509_crt.o [1]
x509_memcasecmp         0x100bcb19     0x32  Code  Lc  x509_crt.o [1]
x509_name_cmp           0x100bcbf7     0x5a  Code  Lc  x509_crt.o [1]
x509_parse_int          0x100cf889     0x3e  Code  Lc  x509.o [1]
x509_profile_check_key  0x100bb733     0x28  Code  Lc  x509_crt.o [1]
x509_profile_check_md_alg
                        0x100bb70b     0x14  Code  Lc  x509_crt.o [1]
x509_profile_check_pk_alg
                        0x100bb71f     0x14  Code  Lc  x509_crt.o [1]
x509_string_cmp         0x100bcba3     0x54  Code  Lc  x509_crt.o [1]
xActiveTimerList1       0x20033380     0x14  Data  Lc  timers.o [1]
xActiveTimerList2       0x20033394     0x14  Data  Lc  timers.o [1]
xBlockAllocatedBit      0x20005b60      0x4  Data  Lc  heap_4.o [1]
xDelayedTaskList1       0x200014cc     0x14  Data  Lc  tasks.o [1]
xDelayedTaskList2       0x200014e0     0x14  Data  Lc  tasks.o [1]
xExceptionStack         0x20034a90    0x300  Data  Lc  exception_handler.o [10]
xFreeBytesRemaining     0x20005b58      0x4  Data  Lc  heap_4.o [1]
xInsideISR              0x2003319c      0x4  Data  Gb  sys_arch.o [1]
xMinimumEverFreeBytesRemaining
                        0x20005b5c      0x4  Data  Lc  heap_4.o [1]
xNetJobQueue            0x20034eb0      0x4  Data  Gb  net_task.o [15]
xNextTaskUnblockTime    0x200014c4      0x4  Data  Lc  tasks.o [1]
xNumOfOverflows         0x200014bc      0x4  Data  Lc  tasks.o [1]
xPendingReadyList       0x20001458     0x14  Data  Lc  tasks.o [1]
xPortGetFreeHeapSize    0x1007d15d      0x6  Code  Gb  heap_4.o [1]
xPortGetMinimumEverFreeHeapSize
                        0x1007d163      0x6  Code  Gb  heap_4.o [1]
xPortStartScheduler     0x100823b7     0x78  Code  Gb  port.o [1]
xQueueCreateMutex       0x10084451     0x62  Code  Gb  queue.o [1]
xQueueGenericCreate     0x100843d3     0x7e  Code  Gb  queue.o [1]
xQueueGenericReceive    0x10084801    0x186  Code  Gb  queue.o [1]
xQueueGenericReset      0x10084349     0x8a  Code  Gb  queue.o [1]
xQueueGenericSend       0x10084535    0x176  Code  Gb  queue.o [1]
xQueueGenericSendFromISR
                        0x100846ab     0xcc  Code  Gb  queue.o [1]
xQueueGiveFromISR       0x10084777     0x8a  Code  Gb  queue.o [1]
xQueueGiveMutexRecursive
                        0x100844b3     0x3c  Code  Gb  queue.o [1]
xQueueReceiveFromISR    0x10084987     0xa0  Code  Gb  queue.o [1]
xQueueRegistry          0x20032d30     0x40  Data  Gb  queue.o [1]
xQueueTakeMutexRecursive
                        0x100844ef     0x46  Code  Gb  queue.o [1]
xSchedulerRunning       0x200014b0      0x4  Data  Lc  tasks.o [1]
xStart                  0x20005b4c      0x8  Data  Lc  heap_4.o [1]
xSuspendedTaskList      0x20001490     0x14  Data  Lc  tasks.o [1]
xTaskCheckForTimeOut    0x1007dcdd     0x76  Code  Gb  tasks.o [1]
xTaskGenericCreate      0x1007d3fd    0x120  Code  Gb  tasks.o [1]
xTaskGetCurrentTaskHandle
                        0x1007dfcd      0x8  Code  Gb  tasks.o [1]
xTaskGetSchedulerState  0x1007dfd5     0x1c  Code  Gb  tasks.o [1]
xTaskGetTickCount       0x1007d8d5      0x8  Code  Gb  tasks.o [1]
xTaskIncrementTick      0x1007d9a3     0xca  Code  Gb  tasks.o [1]
xTaskPriorityDisinherit
                        0x1007e06d     0x88  Code  Gb  tasks.o [1]
xTaskRemoveFromEventList
                        0x1007dc41     0x70  Code  Gb  tasks.o [1]
xTaskResumeAll          0x1007d7fd     0xbc  Code  Gb  tasks.o [1]
xTasksWaitingTermination
                        0x2000146c     0x14  Data  Lc  tasks.o [1]
xTickCount              0x200014a8      0x4  Data  Lc  tasks.o [1]
xTimerCreate            0x1008272d     0x60  Code  Gb  timers.o [1]
xTimerCreateTimerTask   0x100826e1     0x4c  Code  Gb  timers.o [1]
xTimerGenericCommand    0x1008278d     0x54  Code  Gb  timers.o [1]
xTimerIsTimerActive     0x10082ac5     0x1c  Code  Gb  timers.o [1]
xTimerQueue             0x2003337c      0x4  Data  Lc  timers.o [1]
xYieldPending           0x200014b8      0x4  Data  Lc  tasks.o [1]


[1] = C:\LEO\myGit\MTK IOT\SDK_V4.2.0\out_iar\mt7697_hdk\iot_sdk_demo\Debug\Obj
[2] = C:\LEO\myGit\MTK IOT\SDK_V4.2.0\project\mt7697_hdk\apps\iot_sdk_demo\EWARM\..\..\..\..\..\tools\iar\mt7697\bootloader
[3] = command line
[4] = dl7M_tlf.a
[5] = libble_iar.a
[6] = libble_multi_adv_iar.a
[7] = libbtdriver_7697_iar.a
[8] = libhal_core_CM4_IAR.a
[9] = libhal_protected_CM4_IAR.a
[10] = libkservice_CM4_MT7687_IAR.a
[11] = libminicli_CM4_IAR.a
[12] = libminisupp_CM4_IAR.a
[13] = libnvdm_CM4_IAR.a
[14] = libsmtcn_CM4_IAR.a
[15] = libwifi_CM4_IAR.a
[16] = m7M_tls.a
[17] = rt7M_tl.a

  606 588 bytes of readonly  code memory
    9 480 bytes of readwrite code memory
  340 564 bytes of readonly  data memory
  224 206 bytes of readwrite data memory

Errors: none
Warnings: none
