///////////////////////////////////////////////////////////////////////////////
//
// IAR ANSI C/C++ Compiler V7.80.1.11864/W32 for ARM      25/Jan/2017  17:35:23
// Copyright 1999-2016 IAR Systems AB.
//
//    Cpu mode     =  thumb
//    Endian       =  little
//    Source file  =  
//        C:\LEO\myGit\MTK
//        IOT\SDK_V4.2.0\middleware\third_party\ping\src\ping_cli.c
//    Command line =  
//        "C:\LEO\myGit\MTK
//        IOT\SDK_V4.2.0\middleware\third_party\ping\src\ping_cli.c" -D
//        MTK_LOAD_MAC_ADDR_FROM_EFUSE -D MTK_PING_OUT_ENABLE -D
//        MTK_WIFI_PROFILE_ENABLE -D PCFG_OS=2 -D _REENT_SMALL -D
//        MTK_MINISUPP_ENABLE -D MTK_MINICLI_ENABLE -D MTK_BSPEXT_ENABLE -D
//        MTK_HAL_LOWPOWER_ENABLE -D MTK_LWIP_ENABLE -D
//        MTK_HTTPCLIENT_SSL_ENABLE -D MTK_IPERF_ENABLE -D PRODUCT_VERSION=7697
//        -D MTK_WIFI_TGN_VERIFY_ENABLE -D MTK_SMTCN_ENABLE -D
//        MTK_CLI_TEST_MODE_ENABLE -D MTK_WIFI_REPEATER_ENABLE -D
//        CONFIG_REPEATER -D MTK_DEBUG_LEVEL_INFO -D MTK_DEBUG_LEVEL_WARNING -D
//        MTK_DEBUG_LEVEL_ERROR -D configOVERRIDE_DEFAULT_TICK_CONFIGURATION -D
//        CFG_SUPPORT_SMNT_PROTO=2 -D BT_DEBUG -D MTK_BLE_CLI_ENABLE -D
//        MTK_BLE_BQB_CLI_ENABLE -D MTK_HCI_CONSOLE_MIX_ENABLE -D
//        MTK_BLE_BQB_TEST_ENABLE -D MTK_BLE_SMTCN_ENABLE -D SUPPORT_MBEDTLS -D
//        MBEDTLS_CONFIG_FILE=<config-mtk-basic.h> -D MTK_NVDM_ENABLE -D
//        MTK_WIFI_PRIVILEGE_ENABLE -D MTK_MCS_ENABLE -D MTK_BLE_GPIO_SERVICE
//        -D __BT_DEBUG__ -lcN "C:\LEO\myGit\MTK
//        IOT\SDK_V4.2.0\out_iar\mt7697_hdk\iot_sdk_demo\Debug\List" -lA
//        "C:\LEO\myGit\MTK
//        IOT\SDK_V4.2.0\out_iar\mt7697_hdk\iot_sdk_demo\Debug\List"
//        --diag_suppress Pa050,Ta022,Ta023 --diag_error Pe606 -o
//        "C:\LEO\myGit\MTK
//        IOT\SDK_V4.2.0\out_iar\mt7697_hdk\iot_sdk_demo\Debug\Obj" --no_unroll
//        --no_inline --no_tbaa --no_scheduling --debug --endian=little
//        --cpu=Cortex-M4 -e --fpu=VFPv4_sp --dlib_config "C:\Program Files
//        (x86)\IAR Systems\Embedded Workbench
//        7.5\arm\INC\c\DLib_Config_Full.h" -I "C:\LEO\myGit\MTK
//        IOT\SDK_V4.2.0\project\mt7697_hdk\apps\iot_sdk_demo\EWARM\..\inc\" -I
//        "C:\LEO\myGit\MTK
//        IOT\SDK_V4.2.0\project\mt7697_hdk\apps\iot_sdk_demo\EWARM\..\..\..\..\..\kernel\service\inc\"
//        -I "C:\LEO\myGit\MTK
//        IOT\SDK_V4.2.0\project\mt7697_hdk\apps\iot_sdk_demo\EWARM\..\..\..\..\..\kernel\rtos\FreeRTOS\Source\include\"
//        -I "C:\LEO\myGit\MTK
//        IOT\SDK_V4.2.0\project\mt7697_hdk\apps\iot_sdk_demo\EWARM\..\..\..\..\..\kernel\rtos\FreeRTOS\Source\portable\IAR\ARM_CM4F\"
//        -I "C:\LEO\myGit\MTK
//        IOT\SDK_V4.2.0\project\mt7697_hdk\apps\iot_sdk_demo\EWARM\..\..\..\..\..\kernel\rtos\FreeRTOS\inc\"
//        -I "C:\LEO\myGit\MTK
//        IOT\SDK_V4.2.0\project\mt7697_hdk\apps\iot_sdk_demo\EWARM\..\..\..\..\..\driver\CMSIS\Device\MTK\mt7687\Include\"
//        -I "C:\LEO\myGit\MTK
//        IOT\SDK_V4.2.0\project\mt7697_hdk\apps\iot_sdk_demo\EWARM\..\..\..\..\..\driver\CMSIS\Include\"
//        -I "C:\LEO\myGit\MTK
//        IOT\SDK_V4.2.0\project\mt7697_hdk\apps\iot_sdk_demo\EWARM\..\..\..\..\..\driver\chip\inc\"
//        -I "C:\LEO\myGit\MTK
//        IOT\SDK_V4.2.0\project\mt7697_hdk\apps\iot_sdk_demo\EWARM\..\..\..\..\..\driver\chip\mt7687\inc\"
//        -I "C:\LEO\myGit\MTK
//        IOT\SDK_V4.2.0\project\mt7697_hdk\apps\iot_sdk_demo\EWARM\..\..\..\..\..\driver\board\mt76x7_hdk\wifi\inc\"
//        -I "C:\LEO\myGit\MTK
//        IOT\SDK_V4.2.0\project\mt7697_hdk\apps\iot_sdk_demo\EWARM\..\..\..\..\..\middleware\third_party\dhcpd\inc\"
//        -I "C:\LEO\myGit\MTK
//        IOT\SDK_V4.2.0\project\mt7697_hdk\apps\iot_sdk_demo\EWARM\..\..\..\..\..\middleware\MTK\minicli\inc\"
//        -I "C:\LEO\myGit\MTK
//        IOT\SDK_V4.2.0\project\mt7697_hdk\apps\iot_sdk_demo\EWARM\..\..\..\..\..\middleware\MTK\minisupp\inc\"
//        -I "C:\LEO\myGit\MTK
//        IOT\SDK_V4.2.0\project\mt7697_hdk\apps\iot_sdk_demo\EWARM\..\..\..\..\..\driver\chip\inc\"
//        -I "C:\LEO\myGit\MTK
//        IOT\SDK_V4.2.0\project\mt7697_hdk\apps\iot_sdk_demo\EWARM\..\..\..\..\..\driver\chip\mt7687\src\common\include\"
//        -I "C:\LEO\myGit\MTK
//        IOT\SDK_V4.2.0\project\mt7697_hdk\apps\iot_sdk_demo\EWARM\..\..\..\..\..\middleware\third_party\lwip\src\include\"
//        -I "C:\LEO\myGit\MTK
//        IOT\SDK_V4.2.0\project\mt7697_hdk\apps\iot_sdk_demo\EWARM\..\..\..\..\..\middleware\third_party\lwip\ports\include\"
//        -I "C:\LEO\myGit\MTK
//        IOT\SDK_V4.2.0\project\mt7697_hdk\apps\iot_sdk_demo\EWARM\..\..\..\..\..\middleware\third_party\lwip\src\include\lwip\"
//        -I "C:\LEO\myGit\MTK
//        IOT\SDK_V4.2.0\project\mt7697_hdk\apps\iot_sdk_demo\EWARM\..\..\..\..\..\project\common\bsp_ex\inc\"
//        -I "C:\LEO\myGit\MTK
//        IOT\SDK_V4.2.0\project\mt7697_hdk\apps\iot_sdk_demo\EWARM\..\..\..\..\..\middleware\MTK\nvdm\inc\"
//        -I "C:\LEO\myGit\MTK
//        IOT\SDK_V4.2.0\project\mt7697_hdk\apps\iot_sdk_demo\EWARM\..\..\..\..\..\middleware\third_party\ping\inc\"
//        -I "C:\LEO\myGit\MTK
//        IOT\SDK_V4.2.0\project\mt7697_hdk\apps\iot_sdk_demo\EWARM\..\..\..\..\..\middleware\MTK\smtcn\inc\"
//        -I "C:\LEO\myGit\MTK
//        IOT\SDK_V4.2.0\project\mt7697_hdk\apps\iot_sdk_demo\EWARM\..\..\..\..\..\middleware\MTK\iperf\inc\"
//        -I "C:\LEO\myGit\MTK
//        IOT\SDK_V4.2.0\project\mt7697_hdk\apps\iot_sdk_demo\EWARM\..\..\..\..\..\project\mt7697_hdk\apps\iot_sdk_demo\inc\"
//        -I "C:\LEO\myGit\MTK
//        IOT\SDK_V4.2.0\project\mt7697_hdk\apps\iot_sdk_demo\EWARM\..\..\..\..\..\driver\chip\mt7687\inc\"
//        -I "C:\LEO\myGit\MTK
//        IOT\SDK_V4.2.0\project\mt7697_hdk\apps\iot_sdk_demo\EWARM\..\..\..\..\..\driver\board\mt76x7_hdk\util\inc\"
//        -I "C:\LEO\myGit\MTK
//        IOT\SDK_V4.2.0\project\mt7697_hdk\apps\iot_sdk_demo\EWARM\..\..\..\..\..\driver\board\mt76x7_hdk\wifi\inc\"
//        -I "C:\LEO\myGit\MTK
//        IOT\SDK_V4.2.0\project\mt7697_hdk\apps\iot_sdk_demo\EWARM\..\..\..\..\..\middleware\MTK\bluetooth\inc\"
//        -I "C:\LEO\myGit\MTK
//        IOT\SDK_V4.2.0\project\mt7697_hdk\apps\iot_sdk_demo\EWARM\..\..\..\..\..\project\mt7697_hdk\apps\iot_sdk_demo\src\ut_app\"
//        -I "C:\LEO\myGit\MTK
//        IOT\SDK_V4.2.0\project\mt7697_hdk\apps\iot_sdk_demo\EWARM\..\..\..\..\..\driver\board\mt76x7_hdk\ept\inc\"
//        -I "C:\LEO\myGit\MTK
//        IOT\SDK_V4.2.0\project\mt7697_hdk\apps\iot_sdk_demo\EWARM\..\..\..\..\..\middleware\third_party\mbedtls\include\"
//        -I "C:\LEO\myGit\MTK
//        IOT\SDK_V4.2.0\project\mt7697_hdk\apps\iot_sdk_demo\EWARM\..\..\..\..\..\middleware\third_party\mbedtls\configs\"
//        -I "C:\LEO\myGit\MTK
//        IOT\SDK_V4.2.0\project\mt7697_hdk\apps\iot_sdk_demo\EWARM\..\..\..\..\..\driver\board\mt76x7_hdk\external_flash\inc\"
//        -I "C:\LEO\myGit\MTK
//        IOT\SDK_V4.2.0\project\mt7697_hdk\apps\iot_sdk_demo\EWARM\..\..\..\..\..\middleware\third_party\httpclient\inc\"
//        -Om -I "C:\Program Files (x86)\IAR Systems\Embedded Workbench
//        7.5\arm\CMSIS\Include\"
//    Locale       =  Chinese (Simplified)_CHN.936
//    List file    =  
//        C:\LEO\myGit\MTK
//        IOT\SDK_V4.2.0\out_iar\mt7697_hdk\iot_sdk_demo\Debug\List\ping_cli.s
//
///////////////////////////////////////////////////////////////////////////////

        RTMODEL "__SystemLibrary", "DLib"
        RTMODEL "__dlib_full_locale_support", "1"
        AAPCS BASE,INTERWORK,VFP
        PRESERVE8
        REQUIRE8

        #define SHT_PROGBITS 0x1

        EXTERN os_strlen
        EXTERN ping_init
        EXTERN toi

        PUBLIC ping_cli_handler
        
          CFI Names cfiNames0
          CFI StackFrame CFA R13 DATA
          CFI Resource R0:32, R1:32, R2:32, R3:32, R4:32, R5:32, R6:32, R7:32
          CFI Resource R8:32, R9:32, R10:32, R11:32, R12:32, R13:32, R14:32
          CFI Resource D0:64, D1:64, D2:64, D3:64, D4:64, D5:64, D6:64, D7:64
          CFI Resource D8:64, D9:64, D10:64, D11:64, D12:64, D13:64, D14:64
          CFI Resource D15:64
          CFI EndNames cfiNames0
        
          CFI Common cfiCommon0 Using cfiNames0
          CFI CodeAlign 2
          CFI DataAlign 4
          CFI ReturnAddress R14 CODE
          CFI CFA R13+0
          CFI R0 Undefined
          CFI R1 Undefined
          CFI R2 Undefined
          CFI R3 Undefined
          CFI R4 SameValue
          CFI R5 SameValue
          CFI R6 SameValue
          CFI R7 SameValue
          CFI R8 SameValue
          CFI R9 SameValue
          CFI R10 SameValue
          CFI R11 SameValue
          CFI R12 Undefined
          CFI R14 SameValue
          CFI D0 Undefined
          CFI D1 Undefined
          CFI D2 Undefined
          CFI D3 Undefined
          CFI D4 Undefined
          CFI D5 Undefined
          CFI D6 Undefined
          CFI D7 Undefined
          CFI D8 SameValue
          CFI D9 SameValue
          CFI D10 SameValue
          CFI D11 SameValue
          CFI D12 SameValue
          CFI D13 SameValue
          CFI D14 SameValue
          CFI D15 SameValue
          CFI EndCommon cfiCommon0
        
// C:\LEO\myGit\MTK IOT\SDK_V4.2.0\middleware\third_party\ping\src\ping_cli.c
//    1 
//    2 #include <os.h>
//    3 #include <toi.h>
//    4 
//    5 #include "ping.h"
//    6 
//    7 #include "ping_cli.h"
//    8 
//    9 

        SECTION `.text`:CODE:NOROOT(1)
          CFI Block cfiBlock0 Using cfiCommon0
          CFI Function ping_cli_handler
        THUMB
//   10 uint8_t ping_cli_handler(uint8_t len, char *param[])
//   11 {
ping_cli_handler:
        PUSH     {R3-R7,LR}
          CFI R14 Frame(CFA, -4)
          CFI R7 Frame(CFA, -8)
          CFI R6 Frame(CFA, -12)
          CFI R5 Frame(CFA, -16)
          CFI R4 Frame(CFA, -20)
          CFI CFA R13+24
        MOV      R4,R0
        MOV      R5,R1
//   12     uint32_t count;
//   13     uint32_t pktsz;
//   14     uint8_t  type;
//   15 
//   16     if (len < 1) {
        MOVS     R0,R4
        BNE.N    ??ping_cli_handler_0
//   17         return 1;
        MOVS     R0,#+1
        POP      {R1,R4-R7,PC}
//   18     } else {
//   19         count = 3;
??ping_cli_handler_0:
        MOVS     R6,#+3
//   20         pktsz = 64;
        MOVS     R7,#+64
//   21     }
//   22 
//   23     if (len > 1) {
        CMP      R4,#+2
        BLT.N    ??ping_cli_handler_1
//   24         count = toi(param[1], &type);
        MOV      R1,SP
        LDR      R0,[R5, #+4]
          CFI FunCall toi
        BL       toi
        MOV      R6,R0
//   25         if (type == TOI_ERR) {
        LDRB     R0,[SP, #+0]
        CMP      R0,#+4
        BEQ.N    ??ping_cli_handler_2
//   26             return 2;
//   27         }
//   28     }
//   29 
//   30     if (len > 2) {
??ping_cli_handler_1:
        CMP      R4,#+3
        BLT.N    ??ping_cli_handler_3
//   31         pktsz = toi(param[2], &type);
        MOV      R1,SP
        LDR      R0,[R5, #+8]
          CFI FunCall toi
        BL       toi
        MOV      R7,R0
//   32         if (type == TOI_ERR) {
        LDRB     R0,[SP, #+0]
        CMP      R0,#+4
        BNE.N    ??ping_cli_handler_3
//   33             return 2;
??ping_cli_handler_2:
        MOVS     R0,#+2
        POP      {R1,R4-R7,PC}
//   34         }
//   35     }
//   36 
//   37     ping_init(count, param[0], os_strlen(param[0]), pktsz);
??ping_cli_handler_3:
        LDR      R0,[R5, #+0]
          CFI FunCall os_strlen
        BL       os_strlen
        MOV      R3,R7
        MOV      R2,R0
        UXTB     R2,R2
        LDR      R1,[R5, #+0]
        MOV      R0,R6
          CFI FunCall ping_init
        BL       ping_init
//   38 
//   39     return 0;
        MOVS     R0,#+0
        POP      {R1,R4-R7,PC}    ;; return
//   40 }
          CFI EndBlock cfiBlock0

        SECTION `.iar_vfe_header`:DATA:NOALLOC:NOROOT(2)
        SECTION_TYPE SHT_PROGBITS, 0
        DATA
        DC32 0

        SECTION __DLIB_PERTHREAD:DATA:REORDER:NOROOT(0)
        SECTION_TYPE SHT_PROGBITS, 0

        SECTION __DLIB_PERTHREAD_init:DATA:REORDER:NOROOT(0)
        SECTION_TYPE SHT_PROGBITS, 0

        END
//   41 
// 
// 90 bytes in section .text
// 
// 90 bytes of CODE memory
//
//Errors: none
//Warnings: none
