///////////////////////////////////////////////////////////////////////////////
//
// IAR ANSI C/C++ Compiler V8.11.2.13589/W32 for ARM      28/Jun/2017  11:27:29
// Copyright 1999-2017 IAR Systems AB.
//
//    Cpu mode     =  thumb
//    Endian       =  little
//    Source file  =  
//        C:\LEO\myGit\MTK-IOT\SDK_V4.3.0\middleware\MTK\iperf\src\iperf_cli.c
//    Command line =  
//        -f C:\Users\leo\AppData\Local\Temp\EW8739.tmp
//        (C:\LEO\myGit\MTK-IOT\SDK_V4.3.0\middleware\MTK\iperf\src\iperf_cli.c
//        -D MTK_LOAD_MAC_ADDR_FROM_EFUSE -D MTK_PING_OUT_ENABLE -D
//        MTK_WIFI_PROFILE_ENABLE -D PCFG_OS=2 -D _REENT_SMALL -D
//        MTK_MINISUPP_ENABLE -D MTK_MINICLI_ENABLE -D MTK_BSPEXT_ENABLE -D
//        MTK_HAL_LOWPOWER_ENABLE -D MTK_LWIP_ENABLE -D
//        MTK_HTTPCLIENT_SSL_ENABLE -D MTK_IPERF_ENABLE -D PRODUCT_VERSION=7697
//        -D MTK_FLASH_DIRECT_DL -D MTK_PATCH_DL_ENABLE -D MTK_SMTCN_V5_ENABLE
//        -D MTK_CLI_TEST_MODE_ENABLE -D MTK_WIFI_REPEATER_ENABLE -D
//        CONFIG_REPEATER -D MTK_DEBUG_LEVEL_INFO -D MTK_DEBUG_LEVEL_WARNING -D
//        MTK_DEBUG_LEVEL_ERROR -D configOVERRIDE_DEFAULT_TICK_CONFIGURATION -D
//        CFG_SUPPORT_SMNT_PROTO=2 -D BT_DEBUG -D MTK_BLE_CLI_ENABLE -D
//        MTK_BLE_BQB_CLI_ENABLE -D MTK_HCI_CONSOLE_MIX_ENABLE -D
//        MTK_BLE_BQB_TEST_ENABLE -D MTK_BLE_SMTCN_ENABLE -D
//        MBEDTLS_CONFIG_FILE=<config-mtk-md5.h> -D MTK_NVDM_ENABLE -D
//        MTK_WIFI_PRIVILEGE_ENABLE -D __BT_DEBUG__ -lcN
//        C:\LEO\myGit\MTK-IOT\SDK_V4.3.0\out_iar\mt7697_hdk\iot_sdk\Debug\List
//        -lA
//        C:\LEO\myGit\MTK-IOT\SDK_V4.3.0\out_iar\mt7697_hdk\iot_sdk\Debug\List
//        --diag_suppress Pa050,Ta022,Ta023 --diag_error Pe606 -o
//        C:\LEO\myGit\MTK-IOT\SDK_V4.3.0\out_iar\mt7697_hdk\iot_sdk\Debug\Obj
//        --no_unroll --no_inline --no_tbaa --no_scheduling --debug
//        --endian=little --cpu=Cortex-M4 -e --fpu=VFPv4_sp --dlib_config
//        "C:\Program Files (x86)\IAR Systems\Embedded Workbench
//        8.0_2\arm\INC\c\DLib_Config_Full.h" -I
//        C:\LEO\myGit\MTK-IOT\SDK_V4.3.0\project\mt7697_hdk\apps\iot_sdk\EWARM\..\inc\
//        -I
//        C:\LEO\myGit\MTK-IOT\SDK_V4.3.0\project\mt7697_hdk\apps\iot_sdk\EWARM\..\..\..\..\..\kernel\service\inc\
//        -I
//        C:\LEO\myGit\MTK-IOT\SDK_V4.3.0\project\mt7697_hdk\apps\iot_sdk\EWARM\..\..\..\..\..\kernel\rtos\FreeRTOS\Source\include\
//        -I
//        C:\LEO\myGit\MTK-IOT\SDK_V4.3.0\project\mt7697_hdk\apps\iot_sdk\EWARM\..\..\..\..\..\kernel\rtos\FreeRTOS\Source\portable\IAR\ARM_CM4F\
//        -I
//        C:\LEO\myGit\MTK-IOT\SDK_V4.3.0\project\mt7697_hdk\apps\iot_sdk\EWARM\..\..\..\..\..\kernel\rtos\FreeRTOS\inc\
//        -I
//        C:\LEO\myGit\MTK-IOT\SDK_V4.3.0\project\mt7697_hdk\apps\iot_sdk\EWARM\..\..\..\..\..\driver\CMSIS\Device\MTK\mt7687\Include\
//        -I
//        C:\LEO\myGit\MTK-IOT\SDK_V4.3.0\project\mt7697_hdk\apps\iot_sdk\EWARM\..\..\..\..\..\driver\CMSIS\Include\
//        -I
//        C:\LEO\myGit\MTK-IOT\SDK_V4.3.0\project\mt7697_hdk\apps\iot_sdk\EWARM\..\..\..\..\..\middleware\third_party\lwip\src\include\
//        -I
//        C:\LEO\myGit\MTK-IOT\SDK_V4.3.0\project\mt7697_hdk\apps\iot_sdk\EWARM\..\..\..\..\..\middleware\third_party\lwip\ports\include\
//        -I
//        C:\LEO\myGit\MTK-IOT\SDK_V4.3.0\project\mt7697_hdk\apps\iot_sdk\EWARM\..\..\..\..\..\driver\chip\inc\
//        -I
//        C:\LEO\myGit\MTK-IOT\SDK_V4.3.0\project\mt7697_hdk\apps\iot_sdk\EWARM\..\..\..\..\..\driver\chip\mt7687\inc\
//        -I
//        C:\LEO\myGit\MTK-IOT\SDK_V4.3.0\project\mt7697_hdk\apps\iot_sdk\EWARM\..\..\..\..\..\middleware\MTK\wifi_service\combo\inc\
//        -I
//        C:\LEO\myGit\MTK-IOT\SDK_V4.3.0\project\mt7697_hdk\apps\iot_sdk\EWARM\..\..\..\..\..\middleware\MTK\dhcpd\inc\
//        -I
//        C:\LEO\myGit\MTK-IOT\SDK_V4.3.0\project\mt7697_hdk\apps\iot_sdk\EWARM\..\..\..\..\..\middleware\MTK\minicli\inc\
//        -I
//        C:\LEO\myGit\MTK-IOT\SDK_V4.3.0\project\mt7697_hdk\apps\iot_sdk\EWARM\..\..\..\..\..\middleware\MTK\minisupp\inc\
//        -I
//        C:\LEO\myGit\MTK-IOT\SDK_V4.3.0\project\mt7697_hdk\apps\iot_sdk\EWARM\..\..\..\..\..\prebuilt\middleware\MTK\minisupp\inc\
//        -I
//        C:\LEO\myGit\MTK-IOT\SDK_V4.3.0\project\mt7697_hdk\apps\iot_sdk\EWARM\..\..\..\..\..\driver\chip\inc\
//        -I
//        C:\LEO\myGit\MTK-IOT\SDK_V4.3.0\project\mt7697_hdk\apps\iot_sdk\EWARM\..\..\..\..\..\driver\chip\mt7687\src\common\include\
//        -I
//        C:\LEO\myGit\MTK-IOT\SDK_V4.3.0\project\mt7697_hdk\apps\iot_sdk\EWARM\..\..\..\..\..\middleware\third_party\lwip\src\include\
//        -I
//        C:\LEO\myGit\MTK-IOT\SDK_V4.3.0\project\mt7697_hdk\apps\iot_sdk\EWARM\..\..\..\..\..\middleware\third_party\lwip\ports\include\
//        -I
//        C:\LEO\myGit\MTK-IOT\SDK_V4.3.0\project\mt7697_hdk\apps\iot_sdk\EWARM\..\..\..\..\..\middleware\third_party\lwip\src\include\lwip\
//        -I
//        C:\LEO\myGit\MTK-IOT\SDK_V4.3.0\project\mt7697_hdk\apps\iot_sdk\EWARM\..\..\..\..\..\project\common\bsp_ex\inc\
//        -I
//        C:\LEO\myGit\MTK-IOT\SDK_V4.3.0\project\mt7697_hdk\apps\iot_sdk\EWARM\..\..\..\..\..\middleware\MTK\nvdm\inc\
//        -I
//        C:\LEO\myGit\MTK-IOT\SDK_V4.3.0\project\mt7697_hdk\apps\iot_sdk\EWARM\..\..\..\..\..\middleware\third_party\ping\inc\
//        -I
//        C:\LEO\myGit\MTK-IOT\SDK_V4.3.0\project\mt7697_hdk\apps\iot_sdk\EWARM\..\..\..\..\..\middleware\MTK\smtcn\inc\
//        -I
//        C:\LEO\myGit\MTK-IOT\SDK_V4.3.0\project\mt7697_hdk\apps\iot_sdk\EWARM\..\..\..\..\..\middleware\MTK\smtcn\inc\internal\
//        -I
//        C:\LEO\myGit\MTK-IOT\SDK_V4.3.0\project\mt7697_hdk\apps\iot_sdk\EWARM\..\..\..\..\..\middleware\MTK\iperf\inc\
//        -I
//        C:\LEO\myGit\MTK-IOT\SDK_V4.3.0\project\mt7697_hdk\apps\iot_sdk\EWARM\..\..\..\..\..\project\mt7697_hdk\apps\iot_sdk\inc\
//        -I
//        C:\LEO\myGit\MTK-IOT\SDK_V4.3.0\project\mt7697_hdk\apps\iot_sdk\EWARM\..\..\..\..\..\driver\chip\mt7687\inc\
//        -I
//        C:\LEO\myGit\MTK-IOT\SDK_V4.3.0\project\mt7697_hdk\apps\iot_sdk\EWARM\..\..\..\..\..\driver\board\mt76x7_hdk\util\inc\
//        -I
//        C:\LEO\myGit\MTK-IOT\SDK_V4.3.0\project\mt7697_hdk\apps\iot_sdk\EWARM\..\..\..\..\..\middleware\MTK\wifi_service\combo\inc\
//        -I
//        C:\LEO\myGit\MTK-IOT\SDK_V4.3.0\project\mt7697_hdk\apps\iot_sdk\EWARM\..\..\..\..\..\middleware\MTK\bluetooth\inc\
//        -I
//        C:\LEO\myGit\MTK-IOT\SDK_V4.3.0\project\mt7697_hdk\apps\iot_sdk\EWARM\..\..\..\..\..\prebuilt\middleware\MTK\bluetooth\inc\
//        -I
//        C:\LEO\myGit\MTK-IOT\SDK_V4.3.0\project\mt7697_hdk\apps\iot_sdk\EWARM\..\..\..\..\..\project\mt7697_hdk\apps\iot_sdk\src\ut_app\
//        -I
//        C:\LEO\myGit\MTK-IOT\SDK_V4.3.0\project\mt7697_hdk\apps\iot_sdk\EWARM\..\..\..\..\..\driver\board\mt76x7_hdk\ept\inc\
//        -I
//        C:\LEO\myGit\MTK-IOT\SDK_V4.3.0\project\mt7697_hdk\apps\iot_sdk\EWARM\..\..\..\..\..\middleware\third_party\mbedtls\include\
//        -I
//        C:\LEO\myGit\MTK-IOT\SDK_V4.3.0\project\mt7697_hdk\apps\iot_sdk\EWARM\..\..\..\..\..\middleware\third_party\mbedtls\configs\
//        -I
//        C:\LEO\myGit\MTK-IOT\SDK_V4.3.0\project\mt7697_hdk\apps\iot_sdk\EWARM\..\..\..\..\..\driver\board\mt76x7_hdk\external_flash\inc\
//        -I
//        C:\LEO\myGit\MTK-IOT\SDK_V4.3.0\project\mt7697_hdk\apps\iot_sdk\EWARM\..\..\..\..\..\middleware\MTK\connsys\inc\
//        -Om -I "C:\Program Files (x86)\IAR Systems\Embedded Workbench
//        8.0_2\arm\CMSIS\Include\")
//    Locale       =  C
//    List file    =  
//        C:\LEO\myGit\MTK-IOT\SDK_V4.3.0\out_iar\mt7697_hdk\iot_sdk\Debug\List\iperf_cli.s
//
///////////////////////////////////////////////////////////////////////////////

        RTMODEL "__SystemLibrary", "DLib"
        RTMODEL "__dlib_file_descriptor", "1"
        RTMODEL "__dlib_full_locale_support", "1"
        RTMODEL "__dlib_version", "6"
        AAPCS BASE,INTERWORK,VFP
        PRESERVE8
        REQUIRE8

        #define SHT_PROGBITS 0x1

        EXTERN iperf_tcp_run_client
        EXTERN iperf_tcp_run_server
        EXTERN iperf_udp_run_client
        EXTERN iperf_udp_run_server
        EXTERN log_control_block_iperf
        EXTERN pvPortMalloc
        EXTERN strcmp
        EXTERN strcpy
        EXTERN vPortFree
        EXTERN xTaskGenericCreate

        PUBLIC iperf_cli
        
          CFI Names cfiNames0
          CFI StackFrame CFA R13 DATA
          CFI Resource R0:32, R1:32, R2:32, R3:32, R4:32, R5:32, R6:32, R7:32
          CFI Resource R8:32, R9:32, R10:32, R11:32, R12:32, R13:32, R14:32
          CFI Resource D0:64, D1:64, D2:64, D3:64, D4:64, D5:64, D6:64, D7:64
          CFI Resource D8:64, D9:64, D10:64, D11:64, D12:64, D13:64, D14:64
          CFI Resource D15:64
          CFI EndNames cfiNames0
        
          CFI Common cfiCommon0 Using cfiNames0
          CFI CodeAlign 2
          CFI DataAlign 4
          CFI ReturnAddress R14 CODE
          CFI CFA R13+0
          CFI R0 Undefined
          CFI R1 Undefined
          CFI R2 Undefined
          CFI R3 Undefined
          CFI R4 SameValue
          CFI R5 SameValue
          CFI R6 SameValue
          CFI R7 SameValue
          CFI R8 SameValue
          CFI R9 SameValue
          CFI R10 SameValue
          CFI R11 SameValue
          CFI R12 Undefined
          CFI R14 SameValue
          CFI D0 Undefined
          CFI D1 Undefined
          CFI D2 Undefined
          CFI D3 Undefined
          CFI D4 Undefined
          CFI D5 Undefined
          CFI D6 Undefined
          CFI D7 Undefined
          CFI D8 SameValue
          CFI D9 SameValue
          CFI D10 SameValue
          CFI D11 SameValue
          CFI D12 SameValue
          CFI D13 SameValue
          CFI D14 SameValue
          CFI D15 SameValue
          CFI EndCommon cfiCommon0
        
// C:\LEO\myGit\MTK-IOT\SDK_V4.3.0\middleware\MTK\iperf\src\iperf_cli.c
//    1 /* Copyright Statement:
//    2  *
//    3  * (C) 2005-2016  MediaTek Inc. All rights reserved.
//    4  *
//    5  * This software/firmware and related documentation ("MediaTek Software") are
//    6  * protected under relevant copyright laws. The information contained herein
//    7  * is confidential and proprietary to MediaTek Inc. ("MediaTek") and/or its licensors.
//    8  * Without the prior written permission of MediaTek and/or its licensors,
//    9  * any reproduction, modification, use or disclosure of MediaTek Software,
//   10  * and information contained herein, in whole or in part, shall be strictly prohibited.
//   11  * You may only use, reproduce, modify, or distribute (as applicable) MediaTek Software
//   12  * if you have agreed to and been bound by the applicable license agreement with
//   13  * MediaTek ("License Agreement") and been granted explicit permission to do so within
//   14  * the License Agreement ("Permitted User").  If you are not a Permitted User,
//   15  * please cease any access or use of MediaTek Software immediately.
//   16  * BY OPENING THIS FILE, RECEIVER HEREBY UNEQUIVOCALLY ACKNOWLEDGES AND AGREES
//   17  * THAT MEDIATEK SOFTWARE RECEIVED FROM MEDIATEK AND/OR ITS REPRESENTATIVES
//   18  * ARE PROVIDED TO RECEIVER ON AN "AS-IS" BASIS ONLY. MEDIATEK EXPRESSLY DISCLAIMS ANY AND ALL
//   19  * WARRANTIES, EXPRESS OR IMPLIED, INCLUDING BUT NOT LIMITED TO THE IMPLIED WARRANTIES OF
//   20  * MERCHANTABILITY, FITNESS FOR A PARTICULAR PURPOSE OR NONINFRINGEMENT.
//   21  * NEITHER DOES MEDIATEK PROVIDE ANY WARRANTY WHATSOEVER WITH RESPECT TO THE
//   22  * SOFTWARE OF ANY THIRD PARTY WHICH MAY BE USED BY, INCORPORATED IN, OR
//   23  * SUPPLIED WITH MEDIATEK SOFTWARE, AND RECEIVER AGREES TO LOOK ONLY TO SUCH
//   24  * THIRD PARTY FOR ANY WARRANTY CLAIM RELATING THERETO. RECEIVER EXPRESSLY ACKNOWLEDGES
//   25  * THAT IT IS RECEIVER'S SOLE RESPONSIBILITY TO OBTAIN FROM ANY THIRD PARTY ALL PROPER LICENSES
//   26  * CONTAINED IN MEDIATEK SOFTWARE. MEDIATEK SHALL ALSO NOT BE RESPONSIBLE FOR ANY MEDIATEK
//   27  * SOFTWARE RELEASES MADE TO RECEIVER'S SPECIFICATION OR TO CONFORM TO A PARTICULAR
//   28  * STANDARD OR OPEN FORUM. RECEIVER'S SOLE AND EXCLUSIVE REMEDY AND MEDIATEK'S ENTIRE AND
//   29  * CUMULATIVE LIABILITY WITH RESPECT TO MEDIATEK SOFTWARE RELEASED HEREUNDER WILL BE,
//   30  * AT MEDIATEK'S OPTION, TO REVISE OR REPLACE MEDIATEK SOFTWARE AT ISSUE,
//   31  * OR REFUND ANY SOFTWARE LICENSE FEES OR SERVICE CHARGE PAID BY RECEIVER TO
//   32  * MEDIATEK FOR SUCH MEDIATEK SOFTWARE AT ISSUE.
//   33  */
//   34 
//   35 #include <stdio.h>
//   36 #include <stdint.h>
//   37 #include <stdlib.h>
//   38 
//   39 #include <iperf_cli.h>
//   40 #include "iperf_task.h"
//   41 #include "connsys_driver.h"
//   42 #include "task_def.h"
//   43 #include "syslog.h"
//   44 
//   45 #ifdef PING_MODULE_PRINTF
//   46 #define IPERF_LOGE(fmt,arg...)   printf(("\n[iperf]: "fmt), ##arg)
//   47 #define IPERF_LOGW(fmt,arg...)   printf(("\n[iperf]: "fmt), ##arg)
//   48 #define IPERF_LOGI(fmt,arg...)   printf(("\n[iperf]: "fmt), ##arg)
//   49 #else
//   50 #define IPERF_LOGE(fmt,arg...)   LOG_E(iperf, "[iperf]: "fmt,##arg)
//   51 #define IPERF_LOGW(fmt,arg...)   LOG_W(iperf, "[iperf]: "fmt,##arg)
//   52 #define IPERF_LOGI(fmt,arg...)   LOG_I(iperf, "[iperf]: "fmt,##arg)
//   53 #endif
//   54 

        SECTION `.text`:CODE:NOROOT(1)
          CFI Block cfiBlock0 Using cfiCommon0
          CFI Function _cli_iperf_server
        THUMB
//   55 static uint8_t _cli_iperf_server(uint8_t len, char *param[])
//   56 {
_cli_iperf_server:
        PUSH     {R0-R8,LR}
          CFI R14 Frame(CFA, -4)
          CFI R8 Frame(CFA, -8)
          CFI R7 Frame(CFA, -12)
          CFI R6 Frame(CFA, -16)
          CFI R5 Frame(CFA, -20)
          CFI R4 Frame(CFA, -24)
          CFI CFA R13+40
        MOV      R7,R0
        MOV      R8,R1
//   57     int i;
//   58     char **g_iperf_param = NULL;
//   59     int is_create_task = 0;
        MOVS     R4,#+0
//   60     int offset = IPERF_COMMAND_BUFFER_SIZE / sizeof(char *);
//   61     int udps_prio = 6;
//   62 
//   63     g_iperf_param = pvPortMalloc(IPERF_COMMAND_BUFFER_NUM * IPERF_COMMAND_BUFFER_SIZE);
        MOV      R0,#+360
          CFI FunCall pvPortMalloc
        BL       pvPortMalloc
        MOVS     R5,R0
//   64     if (g_iperf_param == NULL) {
        BNE.N    ??_cli_iperf_server_0
//   65         IPERF_LOGI("Warning: No enough memory to running iperf.");
        LDR.W    R0,??DataTable53
        ADR.W    R1,?_6
        STR      R1,[SP, #+0]
        MOVS     R3,#+1
        MOVS     R2,#+65
        ADR.W    R1,`_cli_iperf_server::__FUNCTION__`
        LDR      R4,[R0, #+8]
          CFI FunCall
        BLX      R4
//   66         return 0;
        MOVS     R0,#+0
        B.N      ??_cli_iperf_server_1
//   67     }
//   68 
//   69 #if defined(IPERF_DEBUG_INTERNAL)
//   70     IPERF_LOGI("_cli_iperf_server, g_iperf_param = 0x%x, param = 0x%x", g_iperf_param, param);
//   71 #endif
//   72 
//   73     for (i = 0; i < 13 && i < len; i++) {
??_cli_iperf_server_0:
        MOV      R6,R4
??_cli_iperf_server_2:
        CMP      R6,#+13
        BGE.N    ??_cli_iperf_server_3
        CMP      R6,R7
        BGE.N    ??_cli_iperf_server_3
//   74         strcpy((char *)&g_iperf_param[i * offset], param[i]);
        LDR      R1,[R8, R6, LSL #+2]
        ADD      R0,R6,R6, LSL #+2
        ADD      R0,R5,R0, LSL #+2
          CFI FunCall strcpy
        BL       strcpy
//   75 #if defined(IPERF_DEBUG_INTERNAL)
//   76         IPERF_LOGI("_cli_iperf_client, g_iperf_param[%d] is \"%s\"", i, (char *)&g_iperf_param[i * offset]);
//   77 #endif
//   78         if (param[i][0] == 0 &&  param[i][1] == 0) {
        LDR      R1,[R8, R6, LSL #+2]
        LDRB     R0,[R1, #+0]
        CMP      R0,#+0
        BNE.N    ??_cli_iperf_server_4
        LDRB     R0,[R1, #+1]
        CMP      R0,#+0
        BEQ.N    ??_cli_iperf_server_3
//   79             break;
//   80         }
//   81     }
??_cli_iperf_server_4:
        ADDS     R6,R6,#+1
        B.N      ??_cli_iperf_server_2
//   82 
//   83     for (i = 0; i < 13 && i < len; i++) {
??_cli_iperf_server_5:
        ADDS     R6,R6,#+1
??_cli_iperf_server_6:
        CMP      R6,#+13
        BGE.N    ??_cli_iperf_server_7
        CMP      R6,R7
        BGE.N    ??_cli_iperf_server_7
//   84         if (strcmp(param[i], "-u") == 0) {
        ADR.N    R1,??DataTable52  ;; 0x2D, 0x75, 0x00, 0x00
        LDR      R0,[R8, R6, LSL #+2]
          CFI FunCall strcmp
        BL       strcmp
        CMP      R0,#+0
        BNE.N    ??_cli_iperf_server_5
//   85             IPERF_LOGI("Iperf UDP Server: Start!");
        LDR.W    R4,??DataTable53
        ADR.W    R6,`_cli_iperf_server::__FUNCTION__`
        ADR.W    R0,?_8
        STR      R0,[SP, #+0]
        MOVS     R3,#+1
        MOVS     R2,#+85
        MOV      R1,R6
        MOV      R0,R4
        LDR      R7,[R4, #+8]
          CFI FunCall
        BLX      R7
//   86             IPERF_LOGI("Iperf UDP Server Receive Timeout = 20 (secs)");
        ADR.W    R0,?_9
        STR      R0,[SP, #+0]
        MOVS     R3,#+1
        MOVS     R2,#+86
        MOV      R1,R6
        MOV      R0,R4
        LDR      R4,[R4, #+8]
          CFI FunCall
        BLX      R4
//   87             xTaskCreate((TaskFunction_t)iperf_udp_run_server, IPERF_TASK_NAME, IPERF_TASK_STACKSIZE/ sizeof(portSTACK_TYPE), g_iperf_param, udps_prio , NULL);
        MOVS     R0,#+0
        STR      R0,[SP, #+12]
        STR      R0,[SP, #+8]
        STR      R0,[SP, #+4]
        MOVS     R0,#+6
        STR      R0,[SP, #+0]
        MOV      R3,R5
        MOV      R2,#+1200
        ADR.W    R1,?_10
        LDR.W    R0,??DataTable53_1
          CFI FunCall xTaskGenericCreate
        BL       xTaskGenericCreate
//   88             is_create_task = 1;
        MOVS     R4,#+1
//   89             break;
//   90         }
//   91 
//   92     }
//   93 
//   94     if (0 == is_create_task) {
??_cli_iperf_server_7:
        CMP      R4,#+0
        BNE.N    ??_cli_iperf_server_8
//   95         IPERF_LOGI("Iperf TCP Server: Start!");
        LDR.W    R4,??DataTable53
        ADR.W    R6,`_cli_iperf_server::__FUNCTION__`
        ADR.W    R0,?_11
        STR      R0,[SP, #+0]
        MOVS     R3,#+1
        MOVS     R2,#+95
        MOV      R1,R6
        MOV      R0,R4
        LDR      R7,[R4, #+8]
          CFI FunCall
        BLX      R7
//   96         IPERF_LOGI("Iperf TCP Server Receive Timeout = 20 (secs)");
        ADR.W    R0,?_12
        STR      R0,[SP, #+0]
        MOVS     R3,#+1
        MOVS     R2,#+96
        MOV      R1,R6
        MOV      R0,R4
        LDR      R4,[R4, #+8]
          CFI FunCall
        BLX      R4
//   97         xTaskCreate((TaskFunction_t)iperf_tcp_run_server, IPERF_TASK_NAME, IPERF_TASK_STACKSIZE / sizeof(portSTACK_TYPE), g_iperf_param, IPERF_TASK_PRIO , NULL);
        MOVS     R0,#+0
        STR      R0,[SP, #+12]
        STR      R0,[SP, #+8]
        STR      R0,[SP, #+4]
        MOVS     R0,#+4
        STR      R0,[SP, #+0]
        MOV      R3,R5
        MOV      R2,#+1200
        ADR.W    R1,?_10
        LDR.N    R0,??DataTable53_2
          CFI FunCall xTaskGenericCreate
        BL       xTaskGenericCreate
//   98         is_create_task = 1;
        MOVS     R4,#+1
//   99     }
//  100 
//  101     if (is_create_task == 0) {
??_cli_iperf_server_8:
        CMP      R4,#+0
        BNE.N    ??_cli_iperf_server_9
//  102         vPortFree(g_iperf_param);
        MOV      R0,R5
          CFI FunCall vPortFree
        BL       vPortFree
//  103     }
//  104     return 0;
??_cli_iperf_server_9:
        MOVS     R0,#+0
??_cli_iperf_server_1:
        ADD      SP,SP,#+16
          CFI CFA R13+24
        POP      {R4-R8,PC}       ;; return
          CFI CFA R13+40
??_cli_iperf_server_3:
        MOV      R6,R4
        B.N      ??_cli_iperf_server_6
//  105 }
          CFI EndBlock cfiBlock0
//  106 

        SECTION `.text`:CODE:NOROOT(1)
          CFI Block cfiBlock1 Using cfiCommon0
          CFI Function _cli_iperf_client
        THUMB
//  107 static uint8_t _cli_iperf_client(uint8_t len, char *param[])
//  108 {
_cli_iperf_client:
        PUSH     {R0-R8,LR}
          CFI R14 Frame(CFA, -4)
          CFI R8 Frame(CFA, -8)
          CFI R7 Frame(CFA, -12)
          CFI R6 Frame(CFA, -16)
          CFI R5 Frame(CFA, -20)
          CFI R4 Frame(CFA, -24)
          CFI CFA R13+40
        MOV      R7,R0
        MOV      R8,R1
//  109     int i;
//  110     char **g_iperf_param = NULL;
//  111     int is_create_task = 0;
        MOVS     R4,#+0
//  112     int offset = IPERF_COMMAND_BUFFER_SIZE / sizeof(char *);
//  113 
//  114     g_iperf_param = pvPortMalloc(IPERF_COMMAND_BUFFER_NUM * IPERF_COMMAND_BUFFER_SIZE);
        MOV      R0,#+360
          CFI FunCall pvPortMalloc
        BL       pvPortMalloc
        MOVS     R5,R0
//  115     if (g_iperf_param == NULL) {
        BNE.N    ??_cli_iperf_client_0
//  116         IPERF_LOGI("Warning: No enough memory to running iperf.");
        LDR.N    R0,??DataTable53
        ADR.W    R1,?_6
        STR      R1,[SP, #+0]
        MOVS     R3,#+1
        MOVS     R2,#+116
        ADR.W    R1,`_cli_iperf_client::__FUNCTION__`
        LDR      R4,[R0, #+8]
          CFI FunCall
        BLX      R4
//  117         return 0;
        MOVS     R0,#+0
        B.N      ??_cli_iperf_client_1
//  118     }
//  119 
//  120     for (i = 0; i < 18 && i < len; i++) {
??_cli_iperf_client_0:
        MOV      R6,R4
??_cli_iperf_client_2:
        CMP      R6,#+18
        BGE.N    ??_cli_iperf_client_3
        CMP      R6,R7
        BGE.N    ??_cli_iperf_client_3
//  121         strcpy((char *)&g_iperf_param[i * offset], param[i]);
        LDR      R1,[R8, R6, LSL #+2]
        ADD      R0,R6,R6, LSL #+2
        ADD      R0,R5,R0, LSL #+2
          CFI FunCall strcpy
        BL       strcpy
//  122 
//  123 #if defined(IPERF_DEBUG_INTERNAL)
//  124         IPERF_LOGI("_cli_iperf_client, g_iperf_param[%d] is \"%s\"", i, (char *)&g_iperf_param[i * offset]);
//  125 #endif
//  126 
//  127         if (param[i][0] == 0 &&  param[i][1] == 0) {
        LDR      R1,[R8, R6, LSL #+2]
        LDRB     R0,[R1, #+0]
        CMP      R0,#+0
        BNE.N    ??_cli_iperf_client_4
        LDRB     R0,[R1, #+1]
        CMP      R0,#+0
        BEQ.N    ??_cli_iperf_client_3
//  128             break;
//  129         }
//  130     }
??_cli_iperf_client_4:
        ADDS     R6,R6,#+1
        B.N      ??_cli_iperf_client_2
//  131 
//  132     for (i = 0; i < 18 && i < len; i++) {
??_cli_iperf_client_5:
        ADDS     R6,R6,#+1
??_cli_iperf_client_6:
        CMP      R6,#+18
        BGE.N    ??_cli_iperf_client_7
        CMP      R6,R7
        BGE.N    ??_cli_iperf_client_7
//  133         if (strcmp(param[i], "-u") == 0) {
        ADR.N    R1,??DataTable52  ;; 0x2D, 0x75, 0x00, 0x00
        LDR      R0,[R8, R6, LSL #+2]
          CFI FunCall strcmp
        BL       strcmp
        CMP      R0,#+0
        BNE.N    ??_cli_iperf_client_5
//  134             IPERF_LOGI("Iperf UDP Client: Start!");
        LDR.N    R0,??DataTable53
        ADR.W    R1,?_13
        STR      R1,[SP, #+0]
        MOVS     R3,#+1
        MOVS     R2,#+134
        ADR.W    R1,`_cli_iperf_client::__FUNCTION__`
        LDR      R4,[R0, #+8]
          CFI FunCall
        BLX      R4
//  135             xTaskCreate((TaskFunction_t)iperf_udp_run_client, IPERF_TASK_NAME, IPERF_TASK_STACKSIZE / sizeof(portSTACK_TYPE), g_iperf_param, IPERF_TASK_PRIO , NULL);
        MOVS     R0,#+0
        STR      R0,[SP, #+12]
        STR      R0,[SP, #+8]
        STR      R0,[SP, #+4]
        MOVS     R0,#+4
        STR      R0,[SP, #+0]
        MOV      R3,R5
        MOV      R2,#+1200
        ADR.W    R1,?_10
        LDR.N    R0,??DataTable53_3
          CFI FunCall xTaskGenericCreate
        BL       xTaskGenericCreate
//  136             is_create_task = 1;
        MOVS     R4,#+1
//  137             break;
//  138         }
//  139     }
//  140 
//  141     if (0 == is_create_task) {
??_cli_iperf_client_7:
        CMP      R4,#+0
        BNE.N    ??_cli_iperf_client_8
//  142         IPERF_LOGI("Iperf TCP Client: Start!");
        LDR.N    R0,??DataTable53
        ADR.W    R1,?_14
        STR      R1,[SP, #+0]
        MOVS     R3,#+1
        MOVS     R2,#+142
        ADR.W    R1,`_cli_iperf_client::__FUNCTION__`
        LDR      R4,[R0, #+8]
          CFI FunCall
        BLX      R4
//  143 #if (CFG_CONNSYS_TRX_BALANCE_EN == 1)
//  144         xTaskCreate((TaskFunction_t)iperf_tcp_run_client, IPERF_TASK_NAME, IPERF_TASK_STACKSIZE / sizeof(portSTACK_TYPE), g_iperf_param, IPERF_TASK_PRIO , (TaskHandle_t *)&g_balance_ctr.tx_handle);
//  145 #else
//  146         xTaskCreate((TaskFunction_t)iperf_tcp_run_client, IPERF_TASK_NAME, IPERF_TASK_STACKSIZE / sizeof(portSTACK_TYPE), g_iperf_param, IPERF_TASK_PRIO , NULL);
        MOVS     R0,#+0
        STR      R0,[SP, #+12]
        STR      R0,[SP, #+8]
        STR      R0,[SP, #+4]
        MOVS     R0,#+4
        STR      R0,[SP, #+0]
        MOV      R3,R5
        MOV      R2,#+1200
        ADR.W    R1,?_10
        LDR.N    R0,??DataTable53_4
          CFI FunCall xTaskGenericCreate
        BL       xTaskGenericCreate
//  147 #endif
//  148         is_create_task = 1;
        MOVS     R4,#+1
//  149     }
//  150 
//  151     if (is_create_task == 0) {
??_cli_iperf_client_8:
        CMP      R4,#+0
        BNE.N    ??_cli_iperf_client_9
//  152         vPortFree(g_iperf_param);
        MOV      R0,R5
          CFI FunCall vPortFree
        BL       vPortFree
//  153     }
//  154 
//  155     return 0;
??_cli_iperf_client_9:
        MOVS     R0,#+0
??_cli_iperf_client_1:
        ADD      SP,SP,#+16
          CFI CFA R13+24
        POP      {R4-R8,PC}       ;; return
          CFI CFA R13+40
??_cli_iperf_client_3:
        MOV      R6,R4
        B.N      ??_cli_iperf_client_6
//  156 }
          CFI EndBlock cfiBlock1

        SECTION `.text`:CODE:NOROOT(2)
        SECTION_TYPE SHT_PROGBITS, 0
        DATA
??DataTable52:
        DC8      0x2D, 0x75, 0x00, 0x00
//  157 

        SECTION `.text`:CODE:NOROOT(1)
          CFI Block cfiBlock2 Using cfiCommon0
          CFI Function _cli_iperf_help
        THUMB
//  158 static uint8_t _cli_iperf_help(uint8_t len, char *param[])
//  159 {
_cli_iperf_help:
        PUSH     {R4-R6,LR}
          CFI R14 Frame(CFA, -4)
          CFI R6 Frame(CFA, -8)
          CFI R5 Frame(CFA, -12)
          CFI R4 Frame(CFA, -16)
          CFI CFA R13+16
        SUB      SP,SP,#+8
          CFI CFA R13+24
//  160 
//  161     IPERF_LOGI("Usage: iperf [-s|-c] [options]");
        LDR.N    R4,??DataTable53
        ADR.W    R5,`_cli_iperf_help::__FUNCTION__`
        ADR.W    R0,?_15
        STR      R0,[SP, #+0]
        MOVS     R3,#+1
        MOVS     R2,#+161
        MOV      R1,R5
        MOV      R0,R4
        LDR      R6,[R4, #+8]
          CFI FunCall
        BLX      R6
//  162     IPERF_LOGI("       iperf [-h]\n");
        ADR.W    R0,?_16
        STR      R0,[SP, #+0]
        MOVS     R3,#+1
        MOVS     R2,#+162
        MOV      R1,R5
        MOV      R0,R4
        LDR      R6,[R4, #+8]
          CFI FunCall
        BLX      R6
//  163     IPERF_LOGI("Client/Server:");
        ADR.W    R0,?_17
        STR      R0,[SP, #+0]
        MOVS     R3,#+1
        MOVS     R2,#+163
        MOV      R1,R5
        MOV      R0,R4
        LDR      R6,[R4, #+8]
          CFI FunCall
        BLX      R6
//  164     IPERF_LOGI("  -u,        use UDP rather than TCP");
        ADR.W    R0,?_18
        STR      R0,[SP, #+0]
        MOVS     R3,#+1
        MOVS     R2,#+164
        MOV      R1,R5
        MOV      R0,R4
        LDR      R6,[R4, #+8]
          CFI FunCall
        BLX      R6
//  165     IPERF_LOGI("  -p,    #    server port to listen on/connect to (default 5001)");
        ADR.W    R0,?_19
        STR      R0,[SP, #+0]
        MOVS     R3,#+1
        MOVS     R2,#+165
        MOV      R1,R5
        MOV      R0,R4
        LDR      R6,[R4, #+8]
          CFI FunCall
        BLX      R6
//  166     IPERF_LOGI("  -n,    #[kmKM]    number of bytes to transmit ");
        ADR.W    R0,?_20
        STR      R0,[SP, #+0]
        MOVS     R3,#+1
        MOVS     R2,#+166
        MOV      R1,R5
        MOV      R0,R4
        LDR      R6,[R4, #+8]
          CFI FunCall
        BLX      R6
//  167     IPERF_LOGI("  -b,    #[kmKM]    for UDP, bandwidth to send at in bits/sec");
        ADR.W    R0,?_21
        STR      R0,[SP, #+0]
        MOVS     R3,#+1
        MOVS     R2,#+167
        MOV      R1,R5
        MOV      R0,R4
        LDR      R6,[R4, #+8]
          CFI FunCall
        BLX      R6
//  168     IPERF_LOGI("  -i,        10 seconds between periodic bandwidth reports \n");
        ADR.W    R0,?_22
        STR      R0,[SP, #+0]
        MOVS     R3,#+1
        MOVS     R2,#+168
        MOV      R1,R5
        MOV      R0,R4
        LDR      R6,[R4, #+8]
          CFI FunCall
        BLX      R6
//  169     IPERF_LOGI("Server specific:");
        ADR.W    R0,?_23
        STR      R0,[SP, #+0]
        MOVS     R3,#+1
        MOVS     R2,#+169
        MOV      R1,R5
        MOV      R0,R4
        LDR      R6,[R4, #+8]
          CFI FunCall
        BLX      R6
//  170     IPERF_LOGI("  -s,        run in server mode");
        ADR.W    R0,?_24
        STR      R0,[SP, #+0]
        MOVS     R3,#+1
        MOVS     R2,#+170
        MOV      R1,R5
        MOV      R0,R4
        LDR      R6,[R4, #+8]
          CFI FunCall
        BLX      R6
//  171     IPERF_LOGI("  -B,    <ip>    bind to <ip>, and join to a multicast group (only Support UDP)");
        ADR.W    R0,?_25
        STR      R0,[SP, #+0]
        MOVS     R3,#+1
        MOVS     R2,#+171
        MOV      R1,R5
        MOV      R0,R4
        LDR      R6,[R4, #+8]
          CFI FunCall
        BLX      R6
//  172     IPERF_LOGI("  -r,        for UDP, run iperf in tradeoff testing mode, connecting back to client\n");
        ADR.W    R0,?_26
        STR      R0,[SP, #+0]
        MOVS     R3,#+1
        MOVS     R2,#+172
        MOV      R1,R5
        MOV      R0,R4
        LDR      R6,[R4, #+8]
          CFI FunCall
        BLX      R6
//  173     IPERF_LOGI("Client specific:");
        ADR.W    R0,?_27
        STR      R0,[SP, #+0]
        MOVS     R3,#+1
        MOVS     R2,#+173
        MOV      R1,R5
        MOV      R0,R4
        LDR      R6,[R4, #+8]
          CFI FunCall
        BLX      R6
//  174     IPERF_LOGI("  -c,    <ip>    run in client mode, connecting to <ip>");
        ADR.W    R0,?_28
        STR      R0,[SP, #+0]
        MOVS     R3,#+1
        MOVS     R2,#+174
        MOV      R1,R5
        MOV      R0,R4
        LDR      R6,[R4, #+8]
          CFI FunCall
        BLX      R6
//  175     IPERF_LOGI("  -w,    #[kmKM]    TCP window size");
        ADR.W    R0,?_29
        STR      R0,[SP, #+0]
        MOVS     R3,#+1
        MOVS     R2,#+175
        MOV      R1,R5
        MOV      R0,R4
        LDR      R6,[R4, #+8]
          CFI FunCall
        BLX      R6
//  176     IPERF_LOGI("  -l,    #[kmKM]    UDP datagram size");
        ADR.W    R0,?_30
        STR      R0,[SP, #+0]
        MOVS     R3,#+1
        MOVS     R2,#+176
        MOV      R1,R5
        MOV      R0,R4
        LDR      R6,[R4, #+8]
          CFI FunCall
        BLX      R6
//  177     IPERF_LOGI("  -t,    #    time in seconds to transmit for (default 10 secs)");
        ADR.W    R0,?_31
        STR      R0,[SP, #+0]
        MOVS     R3,#+1
        MOVS     R2,#+177
        MOV      R1,R5
        MOV      R0,R4
        LDR      R6,[R4, #+8]
          CFI FunCall
        BLX      R6
//  178     IPERF_LOGI("  -S,    #    the type-of-service of outgoing packets\n");
        ADR.W    R0,?_32
        STR      R0,[SP, #+0]
        MOVS     R3,#+1
        MOVS     R2,#+178
        MOV      R1,R5
        MOV      R0,R4
        LDR      R6,[R4, #+8]
          CFI FunCall
        BLX      R6
//  179     IPERF_LOGI("Miscellaneous:");
        ADR.W    R0,?_33
        STR      R0,[SP, #+0]
        MOVS     R3,#+1
        MOVS     R2,#+179
        MOV      R1,R5
        MOV      R0,R4
        LDR      R6,[R4, #+8]
          CFI FunCall
        BLX      R6
//  180     IPERF_LOGI("  -h,        print this message and quit\n");
        ADR.W    R0,?_34
        STR      R0,[SP, #+0]
        MOVS     R3,#+1
        MOVS     R2,#+180
        MOV      R1,R5
        MOV      R0,R4
        LDR      R6,[R4, #+8]
          CFI FunCall
        BLX      R6
//  181     IPERF_LOGI("[kmKM] Indicates options that support a k/K or m/M suffix for kilo- or mega-\n");
        ADR.W    R0,?_35
        STR      R0,[SP, #+0]
        MOVS     R3,#+1
        MOVS     R2,#+181
        MOV      R1,R5
        MOV      R0,R4
        LDR      R6,[R4, #+8]
          CFI FunCall
        BLX      R6
//  182     IPERF_LOGI("TOS options for -S parameter:");
        ADR.W    R0,?_36
        STR      R0,[SP, #+0]
        MOVS     R3,#+1
        MOVS     R2,#+182
        MOV      R1,R5
        MOV      R0,R4
        LDR      R6,[R4, #+8]
          CFI FunCall
        BLX      R6
//  183     IPERF_LOGI("BE: -S 0");
        ADR.W    R0,?_37
        STR      R0,[SP, #+0]
        MOVS     R3,#+1
        MOVS     R2,#+183
        MOV      R1,R5
        MOV      R0,R4
        LDR      R6,[R4, #+8]
          CFI FunCall
        BLX      R6
//  184     IPERF_LOGI("BK: -S 32");
        ADR.W    R0,?_38
        STR      R0,[SP, #+0]
        MOVS     R3,#+1
        MOVS     R2,#+184
        MOV      R1,R5
        MOV      R0,R4
        LDR      R6,[R4, #+8]
          CFI FunCall
        BLX      R6
//  185     IPERF_LOGI("VI: -S 160");
        ADR.W    R0,?_39
        STR      R0,[SP, #+0]
        MOVS     R3,#+1
        MOVS     R2,#+185
        MOV      R1,R5
        MOV      R0,R4
        LDR      R6,[R4, #+8]
          CFI FunCall
        BLX      R6
//  186     IPERF_LOGI("VO: -S 224\n");
        ADR.W    R0,?_40
        STR      R0,[SP, #+0]
        MOVS     R3,#+1
        MOVS     R2,#+186
        MOV      R1,R5
        MOV      R0,R4
        LDR      R6,[R4, #+8]
          CFI FunCall
        BLX      R6
//  187     IPERF_LOGI("Tradeoff Testing Mode:");
        ADR.W    R0,?_41
        STR      R0,[SP, #+0]
        MOVS     R3,#+1
        MOVS     R2,#+187
        MOV      R1,R5
        MOV      R0,R4
        LDR      R6,[R4, #+8]
          CFI FunCall
        BLX      R6
//  188     IPERF_LOGI("Command: iperf -s -u -n <bits/bytes> -r \n");
        ADR.W    R0,?_42
        STR      R0,[SP, #+0]
        MOVS     R3,#+1
        MOVS     R2,#+188
        MOV      R1,R5
        MOV      R0,R4
        LDR      R6,[R4, #+8]
          CFI FunCall
        BLX      R6
//  189     IPERF_LOGI("Example:");
        ADR.W    R0,?_43
        STR      R0,[SP, #+0]
        MOVS     R3,#+1
        MOVS     R2,#+189
        MOV      R1,R5
        MOV      R0,R4
        LDR      R6,[R4, #+8]
          CFI FunCall
        BLX      R6
//  190     IPERF_LOGI("Iperf TCP Server: iperf -s");
        ADR.W    R0,?_44
        STR      R0,[SP, #+0]
        MOVS     R3,#+1
        MOVS     R2,#+190
        MOV      R1,R5
        MOV      R0,R4
        LDR      R6,[R4, #+8]
          CFI FunCall
        BLX      R6
//  191     IPERF_LOGI("Iperf UDP Server: iperf -s -u");
        ADR.W    R0,?_45
        STR      R0,[SP, #+0]
        MOVS     R3,#+1
        MOVS     R2,#+191
        MOV      R1,R5
        MOV      R0,R4
        LDR      R6,[R4, #+8]
          CFI FunCall
        BLX      R6
//  192     IPERF_LOGI("Iperf TCP Client: iperf -c <ip> -w <window size> -t <duration> -p <port>");
        ADR.W    R0,?_46
        STR      R0,[SP, #+0]
        MOVS     R3,#+1
        MOVS     R2,#+192
        MOV      R1,R5
        MOV      R0,R4
        LDR      R6,[R4, #+8]
          CFI FunCall
        BLX      R6
//  193     IPERF_LOGI("Iperf UDP Client: iperf -c <ip> -u -l <datagram size> -t <duration> -p <port>");
        ADR.W    R0,?_47
        STR      R0,[SP, #+0]
        MOVS     R3,#+1
        MOVS     R2,#+193
        MOV      R1,R5
        MOV      R0,R4
        LDR      R4,[R4, #+8]
          CFI FunCall
        BLX      R4
//  194     return 0;
        MOVS     R0,#+0
        POP      {R1,R2,R4-R6,PC}  ;; return
//  195 }
          CFI EndBlock cfiBlock2

        SECTION `.text`:CODE:NOROOT(2)
        SECTION_TYPE SHT_PROGBITS, 0
        DATA
??DataTable53:
        DC32     log_control_block_iperf

        SECTION `.text`:CODE:NOROOT(2)
        SECTION_TYPE SHT_PROGBITS, 0
        DATA
??DataTable53_1:
        DC32     iperf_udp_run_server

        SECTION `.text`:CODE:NOROOT(2)
        SECTION_TYPE SHT_PROGBITS, 0
        DATA
??DataTable53_2:
        DC32     iperf_tcp_run_server

        SECTION `.text`:CODE:NOROOT(2)
        SECTION_TYPE SHT_PROGBITS, 0
        DATA
??DataTable53_3:
        DC32     iperf_udp_run_client

        SECTION `.text`:CODE:NOROOT(2)
        SECTION_TYPE SHT_PROGBITS, 0
        DATA
??DataTable53_4:
        DC32     iperf_tcp_run_client

        SECTION `.text`:CODE:NOROOT(2)
        SECTION_TYPE SHT_PROGBITS, 0
        DATA
// __absolute char const _cli_iperf_server::__FUNCTION__[18]
`_cli_iperf_server::__FUNCTION__`:
        DC8 "_cli_iperf_server"
        DC8 0, 0

        SECTION `.text`:CODE:NOROOT(2)
        SECTION_TYPE SHT_PROGBITS, 0
        DATA
?_6:
        DC8 5BH, 69H, 70H, 65H, 72H, 66H, 5DH, 3AH
        DC8 20H, 57H, 61H, 72H, 6EH, 69H, 6EH, 67H
        DC8 3AH, 20H, 4EH, 6FH, 20H, 65H, 6EH, 6FH
        DC8 75H, 67H, 68H, 20H, 6DH, 65H, 6DH, 6FH
        DC8 72H, 79H, 20H, 74H, 6FH, 20H, 72H, 75H
        DC8 6EH, 6EH, 69H, 6EH, 67H, 20H, 69H, 70H
        DC8 65H, 72H, 66H, 2EH, 0
        DC8 0, 0, 0

        SECTION `.text`:CODE:NOROOT(2)
        SECTION_TYPE SHT_PROGBITS, 0
        DATA
?_8:
        DC8 "[iperf]: Iperf UDP Server: Start!"
        DC8 0, 0

        SECTION `.text`:CODE:NOROOT(2)
        SECTION_TYPE SHT_PROGBITS, 0
        DATA
?_9:
        DC8 5BH, 69H, 70H, 65H, 72H, 66H, 5DH, 3AH
        DC8 20H, 49H, 70H, 65H, 72H, 66H, 20H, 55H
        DC8 44H, 50H, 20H, 53H, 65H, 72H, 76H, 65H
        DC8 72H, 20H, 52H, 65H, 63H, 65H, 69H, 76H
        DC8 65H, 20H, 54H, 69H, 6DH, 65H, 6FH, 75H
        DC8 74H, 20H, 3DH, 20H, 32H, 30H, 20H, 28H
        DC8 73H, 65H, 63H, 73H, 29H, 0
        DC8 0, 0

        SECTION `.text`:CODE:NOROOT(2)
        SECTION_TYPE SHT_PROGBITS, 0
        DATA
?_10:
        DC8 "iperf"
        DC8 0, 0

        SECTION `.text`:CODE:NOROOT(2)
        SECTION_TYPE SHT_PROGBITS, 0
        DATA
?_11:
        DC8 "[iperf]: Iperf TCP Server: Start!"
        DC8 0, 0

        SECTION `.text`:CODE:NOROOT(2)
        SECTION_TYPE SHT_PROGBITS, 0
        DATA
?_12:
        DC8 5BH, 69H, 70H, 65H, 72H, 66H, 5DH, 3AH
        DC8 20H, 49H, 70H, 65H, 72H, 66H, 20H, 54H
        DC8 43H, 50H, 20H, 53H, 65H, 72H, 76H, 65H
        DC8 72H, 20H, 52H, 65H, 63H, 65H, 69H, 76H
        DC8 65H, 20H, 54H, 69H, 6DH, 65H, 6FH, 75H
        DC8 74H, 20H, 3DH, 20H, 32H, 30H, 20H, 28H
        DC8 73H, 65H, 63H, 73H, 29H, 0
        DC8 0, 0

        SECTION `.text`:CODE:NOROOT(2)
        SECTION_TYPE SHT_PROGBITS, 0
        DATA
// __absolute char const _cli_iperf_client::__FUNCTION__[18]
`_cli_iperf_client::__FUNCTION__`:
        DC8 "_cli_iperf_client"
        DC8 0, 0

        SECTION `.text`:CODE:NOROOT(2)
        SECTION_TYPE SHT_PROGBITS, 0
        DATA
?_13:
        DC8 "[iperf]: Iperf UDP Client: Start!"
        DC8 0, 0

        SECTION `.text`:CODE:NOROOT(2)
        SECTION_TYPE SHT_PROGBITS, 0
        DATA
?_14:
        DC8 "[iperf]: Iperf TCP Client: Start!"
        DC8 0, 0

        SECTION `.text`:CODE:NOROOT(2)
        SECTION_TYPE SHT_PROGBITS, 0
        DATA
// __absolute char const _cli_iperf_help::__FUNCTION__[16]
`_cli_iperf_help::__FUNCTION__`:
        DC8 "_cli_iperf_help"

        SECTION `.text`:CODE:NOROOT(2)
        SECTION_TYPE SHT_PROGBITS, 0
        DATA
?_15:
        DC8 "[iperf]: Usage: iperf [-s|-c] [options]"

        SECTION `.text`:CODE:NOROOT(2)
        SECTION_TYPE SHT_PROGBITS, 0
        DATA
?_16:
        DC8 "[iperf]:        iperf [-h]\012"

        SECTION `.text`:CODE:NOROOT(2)
        SECTION_TYPE SHT_PROGBITS, 0
        DATA
?_17:
        DC8 "[iperf]: Client/Server:"

        SECTION `.text`:CODE:NOROOT(2)
        SECTION_TYPE SHT_PROGBITS, 0
        DATA
?_18:
        DC8 "[iperf]:   -u,        use UDP rather than TCP"
        DC8 0, 0

        SECTION `.text`:CODE:NOROOT(2)
        SECTION_TYPE SHT_PROGBITS, 0
        DATA
?_19:
        DC8 5BH, 69H, 70H, 65H, 72H, 66H, 5DH, 3AH
        DC8 20H, 20H, 20H, 2DH, 70H, 2CH, 20H, 20H
        DC8 20H, 20H, 23H, 20H, 20H, 20H, 20H, 73H
        DC8 65H, 72H, 76H, 65H, 72H, 20H, 70H, 6FH
        DC8 72H, 74H, 20H, 74H, 6FH, 20H, 6CH, 69H
        DC8 73H, 74H, 65H, 6EH, 20H, 6FH, 6EH, 2FH
        DC8 63H, 6FH, 6EH, 6EH, 65H, 63H, 74H, 20H
        DC8 74H, 6FH, 20H, 28H, 64H, 65H, 66H, 61H
        DC8 75H, 6CH, 74H, 20H, 35H, 30H, 30H, 31H
        DC8 29H, 0
        DC8 0, 0

        SECTION `.text`:CODE:NOROOT(2)
        SECTION_TYPE SHT_PROGBITS, 0
        DATA
?_20:
        DC8 5BH, 69H, 70H, 65H, 72H, 66H, 5DH, 3AH
        DC8 20H, 20H, 20H, 2DH, 6EH, 2CH, 20H, 20H
        DC8 20H, 20H, 23H, 5BH, 6BH, 6DH, 4BH, 4DH
        DC8 5DH, 20H, 20H, 20H, 20H, 6EH, 75H, 6DH
        DC8 62H, 65H, 72H, 20H, 6FH, 66H, 20H, 62H
        DC8 79H, 74H, 65H, 73H, 20H, 74H, 6FH, 20H
        DC8 74H, 72H, 61H, 6EH, 73H, 6DH, 69H, 74H
        DC8 20H, 0
        DC8 0, 0

        SECTION `.text`:CODE:NOROOT(2)
        SECTION_TYPE SHT_PROGBITS, 0
        DATA
?_21:
        DC8 5BH, 69H, 70H, 65H, 72H, 66H, 5DH, 3AH
        DC8 20H, 20H, 20H, 2DH, 62H, 2CH, 20H, 20H
        DC8 20H, 20H, 23H, 5BH, 6BH, 6DH, 4BH, 4DH
        DC8 5DH, 20H, 20H, 20H, 20H, 66H, 6FH, 72H
        DC8 20H, 55H, 44H, 50H, 2CH, 20H, 62H, 61H
        DC8 6EH, 64H, 77H, 69H, 64H, 74H, 68H, 20H
        DC8 74H, 6FH, 20H, 73H, 65H, 6EH, 64H, 20H
        DC8 61H, 74H, 20H, 69H, 6EH, 20H, 62H, 69H
        DC8 74H, 73H, 2FH, 73H, 65H, 63H, 0
        DC8 0

        SECTION `.text`:CODE:NOROOT(2)
        SECTION_TYPE SHT_PROGBITS, 0
        DATA
?_22:
        DC8 5BH, 69H, 70H, 65H, 72H, 66H, 5DH, 3AH
        DC8 20H, 20H, 20H, 2DH, 69H, 2CH, 20H, 20H
        DC8 20H, 20H, 20H, 20H, 20H, 20H, 31H, 30H
        DC8 20H, 73H, 65H, 63H, 6FH, 6EH, 64H, 73H
        DC8 20H, 62H, 65H, 74H, 77H, 65H, 65H, 6EH
        DC8 20H, 70H, 65H, 72H, 69H, 6FH, 64H, 69H
        DC8 63H, 20H, 62H, 61H, 6EH, 64H, 77H, 69H
        DC8 64H, 74H, 68H, 20H, 72H, 65H, 70H, 6FH
        DC8 72H, 74H, 73H, 20H, 0AH, 0
        DC8 0, 0

        SECTION `.text`:CODE:NOROOT(2)
        SECTION_TYPE SHT_PROGBITS, 0
        DATA
?_23:
        DC8 "[iperf]: Server specific:"
        DC8 0, 0

        SECTION `.text`:CODE:NOROOT(2)
        SECTION_TYPE SHT_PROGBITS, 0
        DATA
?_24:
        DC8 "[iperf]:   -s,        run in server mode"
        DC8 0, 0, 0

        SECTION `.text`:CODE:NOROOT(2)
        SECTION_TYPE SHT_PROGBITS, 0
        DATA
?_25:
        DC8 5BH, 69H, 70H, 65H, 72H, 66H, 5DH, 3AH
        DC8 20H, 20H, 20H, 2DH, 42H, 2CH, 20H, 20H
        DC8 20H, 20H, 3CH, 69H, 70H, 3EH, 20H, 20H
        DC8 20H, 20H, 62H, 69H, 6EH, 64H, 20H, 74H
        DC8 6FH, 20H, 3CH, 69H, 70H, 3EH, 2CH, 20H
        DC8 61H, 6EH, 64H, 20H, 6AH, 6FH, 69H, 6EH
        DC8 20H, 74H, 6FH, 20H, 61H, 20H, 6DH, 75H
        DC8 6CH, 74H, 69H, 63H, 61H, 73H, 74H, 20H
        DC8 67H, 72H, 6FH, 75H, 70H, 20H, 28H, 6FH
        DC8 6EH, 6CH, 79H, 20H, 53H, 75H, 70H, 70H
        DC8 6FH, 72H, 74H, 20H, 55H, 44H, 50H, 29H
        DC8 0
        DC8 0, 0, 0

        SECTION `.text`:CODE:NOROOT(2)
        SECTION_TYPE SHT_PROGBITS, 0
        DATA
?_26:
        DC8 5BH, 69H, 70H, 65H, 72H, 66H, 5DH, 3AH
        DC8 20H, 20H, 20H, 2DH, 72H, 2CH, 20H, 20H
        DC8 20H, 20H, 20H, 20H, 20H, 20H, 66H, 6FH
        DC8 72H, 20H, 55H, 44H, 50H, 2CH, 20H, 72H
        DC8 75H, 6EH, 20H, 69H, 70H, 65H, 72H, 66H
        DC8 20H, 69H, 6EH, 20H, 74H, 72H, 61H, 64H
        DC8 65H, 6FH, 66H, 66H, 20H, 74H, 65H, 73H
        DC8 74H, 69H, 6EH, 67H, 20H, 6DH, 6FH, 64H
        DC8 65H, 2CH, 20H, 63H, 6FH, 6EH, 6EH, 65H
        DC8 63H, 74H, 69H, 6EH, 67H, 20H, 62H, 61H
        DC8 63H, 6BH, 20H, 74H, 6FH, 20H, 63H, 6CH
        DC8 69H, 65H, 6EH, 74H, 0AH, 0
        DC8 0, 0

        SECTION `.text`:CODE:NOROOT(2)
        SECTION_TYPE SHT_PROGBITS, 0
        DATA
?_27:
        DC8 "[iperf]: Client specific:"
        DC8 0, 0

        SECTION `.text`:CODE:NOROOT(2)
        SECTION_TYPE SHT_PROGBITS, 0
        DATA
?_28:
        DC8 5BH, 69H, 70H, 65H, 72H, 66H, 5DH, 3AH
        DC8 20H, 20H, 20H, 2DH, 63H, 2CH, 20H, 20H
        DC8 20H, 20H, 3CH, 69H, 70H, 3EH, 20H, 20H
        DC8 20H, 20H, 72H, 75H, 6EH, 20H, 69H, 6EH
        DC8 20H, 63H, 6CH, 69H, 65H, 6EH, 74H, 20H
        DC8 6DH, 6FH, 64H, 65H, 2CH, 20H, 63H, 6FH
        DC8 6EH, 6EH, 65H, 63H, 74H, 69H, 6EH, 67H
        DC8 20H, 74H, 6FH, 20H, 3CH, 69H, 70H, 3EH
        DC8 0
        DC8 0, 0, 0

        SECTION `.text`:CODE:NOROOT(2)
        SECTION_TYPE SHT_PROGBITS, 0
        DATA
?_29:
        DC8 "[iperf]:   -w,    #[kmKM]    TCP window size"
        DC8 0, 0, 0

        SECTION `.text`:CODE:NOROOT(2)
        SECTION_TYPE SHT_PROGBITS, 0
        DATA
?_30:
        DC8 "[iperf]:   -l,    #[kmKM]    UDP datagram size"
        DC8 0

        SECTION `.text`:CODE:NOROOT(2)
        SECTION_TYPE SHT_PROGBITS, 0
        DATA
?_31:
        DC8 5BH, 69H, 70H, 65H, 72H, 66H, 5DH, 3AH
        DC8 20H, 20H, 20H, 2DH, 74H, 2CH, 20H, 20H
        DC8 20H, 20H, 23H, 20H, 20H, 20H, 20H, 74H
        DC8 69H, 6DH, 65H, 20H, 69H, 6EH, 20H, 73H
        DC8 65H, 63H, 6FH, 6EH, 64H, 73H, 20H, 74H
        DC8 6FH, 20H, 74H, 72H, 61H, 6EH, 73H, 6DH
        DC8 69H, 74H, 20H, 66H, 6FH, 72H, 20H, 28H
        DC8 64H, 65H, 66H, 61H, 75H, 6CH, 74H, 20H
        DC8 31H, 30H, 20H, 73H, 65H, 63H, 73H, 29H
        DC8 0
        DC8 0, 0, 0

        SECTION `.text`:CODE:NOROOT(2)
        SECTION_TYPE SHT_PROGBITS, 0
        DATA
?_32:
        DC8 5BH, 69H, 70H, 65H, 72H, 66H, 5DH, 3AH
        DC8 20H, 20H, 20H, 2DH, 53H, 2CH, 20H, 20H
        DC8 20H, 20H, 23H, 20H, 20H, 20H, 20H, 74H
        DC8 68H, 65H, 20H, 74H, 79H, 70H, 65H, 2DH
        DC8 6FH, 66H, 2DH, 73H, 65H, 72H, 76H, 69H
        DC8 63H, 65H, 20H, 6FH, 66H, 20H, 6FH, 75H
        DC8 74H, 67H, 6FH, 69H, 6EH, 67H, 20H, 70H
        DC8 61H, 63H, 6BH, 65H, 74H, 73H, 0AH, 0

        SECTION `.text`:CODE:NOROOT(2)
        SECTION_TYPE SHT_PROGBITS, 0
        DATA
?_33:
        DC8 "[iperf]: Miscellaneous:"

        SECTION `.text`:CODE:NOROOT(2)
        SECTION_TYPE SHT_PROGBITS, 0
        DATA
?_34:
        DC8 5BH, 69H, 70H, 65H, 72H, 66H, 5DH, 3AH
        DC8 20H, 20H, 20H, 2DH, 68H, 2CH, 20H, 20H
        DC8 20H, 20H, 20H, 20H, 20H, 20H, 70H, 72H
        DC8 69H, 6EH, 74H, 20H, 74H, 68H, 69H, 73H
        DC8 20H, 6DH, 65H, 73H, 73H, 61H, 67H, 65H
        DC8 20H, 61H, 6EH, 64H, 20H, 71H, 75H, 69H
        DC8 74H, 0AH, 0
        DC8 0

        SECTION `.text`:CODE:NOROOT(2)
        SECTION_TYPE SHT_PROGBITS, 0
        DATA
?_35:
        DC8 5BH, 69H, 70H, 65H, 72H, 66H, 5DH, 3AH
        DC8 20H, 5BH, 6BH, 6DH, 4BH, 4DH, 5DH, 20H
        DC8 49H, 6EH, 64H, 69H, 63H, 61H, 74H, 65H
        DC8 73H, 20H, 6FH, 70H, 74H, 69H, 6FH, 6EH
        DC8 73H, 20H, 74H, 68H, 61H, 74H, 20H, 73H
        DC8 75H, 70H, 70H, 6FH, 72H, 74H, 20H, 61H
        DC8 20H, 6BH, 2FH, 4BH, 20H, 6FH, 72H, 20H
        DC8 6DH, 2FH, 4DH, 20H, 73H, 75H, 66H, 66H
        DC8 69H, 78H, 20H, 66H, 6FH, 72H, 20H, 6BH
        DC8 69H, 6CH, 6FH, 2DH, 20H, 6FH, 72H, 20H
        DC8 6DH, 65H, 67H, 61H, 2DH, 0AH, 0
        DC8 0

        SECTION `.text`:CODE:NOROOT(2)
        SECTION_TYPE SHT_PROGBITS, 0
        DATA
?_36:
        DC8 "[iperf]: TOS options for -S parameter:"
        DC8 0

        SECTION `.text`:CODE:NOROOT(2)
        SECTION_TYPE SHT_PROGBITS, 0
        DATA
?_37:
        DC8 "[iperf]: BE: -S 0"
        DC8 0, 0

        SECTION `.text`:CODE:NOROOT(2)
        SECTION_TYPE SHT_PROGBITS, 0
        DATA
?_38:
        DC8 "[iperf]: BK: -S 32"
        DC8 0

        SECTION `.text`:CODE:NOROOT(2)
        SECTION_TYPE SHT_PROGBITS, 0
        DATA
?_39:
        DC8 "[iperf]: VI: -S 160"

        SECTION `.text`:CODE:NOROOT(2)
        SECTION_TYPE SHT_PROGBITS, 0
        DATA
?_40:
        DC8 "[iperf]: VO: -S 224\012"
        DC8 0, 0, 0

        SECTION `.text`:CODE:NOROOT(2)
        SECTION_TYPE SHT_PROGBITS, 0
        DATA
?_41:
        DC8 "[iperf]: Tradeoff Testing Mode:"

        SECTION `.text`:CODE:NOROOT(2)
        SECTION_TYPE SHT_PROGBITS, 0
        DATA
?_42:
        DC8 5BH, 69H, 70H, 65H, 72H, 66H, 5DH, 3AH
        DC8 20H, 43H, 6FH, 6DH, 6DH, 61H, 6EH, 64H
        DC8 3AH, 20H, 69H, 70H, 65H, 72H, 66H, 20H
        DC8 2DH, 73H, 20H, 2DH, 75H, 20H, 2DH, 6EH
        DC8 20H, 3CH, 62H, 69H, 74H, 73H, 2FH, 62H
        DC8 79H, 74H, 65H, 73H, 3EH, 20H, 2DH, 72H
        DC8 20H, 0AH, 0
        DC8 0

        SECTION `.text`:CODE:NOROOT(2)
        SECTION_TYPE SHT_PROGBITS, 0
        DATA
?_43:
        DC8 "[iperf]: Example:"
        DC8 0, 0

        SECTION `.text`:CODE:NOROOT(2)
        SECTION_TYPE SHT_PROGBITS, 0
        DATA
?_44:
        DC8 "[iperf]: Iperf TCP Server: iperf -s"

        SECTION `.text`:CODE:NOROOT(2)
        SECTION_TYPE SHT_PROGBITS, 0
        DATA
?_45:
        DC8 "[iperf]: Iperf UDP Server: iperf -s -u"
        DC8 0

        SECTION `.text`:CODE:NOROOT(2)
        SECTION_TYPE SHT_PROGBITS, 0
        DATA
?_46:
        DC8 5BH, 69H, 70H, 65H, 72H, 66H, 5DH, 3AH
        DC8 20H, 49H, 70H, 65H, 72H, 66H, 20H, 54H
        DC8 43H, 50H, 20H, 43H, 6CH, 69H, 65H, 6EH
        DC8 74H, 3AH, 20H, 69H, 70H, 65H, 72H, 66H
        DC8 20H, 2DH, 63H, 20H, 3CH, 69H, 70H, 3EH
        DC8 20H, 2DH, 77H, 20H, 3CH, 77H, 69H, 6EH
        DC8 64H, 6FH, 77H, 20H, 73H, 69H, 7AH, 65H
        DC8 3EH, 20H, 2DH, 74H, 20H, 3CH, 64H, 75H
        DC8 72H, 61H, 74H, 69H, 6FH, 6EH, 3EH, 20H
        DC8 2DH, 70H, 20H, 3CH, 70H, 6FH, 72H, 74H
        DC8 3EH, 0
        DC8 0, 0

        SECTION `.text`:CODE:NOROOT(2)
        SECTION_TYPE SHT_PROGBITS, 0
        DATA
?_47:
        DC8 5BH, 69H, 70H, 65H, 72H, 66H, 5DH, 3AH
        DC8 20H, 49H, 70H, 65H, 72H, 66H, 20H, 55H
        DC8 44H, 50H, 20H, 43H, 6CH, 69H, 65H, 6EH
        DC8 74H, 3AH, 20H, 69H, 70H, 65H, 72H, 66H
        DC8 20H, 2DH, 63H, 20H, 3CH, 69H, 70H, 3EH
        DC8 20H, 2DH, 75H, 20H, 2DH, 6CH, 20H, 3CH
        DC8 64H, 61H, 74H, 61H, 67H, 72H, 61H, 6DH
        DC8 20H, 73H, 69H, 7AH, 65H, 3EH, 20H, 2DH
        DC8 74H, 20H, 3CH, 64H, 75H, 72H, 61H, 74H
        DC8 69H, 6FH, 6EH, 3EH, 20H, 2DH, 70H, 20H
        DC8 3CH, 70H, 6FH, 72H, 74H, 3EH, 0
        DC8 0
//  196 
//  197 #if defined(MTK_IPERF_DEBUG_ENABLE)
//  198 static uint8_t _cli_iperf_debug(uint8_t len, char *param[])
//  199 {
//  200     int debug;
//  201     debug = atoi(param[0]);
//  202     IPERF_LOGI("Set iperf debug to %d(0x%x)\n", debug, debug);
//  203     iperf_set_debug_mode(debug);
//  204     return 0;
//  205 }
//  206 #endif
//  207 

        SECTION `.data`:DATA:REORDER:NOROOT(2)
        DATA
//  208 cmd_t iperf_cli[] = {
iperf_cli:
        DC32 ?_0, ?_1, _cli_iperf_server
        DC8 0, 0, 0, 0
        DC32 ?_2, ?_3, _cli_iperf_client
        DC8 0, 0, 0, 0
        DC32 ?_4, ?_5, _cli_iperf_help
        DC8 0, 0, 0, 0
        DC32 0H
        DC8 0, 0, 0, 0, 0, 0, 0, 0, 0, 0, 0, 0

        SECTION `.iar_vfe_header`:DATA:NOALLOC:NOROOT(2)
        SECTION_TYPE SHT_PROGBITS, 0
        DATA
        DC32 0

        SECTION `.rodata`:CONST:NOROOT(2)
        DATA
?_0:
        DC8 "-s"
        DC8 0

        SECTION `.rodata`:CONST:NOROOT(2)
        DATA
?_1:
        DC8 "iperf server"
        DC8 0, 0, 0

        SECTION `.rodata`:CONST:NOROOT(2)
        DATA
?_2:
        DC8 "-c"
        DC8 0

        SECTION `.rodata`:CONST:NOROOT(2)
        DATA
?_3:
        DC8 "iperf client"
        DC8 0, 0, 0

        SECTION `.rodata`:CONST:NOROOT(2)
        DATA
?_4:
        DC8 "-h"
        DC8 0

        SECTION `.rodata`:CONST:NOROOT(2)
        DATA
?_5:
        DC8 "help"
        DC8 0, 0, 0

        SECTION `.rodata`:CONST:NOROOT(2)
        DATA
?_7:
        DC8 "-u"
        DC8 0

        END
//  209     { "-s",        "iperf server",               _cli_iperf_server   },
//  210     { "-c",        "iperf client",               _cli_iperf_client   },
//  211     { "-h",                "help",               _cli_iperf_help     },
//  212 #if defined(MTK_IPERF_DEBUG_ENABLE)
//  213     { "-d",               "debug",               _cli_iperf_debug    },
//  214 #endif
//  215     { NULL }
//  216 
//  217 };
// 
//    64 bytes in section .data
//    56 bytes in section .rodata
// 3 196 bytes in section .text
// 
// 3 196 bytes of CODE  memory
//    56 bytes of CONST memory
//    64 bytes of DATA  memory
//
//Errors: none
//Warnings: 2
